ARM GAS  /tmp/ccrOzmIp.s 			page 1


   1              		.cpu cortex-m4
   2              		.arch armv7e-m
   3              		.fpu fpv4-sp-d16
   4              		.eabi_attribute 27, 1
   5              		.eabi_attribute 28, 1
   6              		.eabi_attribute 20, 1
   7              		.eabi_attribute 21, 1
   8              		.eabi_attribute 23, 3
   9              		.eabi_attribute 24, 1
  10              		.eabi_attribute 25, 1
  11              		.eabi_attribute 26, 1
  12              		.eabi_attribute 30, 1
  13              		.eabi_attribute 34, 1
  14              		.eabi_attribute 18, 4
  15              		.file	"stm32f4xx_hal_can.c"
  16              		.text
  17              	.Ltext0:
  18              		.cfi_sections	.debug_frame
  19              		.section	.text.HAL_CAN_MspInit,"ax",%progbits
  20              		.align	1
  21              		.weak	HAL_CAN_MspInit
  22              		.syntax unified
  23              		.thumb
  24              		.thumb_func
  26              	HAL_CAN_MspInit:
  27              	.LVL0:
  28              	.LFB218:
  29              		.file 1 "Drivers/STM32F4xx_HAL_Driver/Src/stm32f4xx_hal_can.c"
   1:Drivers/STM32F4xx_HAL_Driver/Src/stm32f4xx_hal_can.c **** /**
   2:Drivers/STM32F4xx_HAL_Driver/Src/stm32f4xx_hal_can.c ****   ******************************************************************************
   3:Drivers/STM32F4xx_HAL_Driver/Src/stm32f4xx_hal_can.c ****   * @file    stm32f4xx_hal_can.c
   4:Drivers/STM32F4xx_HAL_Driver/Src/stm32f4xx_hal_can.c ****   * @author  MCD Application Team
   5:Drivers/STM32F4xx_HAL_Driver/Src/stm32f4xx_hal_can.c ****   * @brief   CAN HAL module driver.
   6:Drivers/STM32F4xx_HAL_Driver/Src/stm32f4xx_hal_can.c ****   *          This file provides firmware functions to manage the following
   7:Drivers/STM32F4xx_HAL_Driver/Src/stm32f4xx_hal_can.c ****   *          functionalities of the Controller Area Network (CAN) peripheral:
   8:Drivers/STM32F4xx_HAL_Driver/Src/stm32f4xx_hal_can.c ****   *           + Initialization and de-initialization functions
   9:Drivers/STM32F4xx_HAL_Driver/Src/stm32f4xx_hal_can.c ****   *           + Configuration functions
  10:Drivers/STM32F4xx_HAL_Driver/Src/stm32f4xx_hal_can.c ****   *           + Control functions
  11:Drivers/STM32F4xx_HAL_Driver/Src/stm32f4xx_hal_can.c ****   *           + Interrupts management
  12:Drivers/STM32F4xx_HAL_Driver/Src/stm32f4xx_hal_can.c ****   *           + Callbacks functions
  13:Drivers/STM32F4xx_HAL_Driver/Src/stm32f4xx_hal_can.c ****   *           + Peripheral State and Error functions
  14:Drivers/STM32F4xx_HAL_Driver/Src/stm32f4xx_hal_can.c ****   *
  15:Drivers/STM32F4xx_HAL_Driver/Src/stm32f4xx_hal_can.c ****   ******************************************************************************
  16:Drivers/STM32F4xx_HAL_Driver/Src/stm32f4xx_hal_can.c ****   * @attention
  17:Drivers/STM32F4xx_HAL_Driver/Src/stm32f4xx_hal_can.c ****   *
  18:Drivers/STM32F4xx_HAL_Driver/Src/stm32f4xx_hal_can.c ****   * Copyright (c) 2016 STMicroelectronics.
  19:Drivers/STM32F4xx_HAL_Driver/Src/stm32f4xx_hal_can.c ****   * All rights reserved.
  20:Drivers/STM32F4xx_HAL_Driver/Src/stm32f4xx_hal_can.c ****   *
  21:Drivers/STM32F4xx_HAL_Driver/Src/stm32f4xx_hal_can.c ****   * This software is licensed under terms that can be found in the LICENSE file
  22:Drivers/STM32F4xx_HAL_Driver/Src/stm32f4xx_hal_can.c ****   * in the root directory of this software component.
  23:Drivers/STM32F4xx_HAL_Driver/Src/stm32f4xx_hal_can.c ****   * If no LICENSE file comes with this software, it is provided AS-IS.
  24:Drivers/STM32F4xx_HAL_Driver/Src/stm32f4xx_hal_can.c ****   *
  25:Drivers/STM32F4xx_HAL_Driver/Src/stm32f4xx_hal_can.c ****   ******************************************************************************
  26:Drivers/STM32F4xx_HAL_Driver/Src/stm32f4xx_hal_can.c ****   @verbatim
  27:Drivers/STM32F4xx_HAL_Driver/Src/stm32f4xx_hal_can.c ****   ==============================================================================
  28:Drivers/STM32F4xx_HAL_Driver/Src/stm32f4xx_hal_can.c ****                         ##### How to use this driver #####
  29:Drivers/STM32F4xx_HAL_Driver/Src/stm32f4xx_hal_can.c ****   ==============================================================================
ARM GAS  /tmp/ccrOzmIp.s 			page 2


  30:Drivers/STM32F4xx_HAL_Driver/Src/stm32f4xx_hal_can.c ****     [..]
  31:Drivers/STM32F4xx_HAL_Driver/Src/stm32f4xx_hal_can.c ****       (#) Initialize the CAN low level resources by implementing the
  32:Drivers/STM32F4xx_HAL_Driver/Src/stm32f4xx_hal_can.c ****           HAL_CAN_MspInit():
  33:Drivers/STM32F4xx_HAL_Driver/Src/stm32f4xx_hal_can.c ****          (++) Enable the CAN interface clock using __HAL_RCC_CANx_CLK_ENABLE()
  34:Drivers/STM32F4xx_HAL_Driver/Src/stm32f4xx_hal_can.c ****          (++) Configure CAN pins
  35:Drivers/STM32F4xx_HAL_Driver/Src/stm32f4xx_hal_can.c ****              (+++) Enable the clock for the CAN GPIOs
  36:Drivers/STM32F4xx_HAL_Driver/Src/stm32f4xx_hal_can.c ****              (+++) Configure CAN pins as alternate function open-drain
  37:Drivers/STM32F4xx_HAL_Driver/Src/stm32f4xx_hal_can.c ****          (++) In case of using interrupts (e.g. HAL_CAN_ActivateNotification())
  38:Drivers/STM32F4xx_HAL_Driver/Src/stm32f4xx_hal_can.c ****              (+++) Configure the CAN interrupt priority using
  39:Drivers/STM32F4xx_HAL_Driver/Src/stm32f4xx_hal_can.c ****                    HAL_NVIC_SetPriority()
  40:Drivers/STM32F4xx_HAL_Driver/Src/stm32f4xx_hal_can.c ****              (+++) Enable the CAN IRQ handler using HAL_NVIC_EnableIRQ()
  41:Drivers/STM32F4xx_HAL_Driver/Src/stm32f4xx_hal_can.c ****              (+++) In CAN IRQ handler, call HAL_CAN_IRQHandler()
  42:Drivers/STM32F4xx_HAL_Driver/Src/stm32f4xx_hal_can.c **** 
  43:Drivers/STM32F4xx_HAL_Driver/Src/stm32f4xx_hal_can.c ****       (#) Initialize the CAN peripheral using HAL_CAN_Init() function. This
  44:Drivers/STM32F4xx_HAL_Driver/Src/stm32f4xx_hal_can.c ****           function resorts to HAL_CAN_MspInit() for low-level initialization.
  45:Drivers/STM32F4xx_HAL_Driver/Src/stm32f4xx_hal_can.c **** 
  46:Drivers/STM32F4xx_HAL_Driver/Src/stm32f4xx_hal_can.c ****       (#) Configure the reception filters using the following configuration
  47:Drivers/STM32F4xx_HAL_Driver/Src/stm32f4xx_hal_can.c ****           functions:
  48:Drivers/STM32F4xx_HAL_Driver/Src/stm32f4xx_hal_can.c ****             (++) HAL_CAN_ConfigFilter()
  49:Drivers/STM32F4xx_HAL_Driver/Src/stm32f4xx_hal_can.c **** 
  50:Drivers/STM32F4xx_HAL_Driver/Src/stm32f4xx_hal_can.c ****       (#) Start the CAN module using HAL_CAN_Start() function. At this level
  51:Drivers/STM32F4xx_HAL_Driver/Src/stm32f4xx_hal_can.c ****           the node is active on the bus: it receive messages, and can send
  52:Drivers/STM32F4xx_HAL_Driver/Src/stm32f4xx_hal_can.c ****           messages.
  53:Drivers/STM32F4xx_HAL_Driver/Src/stm32f4xx_hal_can.c **** 
  54:Drivers/STM32F4xx_HAL_Driver/Src/stm32f4xx_hal_can.c ****       (#) To manage messages transmission, the following Tx control functions
  55:Drivers/STM32F4xx_HAL_Driver/Src/stm32f4xx_hal_can.c ****           can be used:
  56:Drivers/STM32F4xx_HAL_Driver/Src/stm32f4xx_hal_can.c ****             (++) HAL_CAN_AddTxMessage() to request transmission of a new
  57:Drivers/STM32F4xx_HAL_Driver/Src/stm32f4xx_hal_can.c ****                  message.
  58:Drivers/STM32F4xx_HAL_Driver/Src/stm32f4xx_hal_can.c ****             (++) HAL_CAN_AbortTxRequest() to abort transmission of a pending
  59:Drivers/STM32F4xx_HAL_Driver/Src/stm32f4xx_hal_can.c ****                  message.
  60:Drivers/STM32F4xx_HAL_Driver/Src/stm32f4xx_hal_can.c ****             (++) HAL_CAN_GetTxMailboxesFreeLevel() to get the number of free Tx
  61:Drivers/STM32F4xx_HAL_Driver/Src/stm32f4xx_hal_can.c ****                  mailboxes.
  62:Drivers/STM32F4xx_HAL_Driver/Src/stm32f4xx_hal_can.c ****             (++) HAL_CAN_IsTxMessagePending() to check if a message is pending
  63:Drivers/STM32F4xx_HAL_Driver/Src/stm32f4xx_hal_can.c ****                  in a Tx mailbox.
  64:Drivers/STM32F4xx_HAL_Driver/Src/stm32f4xx_hal_can.c ****             (++) HAL_CAN_GetTxTimestamp() to get the timestamp of Tx message
  65:Drivers/STM32F4xx_HAL_Driver/Src/stm32f4xx_hal_can.c ****                  sent, if time triggered communication mode is enabled.
  66:Drivers/STM32F4xx_HAL_Driver/Src/stm32f4xx_hal_can.c **** 
  67:Drivers/STM32F4xx_HAL_Driver/Src/stm32f4xx_hal_can.c ****       (#) When a message is received into the CAN Rx FIFOs, it can be retrieved
  68:Drivers/STM32F4xx_HAL_Driver/Src/stm32f4xx_hal_can.c ****           using the HAL_CAN_GetRxMessage() function. The function
  69:Drivers/STM32F4xx_HAL_Driver/Src/stm32f4xx_hal_can.c ****           HAL_CAN_GetRxFifoFillLevel() allows to know how many Rx message are
  70:Drivers/STM32F4xx_HAL_Driver/Src/stm32f4xx_hal_can.c ****           stored in the Rx Fifo.
  71:Drivers/STM32F4xx_HAL_Driver/Src/stm32f4xx_hal_can.c **** 
  72:Drivers/STM32F4xx_HAL_Driver/Src/stm32f4xx_hal_can.c ****       (#) Calling the HAL_CAN_Stop() function stops the CAN module.
  73:Drivers/STM32F4xx_HAL_Driver/Src/stm32f4xx_hal_can.c **** 
  74:Drivers/STM32F4xx_HAL_Driver/Src/stm32f4xx_hal_can.c ****       (#) The deinitialization is achieved with HAL_CAN_DeInit() function.
  75:Drivers/STM32F4xx_HAL_Driver/Src/stm32f4xx_hal_can.c **** 
  76:Drivers/STM32F4xx_HAL_Driver/Src/stm32f4xx_hal_can.c **** 
  77:Drivers/STM32F4xx_HAL_Driver/Src/stm32f4xx_hal_can.c ****       *** Polling mode operation ***
  78:Drivers/STM32F4xx_HAL_Driver/Src/stm32f4xx_hal_can.c ****       ==============================
  79:Drivers/STM32F4xx_HAL_Driver/Src/stm32f4xx_hal_can.c ****     [..]
  80:Drivers/STM32F4xx_HAL_Driver/Src/stm32f4xx_hal_can.c ****       (#) Reception:
  81:Drivers/STM32F4xx_HAL_Driver/Src/stm32f4xx_hal_can.c ****             (++) Monitor reception of message using HAL_CAN_GetRxFifoFillLevel()
  82:Drivers/STM32F4xx_HAL_Driver/Src/stm32f4xx_hal_can.c ****                  until at least one message is received.
  83:Drivers/STM32F4xx_HAL_Driver/Src/stm32f4xx_hal_can.c ****             (++) Then get the message using HAL_CAN_GetRxMessage().
  84:Drivers/STM32F4xx_HAL_Driver/Src/stm32f4xx_hal_can.c **** 
  85:Drivers/STM32F4xx_HAL_Driver/Src/stm32f4xx_hal_can.c ****       (#) Transmission:
  86:Drivers/STM32F4xx_HAL_Driver/Src/stm32f4xx_hal_can.c ****             (++) Monitor the Tx mailboxes availability until at least one Tx
ARM GAS  /tmp/ccrOzmIp.s 			page 3


  87:Drivers/STM32F4xx_HAL_Driver/Src/stm32f4xx_hal_can.c ****                  mailbox is free, using HAL_CAN_GetTxMailboxesFreeLevel().
  88:Drivers/STM32F4xx_HAL_Driver/Src/stm32f4xx_hal_can.c ****             (++) Then request transmission of a message using
  89:Drivers/STM32F4xx_HAL_Driver/Src/stm32f4xx_hal_can.c ****                  HAL_CAN_AddTxMessage().
  90:Drivers/STM32F4xx_HAL_Driver/Src/stm32f4xx_hal_can.c **** 
  91:Drivers/STM32F4xx_HAL_Driver/Src/stm32f4xx_hal_can.c **** 
  92:Drivers/STM32F4xx_HAL_Driver/Src/stm32f4xx_hal_can.c ****       *** Interrupt mode operation ***
  93:Drivers/STM32F4xx_HAL_Driver/Src/stm32f4xx_hal_can.c ****       ================================
  94:Drivers/STM32F4xx_HAL_Driver/Src/stm32f4xx_hal_can.c ****     [..]
  95:Drivers/STM32F4xx_HAL_Driver/Src/stm32f4xx_hal_can.c ****       (#) Notifications are activated using HAL_CAN_ActivateNotification()
  96:Drivers/STM32F4xx_HAL_Driver/Src/stm32f4xx_hal_can.c ****           function. Then, the process can be controlled through the
  97:Drivers/STM32F4xx_HAL_Driver/Src/stm32f4xx_hal_can.c ****           available user callbacks: HAL_CAN_xxxCallback(), using same APIs
  98:Drivers/STM32F4xx_HAL_Driver/Src/stm32f4xx_hal_can.c ****           HAL_CAN_GetRxMessage() and HAL_CAN_AddTxMessage().
  99:Drivers/STM32F4xx_HAL_Driver/Src/stm32f4xx_hal_can.c **** 
 100:Drivers/STM32F4xx_HAL_Driver/Src/stm32f4xx_hal_can.c ****       (#) Notifications can be deactivated using
 101:Drivers/STM32F4xx_HAL_Driver/Src/stm32f4xx_hal_can.c ****           HAL_CAN_DeactivateNotification() function.
 102:Drivers/STM32F4xx_HAL_Driver/Src/stm32f4xx_hal_can.c **** 
 103:Drivers/STM32F4xx_HAL_Driver/Src/stm32f4xx_hal_can.c ****       (#) Special care should be taken for CAN_IT_RX_FIFO0_MSG_PENDING and
 104:Drivers/STM32F4xx_HAL_Driver/Src/stm32f4xx_hal_can.c ****           CAN_IT_RX_FIFO1_MSG_PENDING notifications. These notifications trig
 105:Drivers/STM32F4xx_HAL_Driver/Src/stm32f4xx_hal_can.c ****           the callbacks HAL_CAN_RxFIFO0MsgPendingCallback() and
 106:Drivers/STM32F4xx_HAL_Driver/Src/stm32f4xx_hal_can.c ****           HAL_CAN_RxFIFO1MsgPendingCallback(). User has two possible options
 107:Drivers/STM32F4xx_HAL_Driver/Src/stm32f4xx_hal_can.c ****           here.
 108:Drivers/STM32F4xx_HAL_Driver/Src/stm32f4xx_hal_can.c ****             (++) Directly get the Rx message in the callback, using
 109:Drivers/STM32F4xx_HAL_Driver/Src/stm32f4xx_hal_can.c ****                  HAL_CAN_GetRxMessage().
 110:Drivers/STM32F4xx_HAL_Driver/Src/stm32f4xx_hal_can.c ****             (++) Or deactivate the notification in the callback without
 111:Drivers/STM32F4xx_HAL_Driver/Src/stm32f4xx_hal_can.c ****                  getting the Rx message. The Rx message can then be got later
 112:Drivers/STM32F4xx_HAL_Driver/Src/stm32f4xx_hal_can.c ****                  using HAL_CAN_GetRxMessage(). Once the Rx message have been
 113:Drivers/STM32F4xx_HAL_Driver/Src/stm32f4xx_hal_can.c ****                  read, the notification can be activated again.
 114:Drivers/STM32F4xx_HAL_Driver/Src/stm32f4xx_hal_can.c **** 
 115:Drivers/STM32F4xx_HAL_Driver/Src/stm32f4xx_hal_can.c **** 
 116:Drivers/STM32F4xx_HAL_Driver/Src/stm32f4xx_hal_can.c ****       *** Sleep mode ***
 117:Drivers/STM32F4xx_HAL_Driver/Src/stm32f4xx_hal_can.c ****       ==================
 118:Drivers/STM32F4xx_HAL_Driver/Src/stm32f4xx_hal_can.c ****     [..]
 119:Drivers/STM32F4xx_HAL_Driver/Src/stm32f4xx_hal_can.c ****       (#) The CAN peripheral can be put in sleep mode (low power), using
 120:Drivers/STM32F4xx_HAL_Driver/Src/stm32f4xx_hal_can.c ****           HAL_CAN_RequestSleep(). The sleep mode will be entered as soon as the
 121:Drivers/STM32F4xx_HAL_Driver/Src/stm32f4xx_hal_can.c ****           current CAN activity (transmission or reception of a CAN frame) will
 122:Drivers/STM32F4xx_HAL_Driver/Src/stm32f4xx_hal_can.c ****           be completed.
 123:Drivers/STM32F4xx_HAL_Driver/Src/stm32f4xx_hal_can.c **** 
 124:Drivers/STM32F4xx_HAL_Driver/Src/stm32f4xx_hal_can.c ****       (#) A notification can be activated to be informed when the sleep mode
 125:Drivers/STM32F4xx_HAL_Driver/Src/stm32f4xx_hal_can.c ****           will be entered.
 126:Drivers/STM32F4xx_HAL_Driver/Src/stm32f4xx_hal_can.c **** 
 127:Drivers/STM32F4xx_HAL_Driver/Src/stm32f4xx_hal_can.c ****       (#) It can be checked if the sleep mode is entered using
 128:Drivers/STM32F4xx_HAL_Driver/Src/stm32f4xx_hal_can.c ****           HAL_CAN_IsSleepActive().
 129:Drivers/STM32F4xx_HAL_Driver/Src/stm32f4xx_hal_can.c ****           Note that the CAN state (accessible from the API HAL_CAN_GetState())
 130:Drivers/STM32F4xx_HAL_Driver/Src/stm32f4xx_hal_can.c ****           is HAL_CAN_STATE_SLEEP_PENDING as soon as the sleep mode request is
 131:Drivers/STM32F4xx_HAL_Driver/Src/stm32f4xx_hal_can.c ****           submitted (the sleep mode is not yet entered), and become
 132:Drivers/STM32F4xx_HAL_Driver/Src/stm32f4xx_hal_can.c ****           HAL_CAN_STATE_SLEEP_ACTIVE when the sleep mode is effective.
 133:Drivers/STM32F4xx_HAL_Driver/Src/stm32f4xx_hal_can.c **** 
 134:Drivers/STM32F4xx_HAL_Driver/Src/stm32f4xx_hal_can.c ****       (#) The wake-up from sleep mode can be triggered by two ways:
 135:Drivers/STM32F4xx_HAL_Driver/Src/stm32f4xx_hal_can.c ****             (++) Using HAL_CAN_WakeUp(). When returning from this function,
 136:Drivers/STM32F4xx_HAL_Driver/Src/stm32f4xx_hal_can.c ****                  the sleep mode is exited (if return status is HAL_OK).
 137:Drivers/STM32F4xx_HAL_Driver/Src/stm32f4xx_hal_can.c ****             (++) When a start of Rx CAN frame is detected by the CAN peripheral,
 138:Drivers/STM32F4xx_HAL_Driver/Src/stm32f4xx_hal_can.c ****                  if automatic wake up mode is enabled.
 139:Drivers/STM32F4xx_HAL_Driver/Src/stm32f4xx_hal_can.c **** 
 140:Drivers/STM32F4xx_HAL_Driver/Src/stm32f4xx_hal_can.c ****   *** Callback registration ***
 141:Drivers/STM32F4xx_HAL_Driver/Src/stm32f4xx_hal_can.c ****   =============================================
 142:Drivers/STM32F4xx_HAL_Driver/Src/stm32f4xx_hal_can.c **** 
 143:Drivers/STM32F4xx_HAL_Driver/Src/stm32f4xx_hal_can.c ****   The compilation define  USE_HAL_CAN_REGISTER_CALLBACKS when set to 1
ARM GAS  /tmp/ccrOzmIp.s 			page 4


 144:Drivers/STM32F4xx_HAL_Driver/Src/stm32f4xx_hal_can.c ****   allows the user to configure dynamically the driver callbacks.
 145:Drivers/STM32F4xx_HAL_Driver/Src/stm32f4xx_hal_can.c ****   Use Function HAL_CAN_RegisterCallback() to register an interrupt callback.
 146:Drivers/STM32F4xx_HAL_Driver/Src/stm32f4xx_hal_can.c **** 
 147:Drivers/STM32F4xx_HAL_Driver/Src/stm32f4xx_hal_can.c ****   Function HAL_CAN_RegisterCallback() allows to register following callbacks:
 148:Drivers/STM32F4xx_HAL_Driver/Src/stm32f4xx_hal_can.c ****     (+) TxMailbox0CompleteCallback   : Tx Mailbox 0 Complete Callback.
 149:Drivers/STM32F4xx_HAL_Driver/Src/stm32f4xx_hal_can.c ****     (+) TxMailbox1CompleteCallback   : Tx Mailbox 1 Complete Callback.
 150:Drivers/STM32F4xx_HAL_Driver/Src/stm32f4xx_hal_can.c ****     (+) TxMailbox2CompleteCallback   : Tx Mailbox 2 Complete Callback.
 151:Drivers/STM32F4xx_HAL_Driver/Src/stm32f4xx_hal_can.c ****     (+) TxMailbox0AbortCallback      : Tx Mailbox 0 Abort Callback.
 152:Drivers/STM32F4xx_HAL_Driver/Src/stm32f4xx_hal_can.c ****     (+) TxMailbox1AbortCallback      : Tx Mailbox 1 Abort Callback.
 153:Drivers/STM32F4xx_HAL_Driver/Src/stm32f4xx_hal_can.c ****     (+) TxMailbox2AbortCallback      : Tx Mailbox 2 Abort Callback.
 154:Drivers/STM32F4xx_HAL_Driver/Src/stm32f4xx_hal_can.c ****     (+) RxFifo0MsgPendingCallback    : Rx Fifo 0 Message Pending Callback.
 155:Drivers/STM32F4xx_HAL_Driver/Src/stm32f4xx_hal_can.c ****     (+) RxFifo0FullCallback          : Rx Fifo 0 Full Callback.
 156:Drivers/STM32F4xx_HAL_Driver/Src/stm32f4xx_hal_can.c ****     (+) RxFifo1MsgPendingCallback    : Rx Fifo 1 Message Pending Callback.
 157:Drivers/STM32F4xx_HAL_Driver/Src/stm32f4xx_hal_can.c ****     (+) RxFifo1FullCallback          : Rx Fifo 1 Full Callback.
 158:Drivers/STM32F4xx_HAL_Driver/Src/stm32f4xx_hal_can.c ****     (+) SleepCallback                : Sleep Callback.
 159:Drivers/STM32F4xx_HAL_Driver/Src/stm32f4xx_hal_can.c ****     (+) WakeUpFromRxMsgCallback      : Wake Up From Rx Message Callback.
 160:Drivers/STM32F4xx_HAL_Driver/Src/stm32f4xx_hal_can.c ****     (+) ErrorCallback                : Error Callback.
 161:Drivers/STM32F4xx_HAL_Driver/Src/stm32f4xx_hal_can.c ****     (+) MspInitCallback              : CAN MspInit.
 162:Drivers/STM32F4xx_HAL_Driver/Src/stm32f4xx_hal_can.c ****     (+) MspDeInitCallback            : CAN MspDeInit.
 163:Drivers/STM32F4xx_HAL_Driver/Src/stm32f4xx_hal_can.c ****   This function takes as parameters the HAL peripheral handle, the Callback ID
 164:Drivers/STM32F4xx_HAL_Driver/Src/stm32f4xx_hal_can.c ****   and a pointer to the user callback function.
 165:Drivers/STM32F4xx_HAL_Driver/Src/stm32f4xx_hal_can.c **** 
 166:Drivers/STM32F4xx_HAL_Driver/Src/stm32f4xx_hal_can.c ****   Use function HAL_CAN_UnRegisterCallback() to reset a callback to the default
 167:Drivers/STM32F4xx_HAL_Driver/Src/stm32f4xx_hal_can.c ****   weak function.
 168:Drivers/STM32F4xx_HAL_Driver/Src/stm32f4xx_hal_can.c ****   HAL_CAN_UnRegisterCallback takes as parameters the HAL peripheral handle,
 169:Drivers/STM32F4xx_HAL_Driver/Src/stm32f4xx_hal_can.c ****   and the Callback ID.
 170:Drivers/STM32F4xx_HAL_Driver/Src/stm32f4xx_hal_can.c ****   This function allows to reset following callbacks:
 171:Drivers/STM32F4xx_HAL_Driver/Src/stm32f4xx_hal_can.c ****     (+) TxMailbox0CompleteCallback   : Tx Mailbox 0 Complete Callback.
 172:Drivers/STM32F4xx_HAL_Driver/Src/stm32f4xx_hal_can.c ****     (+) TxMailbox1CompleteCallback   : Tx Mailbox 1 Complete Callback.
 173:Drivers/STM32F4xx_HAL_Driver/Src/stm32f4xx_hal_can.c ****     (+) TxMailbox2CompleteCallback   : Tx Mailbox 2 Complete Callback.
 174:Drivers/STM32F4xx_HAL_Driver/Src/stm32f4xx_hal_can.c ****     (+) TxMailbox0AbortCallback      : Tx Mailbox 0 Abort Callback.
 175:Drivers/STM32F4xx_HAL_Driver/Src/stm32f4xx_hal_can.c ****     (+) TxMailbox1AbortCallback      : Tx Mailbox 1 Abort Callback.
 176:Drivers/STM32F4xx_HAL_Driver/Src/stm32f4xx_hal_can.c ****     (+) TxMailbox2AbortCallback      : Tx Mailbox 2 Abort Callback.
 177:Drivers/STM32F4xx_HAL_Driver/Src/stm32f4xx_hal_can.c ****     (+) RxFifo0MsgPendingCallback    : Rx Fifo 0 Message Pending Callback.
 178:Drivers/STM32F4xx_HAL_Driver/Src/stm32f4xx_hal_can.c ****     (+) RxFifo0FullCallback          : Rx Fifo 0 Full Callback.
 179:Drivers/STM32F4xx_HAL_Driver/Src/stm32f4xx_hal_can.c ****     (+) RxFifo1MsgPendingCallback    : Rx Fifo 1 Message Pending Callback.
 180:Drivers/STM32F4xx_HAL_Driver/Src/stm32f4xx_hal_can.c ****     (+) RxFifo1FullCallback          : Rx Fifo 1 Full Callback.
 181:Drivers/STM32F4xx_HAL_Driver/Src/stm32f4xx_hal_can.c ****     (+) SleepCallback                : Sleep Callback.
 182:Drivers/STM32F4xx_HAL_Driver/Src/stm32f4xx_hal_can.c ****     (+) WakeUpFromRxMsgCallback      : Wake Up From Rx Message Callback.
 183:Drivers/STM32F4xx_HAL_Driver/Src/stm32f4xx_hal_can.c ****     (+) ErrorCallback                : Error Callback.
 184:Drivers/STM32F4xx_HAL_Driver/Src/stm32f4xx_hal_can.c ****     (+) MspInitCallback              : CAN MspInit.
 185:Drivers/STM32F4xx_HAL_Driver/Src/stm32f4xx_hal_can.c ****     (+) MspDeInitCallback            : CAN MspDeInit.
 186:Drivers/STM32F4xx_HAL_Driver/Src/stm32f4xx_hal_can.c **** 
 187:Drivers/STM32F4xx_HAL_Driver/Src/stm32f4xx_hal_can.c ****   By default, after the HAL_CAN_Init() and when the state is HAL_CAN_STATE_RESET,
 188:Drivers/STM32F4xx_HAL_Driver/Src/stm32f4xx_hal_can.c ****   all callbacks are set to the corresponding weak functions:
 189:Drivers/STM32F4xx_HAL_Driver/Src/stm32f4xx_hal_can.c ****   example HAL_CAN_ErrorCallback().
 190:Drivers/STM32F4xx_HAL_Driver/Src/stm32f4xx_hal_can.c ****   Exception done for MspInit and MspDeInit functions that are
 191:Drivers/STM32F4xx_HAL_Driver/Src/stm32f4xx_hal_can.c ****   reset to the legacy weak function in the HAL_CAN_Init()/ HAL_CAN_DeInit() only when
 192:Drivers/STM32F4xx_HAL_Driver/Src/stm32f4xx_hal_can.c ****   these callbacks are null (not registered beforehand).
 193:Drivers/STM32F4xx_HAL_Driver/Src/stm32f4xx_hal_can.c ****   if not, MspInit or MspDeInit are not null, the HAL_CAN_Init()/ HAL_CAN_DeInit()
 194:Drivers/STM32F4xx_HAL_Driver/Src/stm32f4xx_hal_can.c ****   keep and use the user MspInit/MspDeInit callbacks (registered beforehand)
 195:Drivers/STM32F4xx_HAL_Driver/Src/stm32f4xx_hal_can.c **** 
 196:Drivers/STM32F4xx_HAL_Driver/Src/stm32f4xx_hal_can.c ****   Callbacks can be registered/unregistered in HAL_CAN_STATE_READY state only.
 197:Drivers/STM32F4xx_HAL_Driver/Src/stm32f4xx_hal_can.c ****   Exception done MspInit/MspDeInit that can be registered/unregistered
 198:Drivers/STM32F4xx_HAL_Driver/Src/stm32f4xx_hal_can.c ****   in HAL_CAN_STATE_READY or HAL_CAN_STATE_RESET state,
 199:Drivers/STM32F4xx_HAL_Driver/Src/stm32f4xx_hal_can.c ****   thus registered (user) MspInit/DeInit callbacks can be used during the Init/DeInit.
 200:Drivers/STM32F4xx_HAL_Driver/Src/stm32f4xx_hal_can.c ****   In that case first register the MspInit/MspDeInit user callbacks
ARM GAS  /tmp/ccrOzmIp.s 			page 5


 201:Drivers/STM32F4xx_HAL_Driver/Src/stm32f4xx_hal_can.c ****   using HAL_CAN_RegisterCallback() before calling HAL_CAN_DeInit()
 202:Drivers/STM32F4xx_HAL_Driver/Src/stm32f4xx_hal_can.c ****   or HAL_CAN_Init() function.
 203:Drivers/STM32F4xx_HAL_Driver/Src/stm32f4xx_hal_can.c **** 
 204:Drivers/STM32F4xx_HAL_Driver/Src/stm32f4xx_hal_can.c ****   When The compilation define USE_HAL_CAN_REGISTER_CALLBACKS is set to 0 or
 205:Drivers/STM32F4xx_HAL_Driver/Src/stm32f4xx_hal_can.c ****   not defined, the callback registration feature is not available and all callbacks
 206:Drivers/STM32F4xx_HAL_Driver/Src/stm32f4xx_hal_can.c ****   are set to the corresponding weak functions.
 207:Drivers/STM32F4xx_HAL_Driver/Src/stm32f4xx_hal_can.c **** 
 208:Drivers/STM32F4xx_HAL_Driver/Src/stm32f4xx_hal_can.c ****   @endverbatim
 209:Drivers/STM32F4xx_HAL_Driver/Src/stm32f4xx_hal_can.c ****   ******************************************************************************
 210:Drivers/STM32F4xx_HAL_Driver/Src/stm32f4xx_hal_can.c ****   */
 211:Drivers/STM32F4xx_HAL_Driver/Src/stm32f4xx_hal_can.c **** 
 212:Drivers/STM32F4xx_HAL_Driver/Src/stm32f4xx_hal_can.c **** /* Includes ------------------------------------------------------------------*/
 213:Drivers/STM32F4xx_HAL_Driver/Src/stm32f4xx_hal_can.c **** #include "stm32f4xx_hal.h"
 214:Drivers/STM32F4xx_HAL_Driver/Src/stm32f4xx_hal_can.c **** 
 215:Drivers/STM32F4xx_HAL_Driver/Src/stm32f4xx_hal_can.c **** /** @addtogroup STM32F4xx_HAL_Driver
 216:Drivers/STM32F4xx_HAL_Driver/Src/stm32f4xx_hal_can.c ****   * @{
 217:Drivers/STM32F4xx_HAL_Driver/Src/stm32f4xx_hal_can.c ****   */
 218:Drivers/STM32F4xx_HAL_Driver/Src/stm32f4xx_hal_can.c **** 
 219:Drivers/STM32F4xx_HAL_Driver/Src/stm32f4xx_hal_can.c **** #if defined(CAN1)
 220:Drivers/STM32F4xx_HAL_Driver/Src/stm32f4xx_hal_can.c **** 
 221:Drivers/STM32F4xx_HAL_Driver/Src/stm32f4xx_hal_can.c **** /** @defgroup CAN CAN
 222:Drivers/STM32F4xx_HAL_Driver/Src/stm32f4xx_hal_can.c ****   * @brief CAN driver modules
 223:Drivers/STM32F4xx_HAL_Driver/Src/stm32f4xx_hal_can.c ****   * @{
 224:Drivers/STM32F4xx_HAL_Driver/Src/stm32f4xx_hal_can.c ****   */
 225:Drivers/STM32F4xx_HAL_Driver/Src/stm32f4xx_hal_can.c **** 
 226:Drivers/STM32F4xx_HAL_Driver/Src/stm32f4xx_hal_can.c **** #ifdef HAL_CAN_MODULE_ENABLED
 227:Drivers/STM32F4xx_HAL_Driver/Src/stm32f4xx_hal_can.c **** 
 228:Drivers/STM32F4xx_HAL_Driver/Src/stm32f4xx_hal_can.c **** #ifdef HAL_CAN_LEGACY_MODULE_ENABLED
 229:Drivers/STM32F4xx_HAL_Driver/Src/stm32f4xx_hal_can.c ****   #error "The CAN driver cannot be used with its legacy, Please enable only one CAN module at once"
 230:Drivers/STM32F4xx_HAL_Driver/Src/stm32f4xx_hal_can.c **** #endif
 231:Drivers/STM32F4xx_HAL_Driver/Src/stm32f4xx_hal_can.c **** 
 232:Drivers/STM32F4xx_HAL_Driver/Src/stm32f4xx_hal_can.c **** /* Private typedef -----------------------------------------------------------*/
 233:Drivers/STM32F4xx_HAL_Driver/Src/stm32f4xx_hal_can.c **** /* Private define ------------------------------------------------------------*/
 234:Drivers/STM32F4xx_HAL_Driver/Src/stm32f4xx_hal_can.c **** /** @defgroup CAN_Private_Constants CAN Private Constants
 235:Drivers/STM32F4xx_HAL_Driver/Src/stm32f4xx_hal_can.c ****   * @{
 236:Drivers/STM32F4xx_HAL_Driver/Src/stm32f4xx_hal_can.c ****   */
 237:Drivers/STM32F4xx_HAL_Driver/Src/stm32f4xx_hal_can.c **** #define CAN_TIMEOUT_VALUE 10U
 238:Drivers/STM32F4xx_HAL_Driver/Src/stm32f4xx_hal_can.c **** /**
 239:Drivers/STM32F4xx_HAL_Driver/Src/stm32f4xx_hal_can.c ****   * @}
 240:Drivers/STM32F4xx_HAL_Driver/Src/stm32f4xx_hal_can.c ****   */
 241:Drivers/STM32F4xx_HAL_Driver/Src/stm32f4xx_hal_can.c **** /* Private macro -------------------------------------------------------------*/
 242:Drivers/STM32F4xx_HAL_Driver/Src/stm32f4xx_hal_can.c **** /* Private variables ---------------------------------------------------------*/
 243:Drivers/STM32F4xx_HAL_Driver/Src/stm32f4xx_hal_can.c **** /* Private function prototypes -----------------------------------------------*/
 244:Drivers/STM32F4xx_HAL_Driver/Src/stm32f4xx_hal_can.c **** /* Exported functions --------------------------------------------------------*/
 245:Drivers/STM32F4xx_HAL_Driver/Src/stm32f4xx_hal_can.c **** 
 246:Drivers/STM32F4xx_HAL_Driver/Src/stm32f4xx_hal_can.c **** /** @defgroup CAN_Exported_Functions CAN Exported Functions
 247:Drivers/STM32F4xx_HAL_Driver/Src/stm32f4xx_hal_can.c ****   * @{
 248:Drivers/STM32F4xx_HAL_Driver/Src/stm32f4xx_hal_can.c ****   */
 249:Drivers/STM32F4xx_HAL_Driver/Src/stm32f4xx_hal_can.c **** 
 250:Drivers/STM32F4xx_HAL_Driver/Src/stm32f4xx_hal_can.c **** /** @defgroup CAN_Exported_Functions_Group1 Initialization and de-initialization functions
 251:Drivers/STM32F4xx_HAL_Driver/Src/stm32f4xx_hal_can.c ****  *  @brief    Initialization and Configuration functions
 252:Drivers/STM32F4xx_HAL_Driver/Src/stm32f4xx_hal_can.c ****  *
 253:Drivers/STM32F4xx_HAL_Driver/Src/stm32f4xx_hal_can.c **** @verbatim
 254:Drivers/STM32F4xx_HAL_Driver/Src/stm32f4xx_hal_can.c ****   ==============================================================================
 255:Drivers/STM32F4xx_HAL_Driver/Src/stm32f4xx_hal_can.c ****               ##### Initialization and de-initialization functions #####
 256:Drivers/STM32F4xx_HAL_Driver/Src/stm32f4xx_hal_can.c ****   ==============================================================================
 257:Drivers/STM32F4xx_HAL_Driver/Src/stm32f4xx_hal_can.c ****     [..]  This section provides functions allowing to:
ARM GAS  /tmp/ccrOzmIp.s 			page 6


 258:Drivers/STM32F4xx_HAL_Driver/Src/stm32f4xx_hal_can.c ****       (+) HAL_CAN_Init                       : Initialize and configure the CAN.
 259:Drivers/STM32F4xx_HAL_Driver/Src/stm32f4xx_hal_can.c ****       (+) HAL_CAN_DeInit                     : De-initialize the CAN.
 260:Drivers/STM32F4xx_HAL_Driver/Src/stm32f4xx_hal_can.c ****       (+) HAL_CAN_MspInit                    : Initialize the CAN MSP.
 261:Drivers/STM32F4xx_HAL_Driver/Src/stm32f4xx_hal_can.c ****       (+) HAL_CAN_MspDeInit                  : DeInitialize the CAN MSP.
 262:Drivers/STM32F4xx_HAL_Driver/Src/stm32f4xx_hal_can.c **** 
 263:Drivers/STM32F4xx_HAL_Driver/Src/stm32f4xx_hal_can.c **** @endverbatim
 264:Drivers/STM32F4xx_HAL_Driver/Src/stm32f4xx_hal_can.c ****   * @{
 265:Drivers/STM32F4xx_HAL_Driver/Src/stm32f4xx_hal_can.c ****   */
 266:Drivers/STM32F4xx_HAL_Driver/Src/stm32f4xx_hal_can.c **** 
 267:Drivers/STM32F4xx_HAL_Driver/Src/stm32f4xx_hal_can.c **** /**
 268:Drivers/STM32F4xx_HAL_Driver/Src/stm32f4xx_hal_can.c ****   * @brief  Initializes the CAN peripheral according to the specified
 269:Drivers/STM32F4xx_HAL_Driver/Src/stm32f4xx_hal_can.c ****   *         parameters in the CAN_InitStruct.
 270:Drivers/STM32F4xx_HAL_Driver/Src/stm32f4xx_hal_can.c ****   * @param  hcan pointer to a CAN_HandleTypeDef structure that contains
 271:Drivers/STM32F4xx_HAL_Driver/Src/stm32f4xx_hal_can.c ****   *         the configuration information for the specified CAN.
 272:Drivers/STM32F4xx_HAL_Driver/Src/stm32f4xx_hal_can.c ****   * @retval HAL status
 273:Drivers/STM32F4xx_HAL_Driver/Src/stm32f4xx_hal_can.c ****   */
 274:Drivers/STM32F4xx_HAL_Driver/Src/stm32f4xx_hal_can.c **** HAL_StatusTypeDef HAL_CAN_Init(CAN_HandleTypeDef *hcan)
 275:Drivers/STM32F4xx_HAL_Driver/Src/stm32f4xx_hal_can.c **** {
 276:Drivers/STM32F4xx_HAL_Driver/Src/stm32f4xx_hal_can.c ****   uint32_t tickstart;
 277:Drivers/STM32F4xx_HAL_Driver/Src/stm32f4xx_hal_can.c **** 
 278:Drivers/STM32F4xx_HAL_Driver/Src/stm32f4xx_hal_can.c ****   /* Check CAN handle */
 279:Drivers/STM32F4xx_HAL_Driver/Src/stm32f4xx_hal_can.c ****   if (hcan == NULL)
 280:Drivers/STM32F4xx_HAL_Driver/Src/stm32f4xx_hal_can.c ****   {
 281:Drivers/STM32F4xx_HAL_Driver/Src/stm32f4xx_hal_can.c ****     return HAL_ERROR;
 282:Drivers/STM32F4xx_HAL_Driver/Src/stm32f4xx_hal_can.c ****   }
 283:Drivers/STM32F4xx_HAL_Driver/Src/stm32f4xx_hal_can.c **** 
 284:Drivers/STM32F4xx_HAL_Driver/Src/stm32f4xx_hal_can.c ****   /* Check the parameters */
 285:Drivers/STM32F4xx_HAL_Driver/Src/stm32f4xx_hal_can.c ****   assert_param(IS_CAN_ALL_INSTANCE(hcan->Instance));
 286:Drivers/STM32F4xx_HAL_Driver/Src/stm32f4xx_hal_can.c ****   assert_param(IS_FUNCTIONAL_STATE(hcan->Init.TimeTriggeredMode));
 287:Drivers/STM32F4xx_HAL_Driver/Src/stm32f4xx_hal_can.c ****   assert_param(IS_FUNCTIONAL_STATE(hcan->Init.AutoBusOff));
 288:Drivers/STM32F4xx_HAL_Driver/Src/stm32f4xx_hal_can.c ****   assert_param(IS_FUNCTIONAL_STATE(hcan->Init.AutoWakeUp));
 289:Drivers/STM32F4xx_HAL_Driver/Src/stm32f4xx_hal_can.c ****   assert_param(IS_FUNCTIONAL_STATE(hcan->Init.AutoRetransmission));
 290:Drivers/STM32F4xx_HAL_Driver/Src/stm32f4xx_hal_can.c ****   assert_param(IS_FUNCTIONAL_STATE(hcan->Init.ReceiveFifoLocked));
 291:Drivers/STM32F4xx_HAL_Driver/Src/stm32f4xx_hal_can.c ****   assert_param(IS_FUNCTIONAL_STATE(hcan->Init.TransmitFifoPriority));
 292:Drivers/STM32F4xx_HAL_Driver/Src/stm32f4xx_hal_can.c ****   assert_param(IS_CAN_MODE(hcan->Init.Mode));
 293:Drivers/STM32F4xx_HAL_Driver/Src/stm32f4xx_hal_can.c ****   assert_param(IS_CAN_SJW(hcan->Init.SyncJumpWidth));
 294:Drivers/STM32F4xx_HAL_Driver/Src/stm32f4xx_hal_can.c ****   assert_param(IS_CAN_BS1(hcan->Init.TimeSeg1));
 295:Drivers/STM32F4xx_HAL_Driver/Src/stm32f4xx_hal_can.c ****   assert_param(IS_CAN_BS2(hcan->Init.TimeSeg2));
 296:Drivers/STM32F4xx_HAL_Driver/Src/stm32f4xx_hal_can.c ****   assert_param(IS_CAN_PRESCALER(hcan->Init.Prescaler));
 297:Drivers/STM32F4xx_HAL_Driver/Src/stm32f4xx_hal_can.c **** 
 298:Drivers/STM32F4xx_HAL_Driver/Src/stm32f4xx_hal_can.c **** #if USE_HAL_CAN_REGISTER_CALLBACKS == 1
 299:Drivers/STM32F4xx_HAL_Driver/Src/stm32f4xx_hal_can.c ****   if (hcan->State == HAL_CAN_STATE_RESET)
 300:Drivers/STM32F4xx_HAL_Driver/Src/stm32f4xx_hal_can.c ****   {
 301:Drivers/STM32F4xx_HAL_Driver/Src/stm32f4xx_hal_can.c ****     /* Reset callbacks to legacy functions */
 302:Drivers/STM32F4xx_HAL_Driver/Src/stm32f4xx_hal_can.c ****     hcan->RxFifo0MsgPendingCallback  =  HAL_CAN_RxFifo0MsgPendingCallback;  /* Legacy weak RxFifo0M
 303:Drivers/STM32F4xx_HAL_Driver/Src/stm32f4xx_hal_can.c ****     hcan->RxFifo0FullCallback        =  HAL_CAN_RxFifo0FullCallback;        /* Legacy weak RxFifo0F
 304:Drivers/STM32F4xx_HAL_Driver/Src/stm32f4xx_hal_can.c ****     hcan->RxFifo1MsgPendingCallback  =  HAL_CAN_RxFifo1MsgPendingCallback;  /* Legacy weak RxFifo1M
 305:Drivers/STM32F4xx_HAL_Driver/Src/stm32f4xx_hal_can.c ****     hcan->RxFifo1FullCallback        =  HAL_CAN_RxFifo1FullCallback;        /* Legacy weak RxFifo1F
 306:Drivers/STM32F4xx_HAL_Driver/Src/stm32f4xx_hal_can.c ****     hcan->TxMailbox0CompleteCallback =  HAL_CAN_TxMailbox0CompleteCallback; /* Legacy weak TxMailbo
 307:Drivers/STM32F4xx_HAL_Driver/Src/stm32f4xx_hal_can.c ****     hcan->TxMailbox1CompleteCallback =  HAL_CAN_TxMailbox1CompleteCallback; /* Legacy weak TxMailbo
 308:Drivers/STM32F4xx_HAL_Driver/Src/stm32f4xx_hal_can.c ****     hcan->TxMailbox2CompleteCallback =  HAL_CAN_TxMailbox2CompleteCallback; /* Legacy weak TxMailbo
 309:Drivers/STM32F4xx_HAL_Driver/Src/stm32f4xx_hal_can.c ****     hcan->TxMailbox0AbortCallback    =  HAL_CAN_TxMailbox0AbortCallback;    /* Legacy weak TxMailbo
 310:Drivers/STM32F4xx_HAL_Driver/Src/stm32f4xx_hal_can.c ****     hcan->TxMailbox1AbortCallback    =  HAL_CAN_TxMailbox1AbortCallback;    /* Legacy weak TxMailbo
 311:Drivers/STM32F4xx_HAL_Driver/Src/stm32f4xx_hal_can.c ****     hcan->TxMailbox2AbortCallback    =  HAL_CAN_TxMailbox2AbortCallback;    /* Legacy weak TxMailbo
 312:Drivers/STM32F4xx_HAL_Driver/Src/stm32f4xx_hal_can.c ****     hcan->SleepCallback              =  HAL_CAN_SleepCallback;              /* Legacy weak SleepCal
 313:Drivers/STM32F4xx_HAL_Driver/Src/stm32f4xx_hal_can.c ****     hcan->WakeUpFromRxMsgCallback    =  HAL_CAN_WakeUpFromRxMsgCallback;    /* Legacy weak WakeUpFr
 314:Drivers/STM32F4xx_HAL_Driver/Src/stm32f4xx_hal_can.c ****     hcan->ErrorCallback              =  HAL_CAN_ErrorCallback;              /* Legacy weak ErrorCal
ARM GAS  /tmp/ccrOzmIp.s 			page 7


 315:Drivers/STM32F4xx_HAL_Driver/Src/stm32f4xx_hal_can.c **** 
 316:Drivers/STM32F4xx_HAL_Driver/Src/stm32f4xx_hal_can.c ****     if (hcan->MspInitCallback == NULL)
 317:Drivers/STM32F4xx_HAL_Driver/Src/stm32f4xx_hal_can.c ****     {
 318:Drivers/STM32F4xx_HAL_Driver/Src/stm32f4xx_hal_can.c ****       hcan->MspInitCallback = HAL_CAN_MspInit; /* Legacy weak MspInit */
 319:Drivers/STM32F4xx_HAL_Driver/Src/stm32f4xx_hal_can.c ****     }
 320:Drivers/STM32F4xx_HAL_Driver/Src/stm32f4xx_hal_can.c **** 
 321:Drivers/STM32F4xx_HAL_Driver/Src/stm32f4xx_hal_can.c ****     /* Init the low level hardware: CLOCK, NVIC */
 322:Drivers/STM32F4xx_HAL_Driver/Src/stm32f4xx_hal_can.c ****     hcan->MspInitCallback(hcan);
 323:Drivers/STM32F4xx_HAL_Driver/Src/stm32f4xx_hal_can.c ****   }
 324:Drivers/STM32F4xx_HAL_Driver/Src/stm32f4xx_hal_can.c **** 
 325:Drivers/STM32F4xx_HAL_Driver/Src/stm32f4xx_hal_can.c **** #else
 326:Drivers/STM32F4xx_HAL_Driver/Src/stm32f4xx_hal_can.c ****   if (hcan->State == HAL_CAN_STATE_RESET)
 327:Drivers/STM32F4xx_HAL_Driver/Src/stm32f4xx_hal_can.c ****   {
 328:Drivers/STM32F4xx_HAL_Driver/Src/stm32f4xx_hal_can.c ****     /* Init the low level hardware: CLOCK, NVIC */
 329:Drivers/STM32F4xx_HAL_Driver/Src/stm32f4xx_hal_can.c ****     HAL_CAN_MspInit(hcan);
 330:Drivers/STM32F4xx_HAL_Driver/Src/stm32f4xx_hal_can.c ****   }
 331:Drivers/STM32F4xx_HAL_Driver/Src/stm32f4xx_hal_can.c **** #endif /* (USE_HAL_CAN_REGISTER_CALLBACKS) */
 332:Drivers/STM32F4xx_HAL_Driver/Src/stm32f4xx_hal_can.c **** 
 333:Drivers/STM32F4xx_HAL_Driver/Src/stm32f4xx_hal_can.c ****   /* Request initialisation */
 334:Drivers/STM32F4xx_HAL_Driver/Src/stm32f4xx_hal_can.c ****   SET_BIT(hcan->Instance->MCR, CAN_MCR_INRQ);
 335:Drivers/STM32F4xx_HAL_Driver/Src/stm32f4xx_hal_can.c **** 
 336:Drivers/STM32F4xx_HAL_Driver/Src/stm32f4xx_hal_can.c ****   /* Get tick */
 337:Drivers/STM32F4xx_HAL_Driver/Src/stm32f4xx_hal_can.c ****   tickstart = HAL_GetTick();
 338:Drivers/STM32F4xx_HAL_Driver/Src/stm32f4xx_hal_can.c **** 
 339:Drivers/STM32F4xx_HAL_Driver/Src/stm32f4xx_hal_can.c ****   /* Wait initialisation acknowledge */
 340:Drivers/STM32F4xx_HAL_Driver/Src/stm32f4xx_hal_can.c ****   while ((hcan->Instance->MSR & CAN_MSR_INAK) == 0U)
 341:Drivers/STM32F4xx_HAL_Driver/Src/stm32f4xx_hal_can.c ****   {
 342:Drivers/STM32F4xx_HAL_Driver/Src/stm32f4xx_hal_can.c ****     if ((HAL_GetTick() - tickstart) > CAN_TIMEOUT_VALUE)
 343:Drivers/STM32F4xx_HAL_Driver/Src/stm32f4xx_hal_can.c ****     {
 344:Drivers/STM32F4xx_HAL_Driver/Src/stm32f4xx_hal_can.c ****       /* Update error code */
 345:Drivers/STM32F4xx_HAL_Driver/Src/stm32f4xx_hal_can.c ****       hcan->ErrorCode |= HAL_CAN_ERROR_TIMEOUT;
 346:Drivers/STM32F4xx_HAL_Driver/Src/stm32f4xx_hal_can.c **** 
 347:Drivers/STM32F4xx_HAL_Driver/Src/stm32f4xx_hal_can.c ****       /* Change CAN state */
 348:Drivers/STM32F4xx_HAL_Driver/Src/stm32f4xx_hal_can.c ****       hcan->State = HAL_CAN_STATE_ERROR;
 349:Drivers/STM32F4xx_HAL_Driver/Src/stm32f4xx_hal_can.c **** 
 350:Drivers/STM32F4xx_HAL_Driver/Src/stm32f4xx_hal_can.c ****       return HAL_ERROR;
 351:Drivers/STM32F4xx_HAL_Driver/Src/stm32f4xx_hal_can.c ****     }
 352:Drivers/STM32F4xx_HAL_Driver/Src/stm32f4xx_hal_can.c ****   }
 353:Drivers/STM32F4xx_HAL_Driver/Src/stm32f4xx_hal_can.c **** 
 354:Drivers/STM32F4xx_HAL_Driver/Src/stm32f4xx_hal_can.c ****   /* Exit from sleep mode */
 355:Drivers/STM32F4xx_HAL_Driver/Src/stm32f4xx_hal_can.c ****   CLEAR_BIT(hcan->Instance->MCR, CAN_MCR_SLEEP);
 356:Drivers/STM32F4xx_HAL_Driver/Src/stm32f4xx_hal_can.c **** 
 357:Drivers/STM32F4xx_HAL_Driver/Src/stm32f4xx_hal_can.c ****   /* Get tick */
 358:Drivers/STM32F4xx_HAL_Driver/Src/stm32f4xx_hal_can.c ****   tickstart = HAL_GetTick();
 359:Drivers/STM32F4xx_HAL_Driver/Src/stm32f4xx_hal_can.c **** 
 360:Drivers/STM32F4xx_HAL_Driver/Src/stm32f4xx_hal_can.c ****   /* Check Sleep mode leave acknowledge */
 361:Drivers/STM32F4xx_HAL_Driver/Src/stm32f4xx_hal_can.c ****   while ((hcan->Instance->MSR & CAN_MSR_SLAK) != 0U)
 362:Drivers/STM32F4xx_HAL_Driver/Src/stm32f4xx_hal_can.c ****   {
 363:Drivers/STM32F4xx_HAL_Driver/Src/stm32f4xx_hal_can.c ****     if ((HAL_GetTick() - tickstart) > CAN_TIMEOUT_VALUE)
 364:Drivers/STM32F4xx_HAL_Driver/Src/stm32f4xx_hal_can.c ****     {
 365:Drivers/STM32F4xx_HAL_Driver/Src/stm32f4xx_hal_can.c ****       /* Update error code */
 366:Drivers/STM32F4xx_HAL_Driver/Src/stm32f4xx_hal_can.c ****       hcan->ErrorCode |= HAL_CAN_ERROR_TIMEOUT;
 367:Drivers/STM32F4xx_HAL_Driver/Src/stm32f4xx_hal_can.c **** 
 368:Drivers/STM32F4xx_HAL_Driver/Src/stm32f4xx_hal_can.c ****       /* Change CAN state */
 369:Drivers/STM32F4xx_HAL_Driver/Src/stm32f4xx_hal_can.c ****       hcan->State = HAL_CAN_STATE_ERROR;
 370:Drivers/STM32F4xx_HAL_Driver/Src/stm32f4xx_hal_can.c **** 
 371:Drivers/STM32F4xx_HAL_Driver/Src/stm32f4xx_hal_can.c ****       return HAL_ERROR;
ARM GAS  /tmp/ccrOzmIp.s 			page 8


 372:Drivers/STM32F4xx_HAL_Driver/Src/stm32f4xx_hal_can.c ****     }
 373:Drivers/STM32F4xx_HAL_Driver/Src/stm32f4xx_hal_can.c ****   }
 374:Drivers/STM32F4xx_HAL_Driver/Src/stm32f4xx_hal_can.c **** 
 375:Drivers/STM32F4xx_HAL_Driver/Src/stm32f4xx_hal_can.c ****   /* Set the time triggered communication mode */
 376:Drivers/STM32F4xx_HAL_Driver/Src/stm32f4xx_hal_can.c ****   if (hcan->Init.TimeTriggeredMode == ENABLE)
 377:Drivers/STM32F4xx_HAL_Driver/Src/stm32f4xx_hal_can.c ****   {
 378:Drivers/STM32F4xx_HAL_Driver/Src/stm32f4xx_hal_can.c ****     SET_BIT(hcan->Instance->MCR, CAN_MCR_TTCM);
 379:Drivers/STM32F4xx_HAL_Driver/Src/stm32f4xx_hal_can.c ****   }
 380:Drivers/STM32F4xx_HAL_Driver/Src/stm32f4xx_hal_can.c ****   else
 381:Drivers/STM32F4xx_HAL_Driver/Src/stm32f4xx_hal_can.c ****   {
 382:Drivers/STM32F4xx_HAL_Driver/Src/stm32f4xx_hal_can.c ****     CLEAR_BIT(hcan->Instance->MCR, CAN_MCR_TTCM);
 383:Drivers/STM32F4xx_HAL_Driver/Src/stm32f4xx_hal_can.c ****   }
 384:Drivers/STM32F4xx_HAL_Driver/Src/stm32f4xx_hal_can.c **** 
 385:Drivers/STM32F4xx_HAL_Driver/Src/stm32f4xx_hal_can.c ****   /* Set the automatic bus-off management */
 386:Drivers/STM32F4xx_HAL_Driver/Src/stm32f4xx_hal_can.c ****   if (hcan->Init.AutoBusOff == ENABLE)
 387:Drivers/STM32F4xx_HAL_Driver/Src/stm32f4xx_hal_can.c ****   {
 388:Drivers/STM32F4xx_HAL_Driver/Src/stm32f4xx_hal_can.c ****     SET_BIT(hcan->Instance->MCR, CAN_MCR_ABOM);
 389:Drivers/STM32F4xx_HAL_Driver/Src/stm32f4xx_hal_can.c ****   }
 390:Drivers/STM32F4xx_HAL_Driver/Src/stm32f4xx_hal_can.c ****   else
 391:Drivers/STM32F4xx_HAL_Driver/Src/stm32f4xx_hal_can.c ****   {
 392:Drivers/STM32F4xx_HAL_Driver/Src/stm32f4xx_hal_can.c ****     CLEAR_BIT(hcan->Instance->MCR, CAN_MCR_ABOM);
 393:Drivers/STM32F4xx_HAL_Driver/Src/stm32f4xx_hal_can.c ****   }
 394:Drivers/STM32F4xx_HAL_Driver/Src/stm32f4xx_hal_can.c **** 
 395:Drivers/STM32F4xx_HAL_Driver/Src/stm32f4xx_hal_can.c ****   /* Set the automatic wake-up mode */
 396:Drivers/STM32F4xx_HAL_Driver/Src/stm32f4xx_hal_can.c ****   if (hcan->Init.AutoWakeUp == ENABLE)
 397:Drivers/STM32F4xx_HAL_Driver/Src/stm32f4xx_hal_can.c ****   {
 398:Drivers/STM32F4xx_HAL_Driver/Src/stm32f4xx_hal_can.c ****     SET_BIT(hcan->Instance->MCR, CAN_MCR_AWUM);
 399:Drivers/STM32F4xx_HAL_Driver/Src/stm32f4xx_hal_can.c ****   }
 400:Drivers/STM32F4xx_HAL_Driver/Src/stm32f4xx_hal_can.c ****   else
 401:Drivers/STM32F4xx_HAL_Driver/Src/stm32f4xx_hal_can.c ****   {
 402:Drivers/STM32F4xx_HAL_Driver/Src/stm32f4xx_hal_can.c ****     CLEAR_BIT(hcan->Instance->MCR, CAN_MCR_AWUM);
 403:Drivers/STM32F4xx_HAL_Driver/Src/stm32f4xx_hal_can.c ****   }
 404:Drivers/STM32F4xx_HAL_Driver/Src/stm32f4xx_hal_can.c **** 
 405:Drivers/STM32F4xx_HAL_Driver/Src/stm32f4xx_hal_can.c ****   /* Set the automatic retransmission */
 406:Drivers/STM32F4xx_HAL_Driver/Src/stm32f4xx_hal_can.c ****   if (hcan->Init.AutoRetransmission == ENABLE)
 407:Drivers/STM32F4xx_HAL_Driver/Src/stm32f4xx_hal_can.c ****   {
 408:Drivers/STM32F4xx_HAL_Driver/Src/stm32f4xx_hal_can.c ****     CLEAR_BIT(hcan->Instance->MCR, CAN_MCR_NART);
 409:Drivers/STM32F4xx_HAL_Driver/Src/stm32f4xx_hal_can.c ****   }
 410:Drivers/STM32F4xx_HAL_Driver/Src/stm32f4xx_hal_can.c ****   else
 411:Drivers/STM32F4xx_HAL_Driver/Src/stm32f4xx_hal_can.c ****   {
 412:Drivers/STM32F4xx_HAL_Driver/Src/stm32f4xx_hal_can.c ****     SET_BIT(hcan->Instance->MCR, CAN_MCR_NART);
 413:Drivers/STM32F4xx_HAL_Driver/Src/stm32f4xx_hal_can.c ****   }
 414:Drivers/STM32F4xx_HAL_Driver/Src/stm32f4xx_hal_can.c **** 
 415:Drivers/STM32F4xx_HAL_Driver/Src/stm32f4xx_hal_can.c ****   /* Set the receive FIFO locked mode */
 416:Drivers/STM32F4xx_HAL_Driver/Src/stm32f4xx_hal_can.c ****   if (hcan->Init.ReceiveFifoLocked == ENABLE)
 417:Drivers/STM32F4xx_HAL_Driver/Src/stm32f4xx_hal_can.c ****   {
 418:Drivers/STM32F4xx_HAL_Driver/Src/stm32f4xx_hal_can.c ****     SET_BIT(hcan->Instance->MCR, CAN_MCR_RFLM);
 419:Drivers/STM32F4xx_HAL_Driver/Src/stm32f4xx_hal_can.c ****   }
 420:Drivers/STM32F4xx_HAL_Driver/Src/stm32f4xx_hal_can.c ****   else
 421:Drivers/STM32F4xx_HAL_Driver/Src/stm32f4xx_hal_can.c ****   {
 422:Drivers/STM32F4xx_HAL_Driver/Src/stm32f4xx_hal_can.c ****     CLEAR_BIT(hcan->Instance->MCR, CAN_MCR_RFLM);
 423:Drivers/STM32F4xx_HAL_Driver/Src/stm32f4xx_hal_can.c ****   }
 424:Drivers/STM32F4xx_HAL_Driver/Src/stm32f4xx_hal_can.c **** 
 425:Drivers/STM32F4xx_HAL_Driver/Src/stm32f4xx_hal_can.c ****   /* Set the transmit FIFO priority */
 426:Drivers/STM32F4xx_HAL_Driver/Src/stm32f4xx_hal_can.c ****   if (hcan->Init.TransmitFifoPriority == ENABLE)
 427:Drivers/STM32F4xx_HAL_Driver/Src/stm32f4xx_hal_can.c ****   {
 428:Drivers/STM32F4xx_HAL_Driver/Src/stm32f4xx_hal_can.c ****     SET_BIT(hcan->Instance->MCR, CAN_MCR_TXFP);
ARM GAS  /tmp/ccrOzmIp.s 			page 9


 429:Drivers/STM32F4xx_HAL_Driver/Src/stm32f4xx_hal_can.c ****   }
 430:Drivers/STM32F4xx_HAL_Driver/Src/stm32f4xx_hal_can.c ****   else
 431:Drivers/STM32F4xx_HAL_Driver/Src/stm32f4xx_hal_can.c ****   {
 432:Drivers/STM32F4xx_HAL_Driver/Src/stm32f4xx_hal_can.c ****     CLEAR_BIT(hcan->Instance->MCR, CAN_MCR_TXFP);
 433:Drivers/STM32F4xx_HAL_Driver/Src/stm32f4xx_hal_can.c ****   }
 434:Drivers/STM32F4xx_HAL_Driver/Src/stm32f4xx_hal_can.c **** 
 435:Drivers/STM32F4xx_HAL_Driver/Src/stm32f4xx_hal_can.c ****   /* Set the bit timing register */
 436:Drivers/STM32F4xx_HAL_Driver/Src/stm32f4xx_hal_can.c ****   WRITE_REG(hcan->Instance->BTR, (uint32_t)(hcan->Init.Mode           |
 437:Drivers/STM32F4xx_HAL_Driver/Src/stm32f4xx_hal_can.c ****                                             hcan->Init.SyncJumpWidth  |
 438:Drivers/STM32F4xx_HAL_Driver/Src/stm32f4xx_hal_can.c ****                                             hcan->Init.TimeSeg1       |
 439:Drivers/STM32F4xx_HAL_Driver/Src/stm32f4xx_hal_can.c ****                                             hcan->Init.TimeSeg2       |
 440:Drivers/STM32F4xx_HAL_Driver/Src/stm32f4xx_hal_can.c ****                                             (hcan->Init.Prescaler - 1U)));
 441:Drivers/STM32F4xx_HAL_Driver/Src/stm32f4xx_hal_can.c **** 
 442:Drivers/STM32F4xx_HAL_Driver/Src/stm32f4xx_hal_can.c ****   /* Initialize the error code */
 443:Drivers/STM32F4xx_HAL_Driver/Src/stm32f4xx_hal_can.c ****   hcan->ErrorCode = HAL_CAN_ERROR_NONE;
 444:Drivers/STM32F4xx_HAL_Driver/Src/stm32f4xx_hal_can.c **** 
 445:Drivers/STM32F4xx_HAL_Driver/Src/stm32f4xx_hal_can.c ****   /* Initialize the CAN state */
 446:Drivers/STM32F4xx_HAL_Driver/Src/stm32f4xx_hal_can.c ****   hcan->State = HAL_CAN_STATE_READY;
 447:Drivers/STM32F4xx_HAL_Driver/Src/stm32f4xx_hal_can.c **** 
 448:Drivers/STM32F4xx_HAL_Driver/Src/stm32f4xx_hal_can.c ****   /* Return function status */
 449:Drivers/STM32F4xx_HAL_Driver/Src/stm32f4xx_hal_can.c ****   return HAL_OK;
 450:Drivers/STM32F4xx_HAL_Driver/Src/stm32f4xx_hal_can.c **** }
 451:Drivers/STM32F4xx_HAL_Driver/Src/stm32f4xx_hal_can.c **** 
 452:Drivers/STM32F4xx_HAL_Driver/Src/stm32f4xx_hal_can.c **** /**
 453:Drivers/STM32F4xx_HAL_Driver/Src/stm32f4xx_hal_can.c ****   * @brief  Deinitializes the CAN peripheral registers to their default
 454:Drivers/STM32F4xx_HAL_Driver/Src/stm32f4xx_hal_can.c ****   *         reset values.
 455:Drivers/STM32F4xx_HAL_Driver/Src/stm32f4xx_hal_can.c ****   * @param  hcan pointer to a CAN_HandleTypeDef structure that contains
 456:Drivers/STM32F4xx_HAL_Driver/Src/stm32f4xx_hal_can.c ****   *         the configuration information for the specified CAN.
 457:Drivers/STM32F4xx_HAL_Driver/Src/stm32f4xx_hal_can.c ****   * @retval HAL status
 458:Drivers/STM32F4xx_HAL_Driver/Src/stm32f4xx_hal_can.c ****   */
 459:Drivers/STM32F4xx_HAL_Driver/Src/stm32f4xx_hal_can.c **** HAL_StatusTypeDef HAL_CAN_DeInit(CAN_HandleTypeDef *hcan)
 460:Drivers/STM32F4xx_HAL_Driver/Src/stm32f4xx_hal_can.c **** {
 461:Drivers/STM32F4xx_HAL_Driver/Src/stm32f4xx_hal_can.c ****   /* Check CAN handle */
 462:Drivers/STM32F4xx_HAL_Driver/Src/stm32f4xx_hal_can.c ****   if (hcan == NULL)
 463:Drivers/STM32F4xx_HAL_Driver/Src/stm32f4xx_hal_can.c ****   {
 464:Drivers/STM32F4xx_HAL_Driver/Src/stm32f4xx_hal_can.c ****     return HAL_ERROR;
 465:Drivers/STM32F4xx_HAL_Driver/Src/stm32f4xx_hal_can.c ****   }
 466:Drivers/STM32F4xx_HAL_Driver/Src/stm32f4xx_hal_can.c **** 
 467:Drivers/STM32F4xx_HAL_Driver/Src/stm32f4xx_hal_can.c ****   /* Check the parameters */
 468:Drivers/STM32F4xx_HAL_Driver/Src/stm32f4xx_hal_can.c ****   assert_param(IS_CAN_ALL_INSTANCE(hcan->Instance));
 469:Drivers/STM32F4xx_HAL_Driver/Src/stm32f4xx_hal_can.c **** 
 470:Drivers/STM32F4xx_HAL_Driver/Src/stm32f4xx_hal_can.c ****   /* Stop the CAN module */
 471:Drivers/STM32F4xx_HAL_Driver/Src/stm32f4xx_hal_can.c ****   (void)HAL_CAN_Stop(hcan);
 472:Drivers/STM32F4xx_HAL_Driver/Src/stm32f4xx_hal_can.c **** 
 473:Drivers/STM32F4xx_HAL_Driver/Src/stm32f4xx_hal_can.c **** #if USE_HAL_CAN_REGISTER_CALLBACKS == 1
 474:Drivers/STM32F4xx_HAL_Driver/Src/stm32f4xx_hal_can.c ****   if (hcan->MspDeInitCallback == NULL)
 475:Drivers/STM32F4xx_HAL_Driver/Src/stm32f4xx_hal_can.c ****   {
 476:Drivers/STM32F4xx_HAL_Driver/Src/stm32f4xx_hal_can.c ****     hcan->MspDeInitCallback = HAL_CAN_MspDeInit; /* Legacy weak MspDeInit */
 477:Drivers/STM32F4xx_HAL_Driver/Src/stm32f4xx_hal_can.c ****   }
 478:Drivers/STM32F4xx_HAL_Driver/Src/stm32f4xx_hal_can.c **** 
 479:Drivers/STM32F4xx_HAL_Driver/Src/stm32f4xx_hal_can.c ****   /* DeInit the low level hardware: CLOCK, NVIC */
 480:Drivers/STM32F4xx_HAL_Driver/Src/stm32f4xx_hal_can.c ****   hcan->MspDeInitCallback(hcan);
 481:Drivers/STM32F4xx_HAL_Driver/Src/stm32f4xx_hal_can.c **** 
 482:Drivers/STM32F4xx_HAL_Driver/Src/stm32f4xx_hal_can.c **** #else
 483:Drivers/STM32F4xx_HAL_Driver/Src/stm32f4xx_hal_can.c ****   /* DeInit the low level hardware: CLOCK, NVIC */
 484:Drivers/STM32F4xx_HAL_Driver/Src/stm32f4xx_hal_can.c ****   HAL_CAN_MspDeInit(hcan);
 485:Drivers/STM32F4xx_HAL_Driver/Src/stm32f4xx_hal_can.c **** #endif /* (USE_HAL_CAN_REGISTER_CALLBACKS) */
ARM GAS  /tmp/ccrOzmIp.s 			page 10


 486:Drivers/STM32F4xx_HAL_Driver/Src/stm32f4xx_hal_can.c **** 
 487:Drivers/STM32F4xx_HAL_Driver/Src/stm32f4xx_hal_can.c ****   /* Reset the CAN peripheral */
 488:Drivers/STM32F4xx_HAL_Driver/Src/stm32f4xx_hal_can.c ****   SET_BIT(hcan->Instance->MCR, CAN_MCR_RESET);
 489:Drivers/STM32F4xx_HAL_Driver/Src/stm32f4xx_hal_can.c **** 
 490:Drivers/STM32F4xx_HAL_Driver/Src/stm32f4xx_hal_can.c ****   /* Reset the CAN ErrorCode */
 491:Drivers/STM32F4xx_HAL_Driver/Src/stm32f4xx_hal_can.c ****   hcan->ErrorCode = HAL_CAN_ERROR_NONE;
 492:Drivers/STM32F4xx_HAL_Driver/Src/stm32f4xx_hal_can.c **** 
 493:Drivers/STM32F4xx_HAL_Driver/Src/stm32f4xx_hal_can.c ****   /* Change CAN state */
 494:Drivers/STM32F4xx_HAL_Driver/Src/stm32f4xx_hal_can.c ****   hcan->State = HAL_CAN_STATE_RESET;
 495:Drivers/STM32F4xx_HAL_Driver/Src/stm32f4xx_hal_can.c **** 
 496:Drivers/STM32F4xx_HAL_Driver/Src/stm32f4xx_hal_can.c ****   /* Return function status */
 497:Drivers/STM32F4xx_HAL_Driver/Src/stm32f4xx_hal_can.c ****   return HAL_OK;
 498:Drivers/STM32F4xx_HAL_Driver/Src/stm32f4xx_hal_can.c **** }
 499:Drivers/STM32F4xx_HAL_Driver/Src/stm32f4xx_hal_can.c **** 
 500:Drivers/STM32F4xx_HAL_Driver/Src/stm32f4xx_hal_can.c **** /**
 501:Drivers/STM32F4xx_HAL_Driver/Src/stm32f4xx_hal_can.c ****   * @brief  Initializes the CAN MSP.
 502:Drivers/STM32F4xx_HAL_Driver/Src/stm32f4xx_hal_can.c ****   * @param  hcan pointer to a CAN_HandleTypeDef structure that contains
 503:Drivers/STM32F4xx_HAL_Driver/Src/stm32f4xx_hal_can.c ****   *         the configuration information for the specified CAN.
 504:Drivers/STM32F4xx_HAL_Driver/Src/stm32f4xx_hal_can.c ****   * @retval None
 505:Drivers/STM32F4xx_HAL_Driver/Src/stm32f4xx_hal_can.c ****   */
 506:Drivers/STM32F4xx_HAL_Driver/Src/stm32f4xx_hal_can.c **** __weak void HAL_CAN_MspInit(CAN_HandleTypeDef *hcan)
 507:Drivers/STM32F4xx_HAL_Driver/Src/stm32f4xx_hal_can.c **** {
  30              		.loc 1 507 1 view -0
  31              		.cfi_startproc
  32              		@ args = 0, pretend = 0, frame = 0
  33              		@ frame_needed = 0, uses_anonymous_args = 0
  34              		@ link register save eliminated.
 508:Drivers/STM32F4xx_HAL_Driver/Src/stm32f4xx_hal_can.c ****   /* Prevent unused argument(s) compilation warning */
 509:Drivers/STM32F4xx_HAL_Driver/Src/stm32f4xx_hal_can.c ****   UNUSED(hcan);
  35              		.loc 1 509 3 view .LVU1
 510:Drivers/STM32F4xx_HAL_Driver/Src/stm32f4xx_hal_can.c **** 
 511:Drivers/STM32F4xx_HAL_Driver/Src/stm32f4xx_hal_can.c ****   /* NOTE : This function Should not be modified, when the callback is needed,
 512:Drivers/STM32F4xx_HAL_Driver/Src/stm32f4xx_hal_can.c ****             the HAL_CAN_MspInit could be implemented in the user file
 513:Drivers/STM32F4xx_HAL_Driver/Src/stm32f4xx_hal_can.c ****    */
 514:Drivers/STM32F4xx_HAL_Driver/Src/stm32f4xx_hal_can.c **** }
  36              		.loc 1 514 1 is_stmt 0 view .LVU2
  37 0000 7047     		bx	lr
  38              		.cfi_endproc
  39              	.LFE218:
  41              		.section	.text.HAL_CAN_Init,"ax",%progbits
  42              		.align	1
  43              		.global	HAL_CAN_Init
  44              		.syntax unified
  45              		.thumb
  46              		.thumb_func
  48              	HAL_CAN_Init:
  49              	.LVL1:
  50              	.LFB216:
 275:Drivers/STM32F4xx_HAL_Driver/Src/stm32f4xx_hal_can.c ****   uint32_t tickstart;
  51              		.loc 1 275 1 is_stmt 1 view -0
  52              		.cfi_startproc
  53              		@ args = 0, pretend = 0, frame = 0
  54              		@ frame_needed = 0, uses_anonymous_args = 0
 276:Drivers/STM32F4xx_HAL_Driver/Src/stm32f4xx_hal_can.c **** 
  55              		.loc 1 276 3 view .LVU4
 279:Drivers/STM32F4xx_HAL_Driver/Src/stm32f4xx_hal_can.c ****   {
  56              		.loc 1 279 3 view .LVU5
ARM GAS  /tmp/ccrOzmIp.s 			page 11


 279:Drivers/STM32F4xx_HAL_Driver/Src/stm32f4xx_hal_can.c ****   {
  57              		.loc 1 279 6 is_stmt 0 view .LVU6
  58 0000 0028     		cmp	r0, #0
  59 0002 00F0A180 		beq	.L21
 275:Drivers/STM32F4xx_HAL_Driver/Src/stm32f4xx_hal_can.c ****   uint32_t tickstart;
  60              		.loc 1 275 1 view .LVU7
  61 0006 38B5     		push	{r3, r4, r5, lr}
  62              	.LCFI0:
  63              		.cfi_def_cfa_offset 16
  64              		.cfi_offset 3, -16
  65              		.cfi_offset 4, -12
  66              		.cfi_offset 5, -8
  67              		.cfi_offset 14, -4
  68 0008 0446     		mov	r4, r0
 285:Drivers/STM32F4xx_HAL_Driver/Src/stm32f4xx_hal_can.c ****   assert_param(IS_FUNCTIONAL_STATE(hcan->Init.TimeTriggeredMode));
  69              		.loc 1 285 3 is_stmt 1 view .LVU8
 286:Drivers/STM32F4xx_HAL_Driver/Src/stm32f4xx_hal_can.c ****   assert_param(IS_FUNCTIONAL_STATE(hcan->Init.AutoBusOff));
  70              		.loc 1 286 3 view .LVU9
 287:Drivers/STM32F4xx_HAL_Driver/Src/stm32f4xx_hal_can.c ****   assert_param(IS_FUNCTIONAL_STATE(hcan->Init.AutoWakeUp));
  71              		.loc 1 287 3 view .LVU10
 288:Drivers/STM32F4xx_HAL_Driver/Src/stm32f4xx_hal_can.c ****   assert_param(IS_FUNCTIONAL_STATE(hcan->Init.AutoRetransmission));
  72              		.loc 1 288 3 view .LVU11
 289:Drivers/STM32F4xx_HAL_Driver/Src/stm32f4xx_hal_can.c ****   assert_param(IS_FUNCTIONAL_STATE(hcan->Init.ReceiveFifoLocked));
  73              		.loc 1 289 3 view .LVU12
 290:Drivers/STM32F4xx_HAL_Driver/Src/stm32f4xx_hal_can.c ****   assert_param(IS_FUNCTIONAL_STATE(hcan->Init.TransmitFifoPriority));
  74              		.loc 1 290 3 view .LVU13
 291:Drivers/STM32F4xx_HAL_Driver/Src/stm32f4xx_hal_can.c ****   assert_param(IS_CAN_MODE(hcan->Init.Mode));
  75              		.loc 1 291 3 view .LVU14
 292:Drivers/STM32F4xx_HAL_Driver/Src/stm32f4xx_hal_can.c ****   assert_param(IS_CAN_SJW(hcan->Init.SyncJumpWidth));
  76              		.loc 1 292 3 view .LVU15
 293:Drivers/STM32F4xx_HAL_Driver/Src/stm32f4xx_hal_can.c ****   assert_param(IS_CAN_BS1(hcan->Init.TimeSeg1));
  77              		.loc 1 293 3 view .LVU16
 294:Drivers/STM32F4xx_HAL_Driver/Src/stm32f4xx_hal_can.c ****   assert_param(IS_CAN_BS2(hcan->Init.TimeSeg2));
  78              		.loc 1 294 3 view .LVU17
 295:Drivers/STM32F4xx_HAL_Driver/Src/stm32f4xx_hal_can.c ****   assert_param(IS_CAN_PRESCALER(hcan->Init.Prescaler));
  79              		.loc 1 295 3 view .LVU18
 296:Drivers/STM32F4xx_HAL_Driver/Src/stm32f4xx_hal_can.c **** 
  80              		.loc 1 296 3 view .LVU19
 326:Drivers/STM32F4xx_HAL_Driver/Src/stm32f4xx_hal_can.c ****   {
  81              		.loc 1 326 3 view .LVU20
 326:Drivers/STM32F4xx_HAL_Driver/Src/stm32f4xx_hal_can.c ****   {
  82              		.loc 1 326 11 is_stmt 0 view .LVU21
  83 000a 90F82030 		ldrb	r3, [r0, #32]	@ zero_extendqisi2
 326:Drivers/STM32F4xx_HAL_Driver/Src/stm32f4xx_hal_can.c ****   {
  84              		.loc 1 326 6 view .LVU22
  85 000e D3B1     		cbz	r3, .L26
  86              	.LVL2:
  87              	.L4:
 334:Drivers/STM32F4xx_HAL_Driver/Src/stm32f4xx_hal_can.c **** 
  88              		.loc 1 334 3 is_stmt 1 view .LVU23
  89 0010 2268     		ldr	r2, [r4]
  90 0012 1368     		ldr	r3, [r2]
  91 0014 43F00103 		orr	r3, r3, #1
  92 0018 1360     		str	r3, [r2]
 337:Drivers/STM32F4xx_HAL_Driver/Src/stm32f4xx_hal_can.c **** 
  93              		.loc 1 337 3 view .LVU24
 337:Drivers/STM32F4xx_HAL_Driver/Src/stm32f4xx_hal_can.c **** 
ARM GAS  /tmp/ccrOzmIp.s 			page 12


  94              		.loc 1 337 15 is_stmt 0 view .LVU25
  95 001a FFF7FEFF 		bl	HAL_GetTick
  96              	.LVL3:
  97 001e 0546     		mov	r5, r0
  98              	.LVL4:
 340:Drivers/STM32F4xx_HAL_Driver/Src/stm32f4xx_hal_can.c ****   {
  99              		.loc 1 340 3 is_stmt 1 view .LVU26
 100              	.L5:
 340:Drivers/STM32F4xx_HAL_Driver/Src/stm32f4xx_hal_can.c ****   {
 101              		.loc 1 340 47 view .LVU27
 340:Drivers/STM32F4xx_HAL_Driver/Src/stm32f4xx_hal_can.c ****   {
 102              		.loc 1 340 15 is_stmt 0 view .LVU28
 103 0020 2368     		ldr	r3, [r4]
 340:Drivers/STM32F4xx_HAL_Driver/Src/stm32f4xx_hal_can.c ****   {
 104              		.loc 1 340 25 view .LVU29
 105 0022 5A68     		ldr	r2, [r3, #4]
 340:Drivers/STM32F4xx_HAL_Driver/Src/stm32f4xx_hal_can.c ****   {
 106              		.loc 1 340 47 view .LVU30
 107 0024 12F0010F 		tst	r2, #1
 108 0028 10D1     		bne	.L27
 342:Drivers/STM32F4xx_HAL_Driver/Src/stm32f4xx_hal_can.c ****     {
 109              		.loc 1 342 5 is_stmt 1 view .LVU31
 342:Drivers/STM32F4xx_HAL_Driver/Src/stm32f4xx_hal_can.c ****     {
 110              		.loc 1 342 10 is_stmt 0 view .LVU32
 111 002a FFF7FEFF 		bl	HAL_GetTick
 112              	.LVL5:
 342:Drivers/STM32F4xx_HAL_Driver/Src/stm32f4xx_hal_can.c ****     {
 113              		.loc 1 342 24 view .LVU33
 114 002e 401B     		subs	r0, r0, r5
 342:Drivers/STM32F4xx_HAL_Driver/Src/stm32f4xx_hal_can.c ****     {
 115              		.loc 1 342 8 view .LVU34
 116 0030 0A28     		cmp	r0, #10
 117 0032 F5D9     		bls	.L5
 345:Drivers/STM32F4xx_HAL_Driver/Src/stm32f4xx_hal_can.c **** 
 118              		.loc 1 345 7 is_stmt 1 view .LVU35
 345:Drivers/STM32F4xx_HAL_Driver/Src/stm32f4xx_hal_can.c **** 
 119              		.loc 1 345 23 is_stmt 0 view .LVU36
 120 0034 636A     		ldr	r3, [r4, #36]
 121 0036 43F40033 		orr	r3, r3, #131072
 122 003a 6362     		str	r3, [r4, #36]
 348:Drivers/STM32F4xx_HAL_Driver/Src/stm32f4xx_hal_can.c **** 
 123              		.loc 1 348 7 is_stmt 1 view .LVU37
 348:Drivers/STM32F4xx_HAL_Driver/Src/stm32f4xx_hal_can.c **** 
 124              		.loc 1 348 19 is_stmt 0 view .LVU38
 125 003c 0523     		movs	r3, #5
 126 003e 84F82030 		strb	r3, [r4, #32]
 350:Drivers/STM32F4xx_HAL_Driver/Src/stm32f4xx_hal_can.c ****     }
 127              		.loc 1 350 7 is_stmt 1 view .LVU39
 350:Drivers/STM32F4xx_HAL_Driver/Src/stm32f4xx_hal_can.c ****     }
 128              		.loc 1 350 14 is_stmt 0 view .LVU40
 129 0042 0120     		movs	r0, #1
 130              	.L3:
 450:Drivers/STM32F4xx_HAL_Driver/Src/stm32f4xx_hal_can.c **** 
 131              		.loc 1 450 1 view .LVU41
 132 0044 38BD     		pop	{r3, r4, r5, pc}
 133              	.LVL6:
 134              	.L26:
ARM GAS  /tmp/ccrOzmIp.s 			page 13


 329:Drivers/STM32F4xx_HAL_Driver/Src/stm32f4xx_hal_can.c ****   }
 135              		.loc 1 329 5 is_stmt 1 view .LVU42
 136 0046 FFF7FEFF 		bl	HAL_CAN_MspInit
 137              	.LVL7:
 329:Drivers/STM32F4xx_HAL_Driver/Src/stm32f4xx_hal_can.c ****   }
 138              		.loc 1 329 5 is_stmt 0 view .LVU43
 139 004a E1E7     		b	.L4
 140              	.LVL8:
 141              	.L27:
 355:Drivers/STM32F4xx_HAL_Driver/Src/stm32f4xx_hal_can.c **** 
 142              		.loc 1 355 3 is_stmt 1 view .LVU44
 143 004c 1A68     		ldr	r2, [r3]
 144 004e 22F00202 		bic	r2, r2, #2
 145 0052 1A60     		str	r2, [r3]
 358:Drivers/STM32F4xx_HAL_Driver/Src/stm32f4xx_hal_can.c **** 
 146              		.loc 1 358 3 view .LVU45
 358:Drivers/STM32F4xx_HAL_Driver/Src/stm32f4xx_hal_can.c **** 
 147              		.loc 1 358 15 is_stmt 0 view .LVU46
 148 0054 FFF7FEFF 		bl	HAL_GetTick
 149              	.LVL9:
 150 0058 0546     		mov	r5, r0
 151              	.LVL10:
 361:Drivers/STM32F4xx_HAL_Driver/Src/stm32f4xx_hal_can.c ****   {
 152              		.loc 1 361 3 is_stmt 1 view .LVU47
 153              	.L7:
 361:Drivers/STM32F4xx_HAL_Driver/Src/stm32f4xx_hal_can.c ****   {
 154              		.loc 1 361 47 view .LVU48
 361:Drivers/STM32F4xx_HAL_Driver/Src/stm32f4xx_hal_can.c ****   {
 155              		.loc 1 361 15 is_stmt 0 view .LVU49
 156 005a 2368     		ldr	r3, [r4]
 361:Drivers/STM32F4xx_HAL_Driver/Src/stm32f4xx_hal_can.c ****   {
 157              		.loc 1 361 25 view .LVU50
 158 005c 5A68     		ldr	r2, [r3, #4]
 361:Drivers/STM32F4xx_HAL_Driver/Src/stm32f4xx_hal_can.c ****   {
 159              		.loc 1 361 47 view .LVU51
 160 005e 12F0020F 		tst	r2, #2
 161 0062 0DD0     		beq	.L28
 363:Drivers/STM32F4xx_HAL_Driver/Src/stm32f4xx_hal_can.c ****     {
 162              		.loc 1 363 5 is_stmt 1 view .LVU52
 363:Drivers/STM32F4xx_HAL_Driver/Src/stm32f4xx_hal_can.c ****     {
 163              		.loc 1 363 10 is_stmt 0 view .LVU53
 164 0064 FFF7FEFF 		bl	HAL_GetTick
 165              	.LVL11:
 363:Drivers/STM32F4xx_HAL_Driver/Src/stm32f4xx_hal_can.c ****     {
 166              		.loc 1 363 24 view .LVU54
 167 0068 401B     		subs	r0, r0, r5
 363:Drivers/STM32F4xx_HAL_Driver/Src/stm32f4xx_hal_can.c ****     {
 168              		.loc 1 363 8 view .LVU55
 169 006a 0A28     		cmp	r0, #10
 170 006c F5D9     		bls	.L7
 366:Drivers/STM32F4xx_HAL_Driver/Src/stm32f4xx_hal_can.c **** 
 171              		.loc 1 366 7 is_stmt 1 view .LVU56
 366:Drivers/STM32F4xx_HAL_Driver/Src/stm32f4xx_hal_can.c **** 
 172              		.loc 1 366 23 is_stmt 0 view .LVU57
 173 006e 636A     		ldr	r3, [r4, #36]
 174 0070 43F40033 		orr	r3, r3, #131072
 175 0074 6362     		str	r3, [r4, #36]
ARM GAS  /tmp/ccrOzmIp.s 			page 14


 369:Drivers/STM32F4xx_HAL_Driver/Src/stm32f4xx_hal_can.c **** 
 176              		.loc 1 369 7 is_stmt 1 view .LVU58
 369:Drivers/STM32F4xx_HAL_Driver/Src/stm32f4xx_hal_can.c **** 
 177              		.loc 1 369 19 is_stmt 0 view .LVU59
 178 0076 0523     		movs	r3, #5
 179 0078 84F82030 		strb	r3, [r4, #32]
 371:Drivers/STM32F4xx_HAL_Driver/Src/stm32f4xx_hal_can.c ****     }
 180              		.loc 1 371 7 is_stmt 1 view .LVU60
 371:Drivers/STM32F4xx_HAL_Driver/Src/stm32f4xx_hal_can.c ****     }
 181              		.loc 1 371 14 is_stmt 0 view .LVU61
 182 007c 0120     		movs	r0, #1
 183 007e E1E7     		b	.L3
 184              	.L28:
 376:Drivers/STM32F4xx_HAL_Driver/Src/stm32f4xx_hal_can.c ****   {
 185              		.loc 1 376 3 is_stmt 1 view .LVU62
 376:Drivers/STM32F4xx_HAL_Driver/Src/stm32f4xx_hal_can.c ****   {
 186              		.loc 1 376 17 is_stmt 0 view .LVU63
 187 0080 227E     		ldrb	r2, [r4, #24]	@ zero_extendqisi2
 376:Drivers/STM32F4xx_HAL_Driver/Src/stm32f4xx_hal_can.c ****   {
 188              		.loc 1 376 6 view .LVU64
 189 0082 012A     		cmp	r2, #1
 190 0084 3DD0     		beq	.L29
 382:Drivers/STM32F4xx_HAL_Driver/Src/stm32f4xx_hal_can.c ****   }
 191              		.loc 1 382 5 is_stmt 1 view .LVU65
 192 0086 1A68     		ldr	r2, [r3]
 193 0088 22F08002 		bic	r2, r2, #128
 194 008c 1A60     		str	r2, [r3]
 195              	.L10:
 386:Drivers/STM32F4xx_HAL_Driver/Src/stm32f4xx_hal_can.c ****   {
 196              		.loc 1 386 3 view .LVU66
 386:Drivers/STM32F4xx_HAL_Driver/Src/stm32f4xx_hal_can.c ****   {
 197              		.loc 1 386 17 is_stmt 0 view .LVU67
 198 008e 637E     		ldrb	r3, [r4, #25]	@ zero_extendqisi2
 386:Drivers/STM32F4xx_HAL_Driver/Src/stm32f4xx_hal_can.c ****   {
 199              		.loc 1 386 6 view .LVU68
 200 0090 012B     		cmp	r3, #1
 201 0092 3BD0     		beq	.L30
 392:Drivers/STM32F4xx_HAL_Driver/Src/stm32f4xx_hal_can.c ****   }
 202              		.loc 1 392 5 is_stmt 1 view .LVU69
 203 0094 2268     		ldr	r2, [r4]
 204 0096 1368     		ldr	r3, [r2]
 205 0098 23F04003 		bic	r3, r3, #64
 206 009c 1360     		str	r3, [r2]
 207              	.L12:
 396:Drivers/STM32F4xx_HAL_Driver/Src/stm32f4xx_hal_can.c ****   {
 208              		.loc 1 396 3 view .LVU70
 396:Drivers/STM32F4xx_HAL_Driver/Src/stm32f4xx_hal_can.c ****   {
 209              		.loc 1 396 17 is_stmt 0 view .LVU71
 210 009e A37E     		ldrb	r3, [r4, #26]	@ zero_extendqisi2
 396:Drivers/STM32F4xx_HAL_Driver/Src/stm32f4xx_hal_can.c ****   {
 211              		.loc 1 396 6 view .LVU72
 212 00a0 012B     		cmp	r3, #1
 213 00a2 39D0     		beq	.L31
 402:Drivers/STM32F4xx_HAL_Driver/Src/stm32f4xx_hal_can.c ****   }
 214              		.loc 1 402 5 is_stmt 1 view .LVU73
 215 00a4 2268     		ldr	r2, [r4]
 216 00a6 1368     		ldr	r3, [r2]
ARM GAS  /tmp/ccrOzmIp.s 			page 15


 217 00a8 23F02003 		bic	r3, r3, #32
 218 00ac 1360     		str	r3, [r2]
 219              	.L14:
 406:Drivers/STM32F4xx_HAL_Driver/Src/stm32f4xx_hal_can.c ****   {
 220              		.loc 1 406 3 view .LVU74
 406:Drivers/STM32F4xx_HAL_Driver/Src/stm32f4xx_hal_can.c ****   {
 221              		.loc 1 406 17 is_stmt 0 view .LVU75
 222 00ae E37E     		ldrb	r3, [r4, #27]	@ zero_extendqisi2
 406:Drivers/STM32F4xx_HAL_Driver/Src/stm32f4xx_hal_can.c ****   {
 223              		.loc 1 406 6 view .LVU76
 224 00b0 012B     		cmp	r3, #1
 225 00b2 37D0     		beq	.L32
 412:Drivers/STM32F4xx_HAL_Driver/Src/stm32f4xx_hal_can.c ****   }
 226              		.loc 1 412 5 is_stmt 1 view .LVU77
 227 00b4 2268     		ldr	r2, [r4]
 228 00b6 1368     		ldr	r3, [r2]
 229 00b8 43F01003 		orr	r3, r3, #16
 230 00bc 1360     		str	r3, [r2]
 231              	.L16:
 416:Drivers/STM32F4xx_HAL_Driver/Src/stm32f4xx_hal_can.c ****   {
 232              		.loc 1 416 3 view .LVU78
 416:Drivers/STM32F4xx_HAL_Driver/Src/stm32f4xx_hal_can.c ****   {
 233              		.loc 1 416 17 is_stmt 0 view .LVU79
 234 00be 237F     		ldrb	r3, [r4, #28]	@ zero_extendqisi2
 416:Drivers/STM32F4xx_HAL_Driver/Src/stm32f4xx_hal_can.c ****   {
 235              		.loc 1 416 6 view .LVU80
 236 00c0 012B     		cmp	r3, #1
 237 00c2 35D0     		beq	.L33
 422:Drivers/STM32F4xx_HAL_Driver/Src/stm32f4xx_hal_can.c ****   }
 238              		.loc 1 422 5 is_stmt 1 view .LVU81
 239 00c4 2268     		ldr	r2, [r4]
 240 00c6 1368     		ldr	r3, [r2]
 241 00c8 23F00803 		bic	r3, r3, #8
 242 00cc 1360     		str	r3, [r2]
 243              	.L18:
 426:Drivers/STM32F4xx_HAL_Driver/Src/stm32f4xx_hal_can.c ****   {
 244              		.loc 1 426 3 view .LVU82
 426:Drivers/STM32F4xx_HAL_Driver/Src/stm32f4xx_hal_can.c ****   {
 245              		.loc 1 426 17 is_stmt 0 view .LVU83
 246 00ce 637F     		ldrb	r3, [r4, #29]	@ zero_extendqisi2
 426:Drivers/STM32F4xx_HAL_Driver/Src/stm32f4xx_hal_can.c ****   {
 247              		.loc 1 426 6 view .LVU84
 248 00d0 012B     		cmp	r3, #1
 249 00d2 33D0     		beq	.L34
 432:Drivers/STM32F4xx_HAL_Driver/Src/stm32f4xx_hal_can.c ****   }
 250              		.loc 1 432 5 is_stmt 1 view .LVU85
 251 00d4 2268     		ldr	r2, [r4]
 252 00d6 1368     		ldr	r3, [r2]
 253 00d8 23F00403 		bic	r3, r3, #4
 254 00dc 1360     		str	r3, [r2]
 255              	.L20:
 436:Drivers/STM32F4xx_HAL_Driver/Src/stm32f4xx_hal_can.c ****                                             hcan->Init.SyncJumpWidth  |
 256              		.loc 1 436 3 view .LVU86
 257 00de A368     		ldr	r3, [r4, #8]
 258 00e0 E268     		ldr	r2, [r4, #12]
 259 00e2 1343     		orrs	r3, r3, r2
 260 00e4 2269     		ldr	r2, [r4, #16]
ARM GAS  /tmp/ccrOzmIp.s 			page 16


 261 00e6 1343     		orrs	r3, r3, r2
 262 00e8 6269     		ldr	r2, [r4, #20]
 263 00ea 1343     		orrs	r3, r3, r2
 264 00ec 6268     		ldr	r2, [r4, #4]
 265 00ee 013A     		subs	r2, r2, #1
 266 00f0 2168     		ldr	r1, [r4]
 267 00f2 1343     		orrs	r3, r3, r2
 268 00f4 CB61     		str	r3, [r1, #28]
 443:Drivers/STM32F4xx_HAL_Driver/Src/stm32f4xx_hal_can.c **** 
 269              		.loc 1 443 3 view .LVU87
 443:Drivers/STM32F4xx_HAL_Driver/Src/stm32f4xx_hal_can.c **** 
 270              		.loc 1 443 19 is_stmt 0 view .LVU88
 271 00f6 0020     		movs	r0, #0
 272 00f8 6062     		str	r0, [r4, #36]
 446:Drivers/STM32F4xx_HAL_Driver/Src/stm32f4xx_hal_can.c **** 
 273              		.loc 1 446 3 is_stmt 1 view .LVU89
 446:Drivers/STM32F4xx_HAL_Driver/Src/stm32f4xx_hal_can.c **** 
 274              		.loc 1 446 15 is_stmt 0 view .LVU90
 275 00fa 0123     		movs	r3, #1
 276 00fc 84F82030 		strb	r3, [r4, #32]
 449:Drivers/STM32F4xx_HAL_Driver/Src/stm32f4xx_hal_can.c **** }
 277              		.loc 1 449 3 is_stmt 1 view .LVU91
 449:Drivers/STM32F4xx_HAL_Driver/Src/stm32f4xx_hal_can.c **** }
 278              		.loc 1 449 10 is_stmt 0 view .LVU92
 279 0100 A0E7     		b	.L3
 280              	.L29:
 378:Drivers/STM32F4xx_HAL_Driver/Src/stm32f4xx_hal_can.c ****   }
 281              		.loc 1 378 5 is_stmt 1 view .LVU93
 282 0102 1A68     		ldr	r2, [r3]
 283 0104 42F08002 		orr	r2, r2, #128
 284 0108 1A60     		str	r2, [r3]
 285 010a C0E7     		b	.L10
 286              	.L30:
 388:Drivers/STM32F4xx_HAL_Driver/Src/stm32f4xx_hal_can.c ****   }
 287              		.loc 1 388 5 view .LVU94
 288 010c 2268     		ldr	r2, [r4]
 289 010e 1368     		ldr	r3, [r2]
 290 0110 43F04003 		orr	r3, r3, #64
 291 0114 1360     		str	r3, [r2]
 292 0116 C2E7     		b	.L12
 293              	.L31:
 398:Drivers/STM32F4xx_HAL_Driver/Src/stm32f4xx_hal_can.c ****   }
 294              		.loc 1 398 5 view .LVU95
 295 0118 2268     		ldr	r2, [r4]
 296 011a 1368     		ldr	r3, [r2]
 297 011c 43F02003 		orr	r3, r3, #32
 298 0120 1360     		str	r3, [r2]
 299 0122 C4E7     		b	.L14
 300              	.L32:
 408:Drivers/STM32F4xx_HAL_Driver/Src/stm32f4xx_hal_can.c ****   }
 301              		.loc 1 408 5 view .LVU96
 302 0124 2268     		ldr	r2, [r4]
 303 0126 1368     		ldr	r3, [r2]
 304 0128 23F01003 		bic	r3, r3, #16
 305 012c 1360     		str	r3, [r2]
 306 012e C6E7     		b	.L16
 307              	.L33:
ARM GAS  /tmp/ccrOzmIp.s 			page 17


 418:Drivers/STM32F4xx_HAL_Driver/Src/stm32f4xx_hal_can.c ****   }
 308              		.loc 1 418 5 view .LVU97
 309 0130 2268     		ldr	r2, [r4]
 310 0132 1368     		ldr	r3, [r2]
 311 0134 43F00803 		orr	r3, r3, #8
 312 0138 1360     		str	r3, [r2]
 313 013a C8E7     		b	.L18
 314              	.L34:
 428:Drivers/STM32F4xx_HAL_Driver/Src/stm32f4xx_hal_can.c ****   }
 315              		.loc 1 428 5 view .LVU98
 316 013c 2268     		ldr	r2, [r4]
 317 013e 1368     		ldr	r3, [r2]
 318 0140 43F00403 		orr	r3, r3, #4
 319 0144 1360     		str	r3, [r2]
 320 0146 CAE7     		b	.L20
 321              	.LVL12:
 322              	.L21:
 323              	.LCFI1:
 324              		.cfi_def_cfa_offset 0
 325              		.cfi_restore 3
 326              		.cfi_restore 4
 327              		.cfi_restore 5
 328              		.cfi_restore 14
 281:Drivers/STM32F4xx_HAL_Driver/Src/stm32f4xx_hal_can.c ****   }
 329              		.loc 1 281 12 is_stmt 0 view .LVU99
 330 0148 0120     		movs	r0, #1
 331              	.LVL13:
 450:Drivers/STM32F4xx_HAL_Driver/Src/stm32f4xx_hal_can.c **** 
 332              		.loc 1 450 1 view .LVU100
 333 014a 7047     		bx	lr
 334              		.cfi_endproc
 335              	.LFE216:
 337              		.section	.text.HAL_CAN_MspDeInit,"ax",%progbits
 338              		.align	1
 339              		.weak	HAL_CAN_MspDeInit
 340              		.syntax unified
 341              		.thumb
 342              		.thumb_func
 344              	HAL_CAN_MspDeInit:
 345              	.LVL14:
 346              	.LFB219:
 515:Drivers/STM32F4xx_HAL_Driver/Src/stm32f4xx_hal_can.c **** 
 516:Drivers/STM32F4xx_HAL_Driver/Src/stm32f4xx_hal_can.c **** /**
 517:Drivers/STM32F4xx_HAL_Driver/Src/stm32f4xx_hal_can.c ****   * @brief  DeInitializes the CAN MSP.
 518:Drivers/STM32F4xx_HAL_Driver/Src/stm32f4xx_hal_can.c ****   * @param  hcan pointer to a CAN_HandleTypeDef structure that contains
 519:Drivers/STM32F4xx_HAL_Driver/Src/stm32f4xx_hal_can.c ****   *         the configuration information for the specified CAN.
 520:Drivers/STM32F4xx_HAL_Driver/Src/stm32f4xx_hal_can.c ****   * @retval None
 521:Drivers/STM32F4xx_HAL_Driver/Src/stm32f4xx_hal_can.c ****   */
 522:Drivers/STM32F4xx_HAL_Driver/Src/stm32f4xx_hal_can.c **** __weak void HAL_CAN_MspDeInit(CAN_HandleTypeDef *hcan)
 523:Drivers/STM32F4xx_HAL_Driver/Src/stm32f4xx_hal_can.c **** {
 347              		.loc 1 523 1 is_stmt 1 view -0
 348              		.cfi_startproc
 349              		@ args = 0, pretend = 0, frame = 0
 350              		@ frame_needed = 0, uses_anonymous_args = 0
 351              		@ link register save eliminated.
 524:Drivers/STM32F4xx_HAL_Driver/Src/stm32f4xx_hal_can.c ****   /* Prevent unused argument(s) compilation warning */
 525:Drivers/STM32F4xx_HAL_Driver/Src/stm32f4xx_hal_can.c ****   UNUSED(hcan);
ARM GAS  /tmp/ccrOzmIp.s 			page 18


 352              		.loc 1 525 3 view .LVU102
 526:Drivers/STM32F4xx_HAL_Driver/Src/stm32f4xx_hal_can.c **** 
 527:Drivers/STM32F4xx_HAL_Driver/Src/stm32f4xx_hal_can.c ****   /* NOTE : This function Should not be modified, when the callback is needed,
 528:Drivers/STM32F4xx_HAL_Driver/Src/stm32f4xx_hal_can.c ****             the HAL_CAN_MspDeInit could be implemented in the user file
 529:Drivers/STM32F4xx_HAL_Driver/Src/stm32f4xx_hal_can.c ****    */
 530:Drivers/STM32F4xx_HAL_Driver/Src/stm32f4xx_hal_can.c **** }
 353              		.loc 1 530 1 is_stmt 0 view .LVU103
 354 0000 7047     		bx	lr
 355              		.cfi_endproc
 356              	.LFE219:
 358              		.section	.text.HAL_CAN_ConfigFilter,"ax",%progbits
 359              		.align	1
 360              		.global	HAL_CAN_ConfigFilter
 361              		.syntax unified
 362              		.thumb
 363              		.thumb_func
 365              	HAL_CAN_ConfigFilter:
 366              	.LVL15:
 367              	.LFB220:
 531:Drivers/STM32F4xx_HAL_Driver/Src/stm32f4xx_hal_can.c **** 
 532:Drivers/STM32F4xx_HAL_Driver/Src/stm32f4xx_hal_can.c **** #if USE_HAL_CAN_REGISTER_CALLBACKS == 1
 533:Drivers/STM32F4xx_HAL_Driver/Src/stm32f4xx_hal_can.c **** /**
 534:Drivers/STM32F4xx_HAL_Driver/Src/stm32f4xx_hal_can.c ****   * @brief  Register a CAN CallBack.
 535:Drivers/STM32F4xx_HAL_Driver/Src/stm32f4xx_hal_can.c ****   *         To be used instead of the weak predefined callback
 536:Drivers/STM32F4xx_HAL_Driver/Src/stm32f4xx_hal_can.c ****   * @param  hcan pointer to a CAN_HandleTypeDef structure that contains
 537:Drivers/STM32F4xx_HAL_Driver/Src/stm32f4xx_hal_can.c ****   *         the configuration information for CAN module
 538:Drivers/STM32F4xx_HAL_Driver/Src/stm32f4xx_hal_can.c ****   * @param  CallbackID ID of the callback to be registered
 539:Drivers/STM32F4xx_HAL_Driver/Src/stm32f4xx_hal_can.c ****   *         This parameter can be one of the following values:
 540:Drivers/STM32F4xx_HAL_Driver/Src/stm32f4xx_hal_can.c ****   *           @arg @ref HAL_CAN_TX_MAILBOX0_COMPLETE_CB_ID Tx Mailbox 0 Complete callback ID
 541:Drivers/STM32F4xx_HAL_Driver/Src/stm32f4xx_hal_can.c ****   *           @arg @ref HAL_CAN_TX_MAILBOX1_COMPLETE_CB_ID Tx Mailbox 1 Complete callback ID
 542:Drivers/STM32F4xx_HAL_Driver/Src/stm32f4xx_hal_can.c ****   *           @arg @ref HAL_CAN_TX_MAILBOX2_COMPLETE_CB_ID Tx Mailbox 2 Complete callback ID
 543:Drivers/STM32F4xx_HAL_Driver/Src/stm32f4xx_hal_can.c ****   *           @arg @ref HAL_CAN_TX_MAILBOX0_ABORT_CB_ID Tx Mailbox 0 Abort callback ID
 544:Drivers/STM32F4xx_HAL_Driver/Src/stm32f4xx_hal_can.c ****   *           @arg @ref HAL_CAN_TX_MAILBOX1_ABORT_CB_ID Tx Mailbox 1 Abort callback ID
 545:Drivers/STM32F4xx_HAL_Driver/Src/stm32f4xx_hal_can.c ****   *           @arg @ref HAL_CAN_TX_MAILBOX2_ABORT_CB_ID Tx Mailbox 2 Abort callback ID
 546:Drivers/STM32F4xx_HAL_Driver/Src/stm32f4xx_hal_can.c ****   *           @arg @ref HAL_CAN_RX_FIFO0_MSG_PENDING_CB_ID Rx Fifo 0 message pending callback ID
 547:Drivers/STM32F4xx_HAL_Driver/Src/stm32f4xx_hal_can.c ****   *           @arg @ref HAL_CAN_RX_FIFO0_FULL_CB_ID Rx Fifo 0 full callback ID
 548:Drivers/STM32F4xx_HAL_Driver/Src/stm32f4xx_hal_can.c ****   *           @arg @ref HAL_CAN_RX_FIFO1_MSG_PENDING_CB_ID Rx Fifo 1 message pending callback ID
 549:Drivers/STM32F4xx_HAL_Driver/Src/stm32f4xx_hal_can.c ****   *           @arg @ref HAL_CAN_RX_FIFO1_FULL_CB_ID Rx Fifo 1 full callback ID
 550:Drivers/STM32F4xx_HAL_Driver/Src/stm32f4xx_hal_can.c ****   *           @arg @ref HAL_CAN_SLEEP_CB_ID Sleep callback ID
 551:Drivers/STM32F4xx_HAL_Driver/Src/stm32f4xx_hal_can.c ****   *           @arg @ref HAL_CAN_WAKEUP_FROM_RX_MSG_CB_ID Wake Up from Rx message callback ID
 552:Drivers/STM32F4xx_HAL_Driver/Src/stm32f4xx_hal_can.c ****   *           @arg @ref HAL_CAN_ERROR_CB_ID Error callback ID
 553:Drivers/STM32F4xx_HAL_Driver/Src/stm32f4xx_hal_can.c ****   *           @arg @ref HAL_CAN_MSPINIT_CB_ID MspInit callback ID
 554:Drivers/STM32F4xx_HAL_Driver/Src/stm32f4xx_hal_can.c ****   *           @arg @ref HAL_CAN_MSPDEINIT_CB_ID MspDeInit callback ID
 555:Drivers/STM32F4xx_HAL_Driver/Src/stm32f4xx_hal_can.c ****   * @param  pCallback pointer to the Callback function
 556:Drivers/STM32F4xx_HAL_Driver/Src/stm32f4xx_hal_can.c ****   * @retval HAL status
 557:Drivers/STM32F4xx_HAL_Driver/Src/stm32f4xx_hal_can.c ****   */
 558:Drivers/STM32F4xx_HAL_Driver/Src/stm32f4xx_hal_can.c **** HAL_StatusTypeDef HAL_CAN_RegisterCallback(CAN_HandleTypeDef *hcan, HAL_CAN_CallbackIDTypeDef Callb
 559:Drivers/STM32F4xx_HAL_Driver/Src/stm32f4xx_hal_can.c **** {
 560:Drivers/STM32F4xx_HAL_Driver/Src/stm32f4xx_hal_can.c ****   HAL_StatusTypeDef status = HAL_OK;
 561:Drivers/STM32F4xx_HAL_Driver/Src/stm32f4xx_hal_can.c **** 
 562:Drivers/STM32F4xx_HAL_Driver/Src/stm32f4xx_hal_can.c ****   if (pCallback == NULL)
 563:Drivers/STM32F4xx_HAL_Driver/Src/stm32f4xx_hal_can.c ****   {
 564:Drivers/STM32F4xx_HAL_Driver/Src/stm32f4xx_hal_can.c ****     /* Update the error code */
 565:Drivers/STM32F4xx_HAL_Driver/Src/stm32f4xx_hal_can.c ****     hcan->ErrorCode |= HAL_CAN_ERROR_INVALID_CALLBACK;
 566:Drivers/STM32F4xx_HAL_Driver/Src/stm32f4xx_hal_can.c **** 
 567:Drivers/STM32F4xx_HAL_Driver/Src/stm32f4xx_hal_can.c ****     return HAL_ERROR;
 568:Drivers/STM32F4xx_HAL_Driver/Src/stm32f4xx_hal_can.c ****   }
ARM GAS  /tmp/ccrOzmIp.s 			page 19


 569:Drivers/STM32F4xx_HAL_Driver/Src/stm32f4xx_hal_can.c **** 
 570:Drivers/STM32F4xx_HAL_Driver/Src/stm32f4xx_hal_can.c ****   if (hcan->State == HAL_CAN_STATE_READY)
 571:Drivers/STM32F4xx_HAL_Driver/Src/stm32f4xx_hal_can.c ****   {
 572:Drivers/STM32F4xx_HAL_Driver/Src/stm32f4xx_hal_can.c ****     switch (CallbackID)
 573:Drivers/STM32F4xx_HAL_Driver/Src/stm32f4xx_hal_can.c ****     {
 574:Drivers/STM32F4xx_HAL_Driver/Src/stm32f4xx_hal_can.c ****       case HAL_CAN_TX_MAILBOX0_COMPLETE_CB_ID :
 575:Drivers/STM32F4xx_HAL_Driver/Src/stm32f4xx_hal_can.c ****         hcan->TxMailbox0CompleteCallback = pCallback;
 576:Drivers/STM32F4xx_HAL_Driver/Src/stm32f4xx_hal_can.c ****         break;
 577:Drivers/STM32F4xx_HAL_Driver/Src/stm32f4xx_hal_can.c **** 
 578:Drivers/STM32F4xx_HAL_Driver/Src/stm32f4xx_hal_can.c ****       case HAL_CAN_TX_MAILBOX1_COMPLETE_CB_ID :
 579:Drivers/STM32F4xx_HAL_Driver/Src/stm32f4xx_hal_can.c ****         hcan->TxMailbox1CompleteCallback = pCallback;
 580:Drivers/STM32F4xx_HAL_Driver/Src/stm32f4xx_hal_can.c ****         break;
 581:Drivers/STM32F4xx_HAL_Driver/Src/stm32f4xx_hal_can.c **** 
 582:Drivers/STM32F4xx_HAL_Driver/Src/stm32f4xx_hal_can.c ****       case HAL_CAN_TX_MAILBOX2_COMPLETE_CB_ID :
 583:Drivers/STM32F4xx_HAL_Driver/Src/stm32f4xx_hal_can.c ****         hcan->TxMailbox2CompleteCallback = pCallback;
 584:Drivers/STM32F4xx_HAL_Driver/Src/stm32f4xx_hal_can.c ****         break;
 585:Drivers/STM32F4xx_HAL_Driver/Src/stm32f4xx_hal_can.c **** 
 586:Drivers/STM32F4xx_HAL_Driver/Src/stm32f4xx_hal_can.c ****       case HAL_CAN_TX_MAILBOX0_ABORT_CB_ID :
 587:Drivers/STM32F4xx_HAL_Driver/Src/stm32f4xx_hal_can.c ****         hcan->TxMailbox0AbortCallback = pCallback;
 588:Drivers/STM32F4xx_HAL_Driver/Src/stm32f4xx_hal_can.c ****         break;
 589:Drivers/STM32F4xx_HAL_Driver/Src/stm32f4xx_hal_can.c **** 
 590:Drivers/STM32F4xx_HAL_Driver/Src/stm32f4xx_hal_can.c ****       case HAL_CAN_TX_MAILBOX1_ABORT_CB_ID :
 591:Drivers/STM32F4xx_HAL_Driver/Src/stm32f4xx_hal_can.c ****         hcan->TxMailbox1AbortCallback = pCallback;
 592:Drivers/STM32F4xx_HAL_Driver/Src/stm32f4xx_hal_can.c ****         break;
 593:Drivers/STM32F4xx_HAL_Driver/Src/stm32f4xx_hal_can.c **** 
 594:Drivers/STM32F4xx_HAL_Driver/Src/stm32f4xx_hal_can.c ****       case HAL_CAN_TX_MAILBOX2_ABORT_CB_ID :
 595:Drivers/STM32F4xx_HAL_Driver/Src/stm32f4xx_hal_can.c ****         hcan->TxMailbox2AbortCallback = pCallback;
 596:Drivers/STM32F4xx_HAL_Driver/Src/stm32f4xx_hal_can.c ****         break;
 597:Drivers/STM32F4xx_HAL_Driver/Src/stm32f4xx_hal_can.c **** 
 598:Drivers/STM32F4xx_HAL_Driver/Src/stm32f4xx_hal_can.c ****       case HAL_CAN_RX_FIFO0_MSG_PENDING_CB_ID :
 599:Drivers/STM32F4xx_HAL_Driver/Src/stm32f4xx_hal_can.c ****         hcan->RxFifo0MsgPendingCallback = pCallback;
 600:Drivers/STM32F4xx_HAL_Driver/Src/stm32f4xx_hal_can.c ****         break;
 601:Drivers/STM32F4xx_HAL_Driver/Src/stm32f4xx_hal_can.c **** 
 602:Drivers/STM32F4xx_HAL_Driver/Src/stm32f4xx_hal_can.c ****       case HAL_CAN_RX_FIFO0_FULL_CB_ID :
 603:Drivers/STM32F4xx_HAL_Driver/Src/stm32f4xx_hal_can.c ****         hcan->RxFifo0FullCallback = pCallback;
 604:Drivers/STM32F4xx_HAL_Driver/Src/stm32f4xx_hal_can.c ****         break;
 605:Drivers/STM32F4xx_HAL_Driver/Src/stm32f4xx_hal_can.c **** 
 606:Drivers/STM32F4xx_HAL_Driver/Src/stm32f4xx_hal_can.c ****       case HAL_CAN_RX_FIFO1_MSG_PENDING_CB_ID :
 607:Drivers/STM32F4xx_HAL_Driver/Src/stm32f4xx_hal_can.c ****         hcan->RxFifo1MsgPendingCallback = pCallback;
 608:Drivers/STM32F4xx_HAL_Driver/Src/stm32f4xx_hal_can.c ****         break;
 609:Drivers/STM32F4xx_HAL_Driver/Src/stm32f4xx_hal_can.c **** 
 610:Drivers/STM32F4xx_HAL_Driver/Src/stm32f4xx_hal_can.c ****       case HAL_CAN_RX_FIFO1_FULL_CB_ID :
 611:Drivers/STM32F4xx_HAL_Driver/Src/stm32f4xx_hal_can.c ****         hcan->RxFifo1FullCallback = pCallback;
 612:Drivers/STM32F4xx_HAL_Driver/Src/stm32f4xx_hal_can.c ****         break;
 613:Drivers/STM32F4xx_HAL_Driver/Src/stm32f4xx_hal_can.c **** 
 614:Drivers/STM32F4xx_HAL_Driver/Src/stm32f4xx_hal_can.c ****       case HAL_CAN_SLEEP_CB_ID :
 615:Drivers/STM32F4xx_HAL_Driver/Src/stm32f4xx_hal_can.c ****         hcan->SleepCallback = pCallback;
 616:Drivers/STM32F4xx_HAL_Driver/Src/stm32f4xx_hal_can.c ****         break;
 617:Drivers/STM32F4xx_HAL_Driver/Src/stm32f4xx_hal_can.c **** 
 618:Drivers/STM32F4xx_HAL_Driver/Src/stm32f4xx_hal_can.c ****       case HAL_CAN_WAKEUP_FROM_RX_MSG_CB_ID :
 619:Drivers/STM32F4xx_HAL_Driver/Src/stm32f4xx_hal_can.c ****         hcan->WakeUpFromRxMsgCallback = pCallback;
 620:Drivers/STM32F4xx_HAL_Driver/Src/stm32f4xx_hal_can.c ****         break;
 621:Drivers/STM32F4xx_HAL_Driver/Src/stm32f4xx_hal_can.c **** 
 622:Drivers/STM32F4xx_HAL_Driver/Src/stm32f4xx_hal_can.c ****       case HAL_CAN_ERROR_CB_ID :
 623:Drivers/STM32F4xx_HAL_Driver/Src/stm32f4xx_hal_can.c ****         hcan->ErrorCallback = pCallback;
 624:Drivers/STM32F4xx_HAL_Driver/Src/stm32f4xx_hal_can.c ****         break;
 625:Drivers/STM32F4xx_HAL_Driver/Src/stm32f4xx_hal_can.c **** 
ARM GAS  /tmp/ccrOzmIp.s 			page 20


 626:Drivers/STM32F4xx_HAL_Driver/Src/stm32f4xx_hal_can.c ****       case HAL_CAN_MSPINIT_CB_ID :
 627:Drivers/STM32F4xx_HAL_Driver/Src/stm32f4xx_hal_can.c ****         hcan->MspInitCallback = pCallback;
 628:Drivers/STM32F4xx_HAL_Driver/Src/stm32f4xx_hal_can.c ****         break;
 629:Drivers/STM32F4xx_HAL_Driver/Src/stm32f4xx_hal_can.c **** 
 630:Drivers/STM32F4xx_HAL_Driver/Src/stm32f4xx_hal_can.c ****       case HAL_CAN_MSPDEINIT_CB_ID :
 631:Drivers/STM32F4xx_HAL_Driver/Src/stm32f4xx_hal_can.c ****         hcan->MspDeInitCallback = pCallback;
 632:Drivers/STM32F4xx_HAL_Driver/Src/stm32f4xx_hal_can.c ****         break;
 633:Drivers/STM32F4xx_HAL_Driver/Src/stm32f4xx_hal_can.c **** 
 634:Drivers/STM32F4xx_HAL_Driver/Src/stm32f4xx_hal_can.c ****       default :
 635:Drivers/STM32F4xx_HAL_Driver/Src/stm32f4xx_hal_can.c ****         /* Update the error code */
 636:Drivers/STM32F4xx_HAL_Driver/Src/stm32f4xx_hal_can.c ****         hcan->ErrorCode |= HAL_CAN_ERROR_INVALID_CALLBACK;
 637:Drivers/STM32F4xx_HAL_Driver/Src/stm32f4xx_hal_can.c **** 
 638:Drivers/STM32F4xx_HAL_Driver/Src/stm32f4xx_hal_can.c ****         /* Return error status */
 639:Drivers/STM32F4xx_HAL_Driver/Src/stm32f4xx_hal_can.c ****         status =  HAL_ERROR;
 640:Drivers/STM32F4xx_HAL_Driver/Src/stm32f4xx_hal_can.c ****         break;
 641:Drivers/STM32F4xx_HAL_Driver/Src/stm32f4xx_hal_can.c ****     }
 642:Drivers/STM32F4xx_HAL_Driver/Src/stm32f4xx_hal_can.c ****   }
 643:Drivers/STM32F4xx_HAL_Driver/Src/stm32f4xx_hal_can.c ****   else if (hcan->State == HAL_CAN_STATE_RESET)
 644:Drivers/STM32F4xx_HAL_Driver/Src/stm32f4xx_hal_can.c ****   {
 645:Drivers/STM32F4xx_HAL_Driver/Src/stm32f4xx_hal_can.c ****     switch (CallbackID)
 646:Drivers/STM32F4xx_HAL_Driver/Src/stm32f4xx_hal_can.c ****     {
 647:Drivers/STM32F4xx_HAL_Driver/Src/stm32f4xx_hal_can.c ****       case HAL_CAN_MSPINIT_CB_ID :
 648:Drivers/STM32F4xx_HAL_Driver/Src/stm32f4xx_hal_can.c ****         hcan->MspInitCallback = pCallback;
 649:Drivers/STM32F4xx_HAL_Driver/Src/stm32f4xx_hal_can.c ****         break;
 650:Drivers/STM32F4xx_HAL_Driver/Src/stm32f4xx_hal_can.c **** 
 651:Drivers/STM32F4xx_HAL_Driver/Src/stm32f4xx_hal_can.c ****       case HAL_CAN_MSPDEINIT_CB_ID :
 652:Drivers/STM32F4xx_HAL_Driver/Src/stm32f4xx_hal_can.c ****         hcan->MspDeInitCallback = pCallback;
 653:Drivers/STM32F4xx_HAL_Driver/Src/stm32f4xx_hal_can.c ****         break;
 654:Drivers/STM32F4xx_HAL_Driver/Src/stm32f4xx_hal_can.c **** 
 655:Drivers/STM32F4xx_HAL_Driver/Src/stm32f4xx_hal_can.c ****       default :
 656:Drivers/STM32F4xx_HAL_Driver/Src/stm32f4xx_hal_can.c ****         /* Update the error code */
 657:Drivers/STM32F4xx_HAL_Driver/Src/stm32f4xx_hal_can.c ****         hcan->ErrorCode |= HAL_CAN_ERROR_INVALID_CALLBACK;
 658:Drivers/STM32F4xx_HAL_Driver/Src/stm32f4xx_hal_can.c **** 
 659:Drivers/STM32F4xx_HAL_Driver/Src/stm32f4xx_hal_can.c ****         /* Return error status */
 660:Drivers/STM32F4xx_HAL_Driver/Src/stm32f4xx_hal_can.c ****         status =  HAL_ERROR;
 661:Drivers/STM32F4xx_HAL_Driver/Src/stm32f4xx_hal_can.c ****         break;
 662:Drivers/STM32F4xx_HAL_Driver/Src/stm32f4xx_hal_can.c ****     }
 663:Drivers/STM32F4xx_HAL_Driver/Src/stm32f4xx_hal_can.c ****   }
 664:Drivers/STM32F4xx_HAL_Driver/Src/stm32f4xx_hal_can.c ****   else
 665:Drivers/STM32F4xx_HAL_Driver/Src/stm32f4xx_hal_can.c ****   {
 666:Drivers/STM32F4xx_HAL_Driver/Src/stm32f4xx_hal_can.c ****     /* Update the error code */
 667:Drivers/STM32F4xx_HAL_Driver/Src/stm32f4xx_hal_can.c ****     hcan->ErrorCode |= HAL_CAN_ERROR_INVALID_CALLBACK;
 668:Drivers/STM32F4xx_HAL_Driver/Src/stm32f4xx_hal_can.c **** 
 669:Drivers/STM32F4xx_HAL_Driver/Src/stm32f4xx_hal_can.c ****     /* Return error status */
 670:Drivers/STM32F4xx_HAL_Driver/Src/stm32f4xx_hal_can.c ****     status =  HAL_ERROR;
 671:Drivers/STM32F4xx_HAL_Driver/Src/stm32f4xx_hal_can.c ****   }
 672:Drivers/STM32F4xx_HAL_Driver/Src/stm32f4xx_hal_can.c **** 
 673:Drivers/STM32F4xx_HAL_Driver/Src/stm32f4xx_hal_can.c ****   return status;
 674:Drivers/STM32F4xx_HAL_Driver/Src/stm32f4xx_hal_can.c **** }
 675:Drivers/STM32F4xx_HAL_Driver/Src/stm32f4xx_hal_can.c **** 
 676:Drivers/STM32F4xx_HAL_Driver/Src/stm32f4xx_hal_can.c **** /**
 677:Drivers/STM32F4xx_HAL_Driver/Src/stm32f4xx_hal_can.c ****   * @brief  Unregister a CAN CallBack.
 678:Drivers/STM32F4xx_HAL_Driver/Src/stm32f4xx_hal_can.c ****   *         CAN callback is redirected to the weak predefined callback
 679:Drivers/STM32F4xx_HAL_Driver/Src/stm32f4xx_hal_can.c ****   * @param  hcan pointer to a CAN_HandleTypeDef structure that contains
 680:Drivers/STM32F4xx_HAL_Driver/Src/stm32f4xx_hal_can.c ****   *         the configuration information for CAN module
 681:Drivers/STM32F4xx_HAL_Driver/Src/stm32f4xx_hal_can.c ****   * @param  CallbackID ID of the callback to be unregistered
 682:Drivers/STM32F4xx_HAL_Driver/Src/stm32f4xx_hal_can.c ****   *         This parameter can be one of the following values:
ARM GAS  /tmp/ccrOzmIp.s 			page 21


 683:Drivers/STM32F4xx_HAL_Driver/Src/stm32f4xx_hal_can.c ****   *           @arg @ref HAL_CAN_TX_MAILBOX0_COMPLETE_CB_ID Tx Mailbox 0 Complete callback ID
 684:Drivers/STM32F4xx_HAL_Driver/Src/stm32f4xx_hal_can.c ****   *           @arg @ref HAL_CAN_TX_MAILBOX1_COMPLETE_CB_ID Tx Mailbox 1 Complete callback ID
 685:Drivers/STM32F4xx_HAL_Driver/Src/stm32f4xx_hal_can.c ****   *           @arg @ref HAL_CAN_TX_MAILBOX2_COMPLETE_CB_ID Tx Mailbox 2 Complete callback ID
 686:Drivers/STM32F4xx_HAL_Driver/Src/stm32f4xx_hal_can.c ****   *           @arg @ref HAL_CAN_TX_MAILBOX0_ABORT_CB_ID Tx Mailbox 0 Abort callback ID
 687:Drivers/STM32F4xx_HAL_Driver/Src/stm32f4xx_hal_can.c ****   *           @arg @ref HAL_CAN_TX_MAILBOX1_ABORT_CB_ID Tx Mailbox 1 Abort callback ID
 688:Drivers/STM32F4xx_HAL_Driver/Src/stm32f4xx_hal_can.c ****   *           @arg @ref HAL_CAN_TX_MAILBOX2_ABORT_CB_ID Tx Mailbox 2 Abort callback ID
 689:Drivers/STM32F4xx_HAL_Driver/Src/stm32f4xx_hal_can.c ****   *           @arg @ref HAL_CAN_RX_FIFO0_MSG_PENDING_CB_ID Rx Fifo 0 message pending callback ID
 690:Drivers/STM32F4xx_HAL_Driver/Src/stm32f4xx_hal_can.c ****   *           @arg @ref HAL_CAN_RX_FIFO0_FULL_CB_ID Rx Fifo 0 full callback ID
 691:Drivers/STM32F4xx_HAL_Driver/Src/stm32f4xx_hal_can.c ****   *           @arg @ref HAL_CAN_RX_FIFO1_MSG_PENDING_CB_ID Rx Fifo 1 message pending callback ID
 692:Drivers/STM32F4xx_HAL_Driver/Src/stm32f4xx_hal_can.c ****   *           @arg @ref HAL_CAN_RX_FIFO1_FULL_CB_ID Rx Fifo 1 full callback ID
 693:Drivers/STM32F4xx_HAL_Driver/Src/stm32f4xx_hal_can.c ****   *           @arg @ref HAL_CAN_SLEEP_CB_ID Sleep callback ID
 694:Drivers/STM32F4xx_HAL_Driver/Src/stm32f4xx_hal_can.c ****   *           @arg @ref HAL_CAN_WAKEUP_FROM_RX_MSG_CB_ID Wake Up from Rx message callback ID
 695:Drivers/STM32F4xx_HAL_Driver/Src/stm32f4xx_hal_can.c ****   *           @arg @ref HAL_CAN_ERROR_CB_ID Error callback ID
 696:Drivers/STM32F4xx_HAL_Driver/Src/stm32f4xx_hal_can.c ****   *           @arg @ref HAL_CAN_MSPINIT_CB_ID MspInit callback ID
 697:Drivers/STM32F4xx_HAL_Driver/Src/stm32f4xx_hal_can.c ****   *           @arg @ref HAL_CAN_MSPDEINIT_CB_ID MspDeInit callback ID
 698:Drivers/STM32F4xx_HAL_Driver/Src/stm32f4xx_hal_can.c ****   * @retval HAL status
 699:Drivers/STM32F4xx_HAL_Driver/Src/stm32f4xx_hal_can.c ****   */
 700:Drivers/STM32F4xx_HAL_Driver/Src/stm32f4xx_hal_can.c **** HAL_StatusTypeDef HAL_CAN_UnRegisterCallback(CAN_HandleTypeDef *hcan, HAL_CAN_CallbackIDTypeDef Cal
 701:Drivers/STM32F4xx_HAL_Driver/Src/stm32f4xx_hal_can.c **** {
 702:Drivers/STM32F4xx_HAL_Driver/Src/stm32f4xx_hal_can.c ****   HAL_StatusTypeDef status = HAL_OK;
 703:Drivers/STM32F4xx_HAL_Driver/Src/stm32f4xx_hal_can.c **** 
 704:Drivers/STM32F4xx_HAL_Driver/Src/stm32f4xx_hal_can.c ****   if (hcan->State == HAL_CAN_STATE_READY)
 705:Drivers/STM32F4xx_HAL_Driver/Src/stm32f4xx_hal_can.c ****   {
 706:Drivers/STM32F4xx_HAL_Driver/Src/stm32f4xx_hal_can.c ****     switch (CallbackID)
 707:Drivers/STM32F4xx_HAL_Driver/Src/stm32f4xx_hal_can.c ****     {
 708:Drivers/STM32F4xx_HAL_Driver/Src/stm32f4xx_hal_can.c ****       case HAL_CAN_TX_MAILBOX0_COMPLETE_CB_ID :
 709:Drivers/STM32F4xx_HAL_Driver/Src/stm32f4xx_hal_can.c ****         hcan->TxMailbox0CompleteCallback = HAL_CAN_TxMailbox0CompleteCallback;
 710:Drivers/STM32F4xx_HAL_Driver/Src/stm32f4xx_hal_can.c ****         break;
 711:Drivers/STM32F4xx_HAL_Driver/Src/stm32f4xx_hal_can.c **** 
 712:Drivers/STM32F4xx_HAL_Driver/Src/stm32f4xx_hal_can.c ****       case HAL_CAN_TX_MAILBOX1_COMPLETE_CB_ID :
 713:Drivers/STM32F4xx_HAL_Driver/Src/stm32f4xx_hal_can.c ****         hcan->TxMailbox1CompleteCallback = HAL_CAN_TxMailbox1CompleteCallback;
 714:Drivers/STM32F4xx_HAL_Driver/Src/stm32f4xx_hal_can.c ****         break;
 715:Drivers/STM32F4xx_HAL_Driver/Src/stm32f4xx_hal_can.c **** 
 716:Drivers/STM32F4xx_HAL_Driver/Src/stm32f4xx_hal_can.c ****       case HAL_CAN_TX_MAILBOX2_COMPLETE_CB_ID :
 717:Drivers/STM32F4xx_HAL_Driver/Src/stm32f4xx_hal_can.c ****         hcan->TxMailbox2CompleteCallback = HAL_CAN_TxMailbox2CompleteCallback;
 718:Drivers/STM32F4xx_HAL_Driver/Src/stm32f4xx_hal_can.c ****         break;
 719:Drivers/STM32F4xx_HAL_Driver/Src/stm32f4xx_hal_can.c **** 
 720:Drivers/STM32F4xx_HAL_Driver/Src/stm32f4xx_hal_can.c ****       case HAL_CAN_TX_MAILBOX0_ABORT_CB_ID :
 721:Drivers/STM32F4xx_HAL_Driver/Src/stm32f4xx_hal_can.c ****         hcan->TxMailbox0AbortCallback = HAL_CAN_TxMailbox0AbortCallback;
 722:Drivers/STM32F4xx_HAL_Driver/Src/stm32f4xx_hal_can.c ****         break;
 723:Drivers/STM32F4xx_HAL_Driver/Src/stm32f4xx_hal_can.c **** 
 724:Drivers/STM32F4xx_HAL_Driver/Src/stm32f4xx_hal_can.c ****       case HAL_CAN_TX_MAILBOX1_ABORT_CB_ID :
 725:Drivers/STM32F4xx_HAL_Driver/Src/stm32f4xx_hal_can.c ****         hcan->TxMailbox1AbortCallback = HAL_CAN_TxMailbox1AbortCallback;
 726:Drivers/STM32F4xx_HAL_Driver/Src/stm32f4xx_hal_can.c ****         break;
 727:Drivers/STM32F4xx_HAL_Driver/Src/stm32f4xx_hal_can.c **** 
 728:Drivers/STM32F4xx_HAL_Driver/Src/stm32f4xx_hal_can.c ****       case HAL_CAN_TX_MAILBOX2_ABORT_CB_ID :
 729:Drivers/STM32F4xx_HAL_Driver/Src/stm32f4xx_hal_can.c ****         hcan->TxMailbox2AbortCallback = HAL_CAN_TxMailbox2AbortCallback;
 730:Drivers/STM32F4xx_HAL_Driver/Src/stm32f4xx_hal_can.c ****         break;
 731:Drivers/STM32F4xx_HAL_Driver/Src/stm32f4xx_hal_can.c **** 
 732:Drivers/STM32F4xx_HAL_Driver/Src/stm32f4xx_hal_can.c ****       case HAL_CAN_RX_FIFO0_MSG_PENDING_CB_ID :
 733:Drivers/STM32F4xx_HAL_Driver/Src/stm32f4xx_hal_can.c ****         hcan->RxFifo0MsgPendingCallback = HAL_CAN_RxFifo0MsgPendingCallback;
 734:Drivers/STM32F4xx_HAL_Driver/Src/stm32f4xx_hal_can.c ****         break;
 735:Drivers/STM32F4xx_HAL_Driver/Src/stm32f4xx_hal_can.c **** 
 736:Drivers/STM32F4xx_HAL_Driver/Src/stm32f4xx_hal_can.c ****       case HAL_CAN_RX_FIFO0_FULL_CB_ID :
 737:Drivers/STM32F4xx_HAL_Driver/Src/stm32f4xx_hal_can.c ****         hcan->RxFifo0FullCallback = HAL_CAN_RxFifo0FullCallback;
 738:Drivers/STM32F4xx_HAL_Driver/Src/stm32f4xx_hal_can.c ****         break;
 739:Drivers/STM32F4xx_HAL_Driver/Src/stm32f4xx_hal_can.c **** 
ARM GAS  /tmp/ccrOzmIp.s 			page 22


 740:Drivers/STM32F4xx_HAL_Driver/Src/stm32f4xx_hal_can.c ****       case HAL_CAN_RX_FIFO1_MSG_PENDING_CB_ID :
 741:Drivers/STM32F4xx_HAL_Driver/Src/stm32f4xx_hal_can.c ****         hcan->RxFifo1MsgPendingCallback = HAL_CAN_RxFifo1MsgPendingCallback;
 742:Drivers/STM32F4xx_HAL_Driver/Src/stm32f4xx_hal_can.c ****         break;
 743:Drivers/STM32F4xx_HAL_Driver/Src/stm32f4xx_hal_can.c **** 
 744:Drivers/STM32F4xx_HAL_Driver/Src/stm32f4xx_hal_can.c ****       case HAL_CAN_RX_FIFO1_FULL_CB_ID :
 745:Drivers/STM32F4xx_HAL_Driver/Src/stm32f4xx_hal_can.c ****         hcan->RxFifo1FullCallback = HAL_CAN_RxFifo1FullCallback;
 746:Drivers/STM32F4xx_HAL_Driver/Src/stm32f4xx_hal_can.c ****         break;
 747:Drivers/STM32F4xx_HAL_Driver/Src/stm32f4xx_hal_can.c **** 
 748:Drivers/STM32F4xx_HAL_Driver/Src/stm32f4xx_hal_can.c ****       case HAL_CAN_SLEEP_CB_ID :
 749:Drivers/STM32F4xx_HAL_Driver/Src/stm32f4xx_hal_can.c ****         hcan->SleepCallback = HAL_CAN_SleepCallback;
 750:Drivers/STM32F4xx_HAL_Driver/Src/stm32f4xx_hal_can.c ****         break;
 751:Drivers/STM32F4xx_HAL_Driver/Src/stm32f4xx_hal_can.c **** 
 752:Drivers/STM32F4xx_HAL_Driver/Src/stm32f4xx_hal_can.c ****       case HAL_CAN_WAKEUP_FROM_RX_MSG_CB_ID :
 753:Drivers/STM32F4xx_HAL_Driver/Src/stm32f4xx_hal_can.c ****         hcan->WakeUpFromRxMsgCallback = HAL_CAN_WakeUpFromRxMsgCallback;
 754:Drivers/STM32F4xx_HAL_Driver/Src/stm32f4xx_hal_can.c ****         break;
 755:Drivers/STM32F4xx_HAL_Driver/Src/stm32f4xx_hal_can.c **** 
 756:Drivers/STM32F4xx_HAL_Driver/Src/stm32f4xx_hal_can.c ****       case HAL_CAN_ERROR_CB_ID :
 757:Drivers/STM32F4xx_HAL_Driver/Src/stm32f4xx_hal_can.c ****         hcan->ErrorCallback = HAL_CAN_ErrorCallback;
 758:Drivers/STM32F4xx_HAL_Driver/Src/stm32f4xx_hal_can.c ****         break;
 759:Drivers/STM32F4xx_HAL_Driver/Src/stm32f4xx_hal_can.c **** 
 760:Drivers/STM32F4xx_HAL_Driver/Src/stm32f4xx_hal_can.c ****       case HAL_CAN_MSPINIT_CB_ID :
 761:Drivers/STM32F4xx_HAL_Driver/Src/stm32f4xx_hal_can.c ****         hcan->MspInitCallback = HAL_CAN_MspInit;
 762:Drivers/STM32F4xx_HAL_Driver/Src/stm32f4xx_hal_can.c ****         break;
 763:Drivers/STM32F4xx_HAL_Driver/Src/stm32f4xx_hal_can.c **** 
 764:Drivers/STM32F4xx_HAL_Driver/Src/stm32f4xx_hal_can.c ****       case HAL_CAN_MSPDEINIT_CB_ID :
 765:Drivers/STM32F4xx_HAL_Driver/Src/stm32f4xx_hal_can.c ****         hcan->MspDeInitCallback = HAL_CAN_MspDeInit;
 766:Drivers/STM32F4xx_HAL_Driver/Src/stm32f4xx_hal_can.c ****         break;
 767:Drivers/STM32F4xx_HAL_Driver/Src/stm32f4xx_hal_can.c **** 
 768:Drivers/STM32F4xx_HAL_Driver/Src/stm32f4xx_hal_can.c ****       default :
 769:Drivers/STM32F4xx_HAL_Driver/Src/stm32f4xx_hal_can.c ****         /* Update the error code */
 770:Drivers/STM32F4xx_HAL_Driver/Src/stm32f4xx_hal_can.c ****         hcan->ErrorCode |= HAL_CAN_ERROR_INVALID_CALLBACK;
 771:Drivers/STM32F4xx_HAL_Driver/Src/stm32f4xx_hal_can.c **** 
 772:Drivers/STM32F4xx_HAL_Driver/Src/stm32f4xx_hal_can.c ****         /* Return error status */
 773:Drivers/STM32F4xx_HAL_Driver/Src/stm32f4xx_hal_can.c ****         status =  HAL_ERROR;
 774:Drivers/STM32F4xx_HAL_Driver/Src/stm32f4xx_hal_can.c ****         break;
 775:Drivers/STM32F4xx_HAL_Driver/Src/stm32f4xx_hal_can.c ****     }
 776:Drivers/STM32F4xx_HAL_Driver/Src/stm32f4xx_hal_can.c ****   }
 777:Drivers/STM32F4xx_HAL_Driver/Src/stm32f4xx_hal_can.c ****   else if (hcan->State == HAL_CAN_STATE_RESET)
 778:Drivers/STM32F4xx_HAL_Driver/Src/stm32f4xx_hal_can.c ****   {
 779:Drivers/STM32F4xx_HAL_Driver/Src/stm32f4xx_hal_can.c ****     switch (CallbackID)
 780:Drivers/STM32F4xx_HAL_Driver/Src/stm32f4xx_hal_can.c ****     {
 781:Drivers/STM32F4xx_HAL_Driver/Src/stm32f4xx_hal_can.c ****       case HAL_CAN_MSPINIT_CB_ID :
 782:Drivers/STM32F4xx_HAL_Driver/Src/stm32f4xx_hal_can.c ****         hcan->MspInitCallback = HAL_CAN_MspInit;
 783:Drivers/STM32F4xx_HAL_Driver/Src/stm32f4xx_hal_can.c ****         break;
 784:Drivers/STM32F4xx_HAL_Driver/Src/stm32f4xx_hal_can.c **** 
 785:Drivers/STM32F4xx_HAL_Driver/Src/stm32f4xx_hal_can.c ****       case HAL_CAN_MSPDEINIT_CB_ID :
 786:Drivers/STM32F4xx_HAL_Driver/Src/stm32f4xx_hal_can.c ****         hcan->MspDeInitCallback = HAL_CAN_MspDeInit;
 787:Drivers/STM32F4xx_HAL_Driver/Src/stm32f4xx_hal_can.c ****         break;
 788:Drivers/STM32F4xx_HAL_Driver/Src/stm32f4xx_hal_can.c **** 
 789:Drivers/STM32F4xx_HAL_Driver/Src/stm32f4xx_hal_can.c ****       default :
 790:Drivers/STM32F4xx_HAL_Driver/Src/stm32f4xx_hal_can.c ****         /* Update the error code */
 791:Drivers/STM32F4xx_HAL_Driver/Src/stm32f4xx_hal_can.c ****         hcan->ErrorCode |= HAL_CAN_ERROR_INVALID_CALLBACK;
 792:Drivers/STM32F4xx_HAL_Driver/Src/stm32f4xx_hal_can.c **** 
 793:Drivers/STM32F4xx_HAL_Driver/Src/stm32f4xx_hal_can.c ****         /* Return error status */
 794:Drivers/STM32F4xx_HAL_Driver/Src/stm32f4xx_hal_can.c ****         status =  HAL_ERROR;
 795:Drivers/STM32F4xx_HAL_Driver/Src/stm32f4xx_hal_can.c ****         break;
 796:Drivers/STM32F4xx_HAL_Driver/Src/stm32f4xx_hal_can.c ****     }
ARM GAS  /tmp/ccrOzmIp.s 			page 23


 797:Drivers/STM32F4xx_HAL_Driver/Src/stm32f4xx_hal_can.c ****   }
 798:Drivers/STM32F4xx_HAL_Driver/Src/stm32f4xx_hal_can.c ****   else
 799:Drivers/STM32F4xx_HAL_Driver/Src/stm32f4xx_hal_can.c ****   {
 800:Drivers/STM32F4xx_HAL_Driver/Src/stm32f4xx_hal_can.c ****     /* Update the error code */
 801:Drivers/STM32F4xx_HAL_Driver/Src/stm32f4xx_hal_can.c ****     hcan->ErrorCode |= HAL_CAN_ERROR_INVALID_CALLBACK;
 802:Drivers/STM32F4xx_HAL_Driver/Src/stm32f4xx_hal_can.c **** 
 803:Drivers/STM32F4xx_HAL_Driver/Src/stm32f4xx_hal_can.c ****     /* Return error status */
 804:Drivers/STM32F4xx_HAL_Driver/Src/stm32f4xx_hal_can.c ****     status =  HAL_ERROR;
 805:Drivers/STM32F4xx_HAL_Driver/Src/stm32f4xx_hal_can.c ****   }
 806:Drivers/STM32F4xx_HAL_Driver/Src/stm32f4xx_hal_can.c **** 
 807:Drivers/STM32F4xx_HAL_Driver/Src/stm32f4xx_hal_can.c ****   return status;
 808:Drivers/STM32F4xx_HAL_Driver/Src/stm32f4xx_hal_can.c **** }
 809:Drivers/STM32F4xx_HAL_Driver/Src/stm32f4xx_hal_can.c **** #endif /* USE_HAL_CAN_REGISTER_CALLBACKS */
 810:Drivers/STM32F4xx_HAL_Driver/Src/stm32f4xx_hal_can.c **** 
 811:Drivers/STM32F4xx_HAL_Driver/Src/stm32f4xx_hal_can.c **** /**
 812:Drivers/STM32F4xx_HAL_Driver/Src/stm32f4xx_hal_can.c ****   * @}
 813:Drivers/STM32F4xx_HAL_Driver/Src/stm32f4xx_hal_can.c ****   */
 814:Drivers/STM32F4xx_HAL_Driver/Src/stm32f4xx_hal_can.c **** 
 815:Drivers/STM32F4xx_HAL_Driver/Src/stm32f4xx_hal_can.c **** /** @defgroup CAN_Exported_Functions_Group2 Configuration functions
 816:Drivers/STM32F4xx_HAL_Driver/Src/stm32f4xx_hal_can.c ****  *  @brief    Configuration functions.
 817:Drivers/STM32F4xx_HAL_Driver/Src/stm32f4xx_hal_can.c ****  *
 818:Drivers/STM32F4xx_HAL_Driver/Src/stm32f4xx_hal_can.c **** @verbatim
 819:Drivers/STM32F4xx_HAL_Driver/Src/stm32f4xx_hal_can.c ****   ==============================================================================
 820:Drivers/STM32F4xx_HAL_Driver/Src/stm32f4xx_hal_can.c ****               ##### Configuration functions #####
 821:Drivers/STM32F4xx_HAL_Driver/Src/stm32f4xx_hal_can.c ****   ==============================================================================
 822:Drivers/STM32F4xx_HAL_Driver/Src/stm32f4xx_hal_can.c ****     [..]  This section provides functions allowing to:
 823:Drivers/STM32F4xx_HAL_Driver/Src/stm32f4xx_hal_can.c ****       (+) HAL_CAN_ConfigFilter            : Configure the CAN reception filters
 824:Drivers/STM32F4xx_HAL_Driver/Src/stm32f4xx_hal_can.c **** 
 825:Drivers/STM32F4xx_HAL_Driver/Src/stm32f4xx_hal_can.c **** @endverbatim
 826:Drivers/STM32F4xx_HAL_Driver/Src/stm32f4xx_hal_can.c ****   * @{
 827:Drivers/STM32F4xx_HAL_Driver/Src/stm32f4xx_hal_can.c ****   */
 828:Drivers/STM32F4xx_HAL_Driver/Src/stm32f4xx_hal_can.c **** 
 829:Drivers/STM32F4xx_HAL_Driver/Src/stm32f4xx_hal_can.c **** /**
 830:Drivers/STM32F4xx_HAL_Driver/Src/stm32f4xx_hal_can.c ****   * @brief  Configures the CAN reception filter according to the specified
 831:Drivers/STM32F4xx_HAL_Driver/Src/stm32f4xx_hal_can.c ****   *         parameters in the CAN_FilterInitStruct.
 832:Drivers/STM32F4xx_HAL_Driver/Src/stm32f4xx_hal_can.c ****   * @param  hcan pointer to a CAN_HandleTypeDef structure that contains
 833:Drivers/STM32F4xx_HAL_Driver/Src/stm32f4xx_hal_can.c ****   *         the configuration information for the specified CAN.
 834:Drivers/STM32F4xx_HAL_Driver/Src/stm32f4xx_hal_can.c ****   * @param  sFilterConfig pointer to a CAN_FilterTypeDef structure that
 835:Drivers/STM32F4xx_HAL_Driver/Src/stm32f4xx_hal_can.c ****   *         contains the filter configuration information.
 836:Drivers/STM32F4xx_HAL_Driver/Src/stm32f4xx_hal_can.c ****   * @retval None
 837:Drivers/STM32F4xx_HAL_Driver/Src/stm32f4xx_hal_can.c ****   */
 838:Drivers/STM32F4xx_HAL_Driver/Src/stm32f4xx_hal_can.c **** HAL_StatusTypeDef HAL_CAN_ConfigFilter(CAN_HandleTypeDef *hcan, CAN_FilterTypeDef *sFilterConfig)
 839:Drivers/STM32F4xx_HAL_Driver/Src/stm32f4xx_hal_can.c **** {
 368              		.loc 1 839 1 is_stmt 1 view -0
 369              		.cfi_startproc
 370              		@ args = 0, pretend = 0, frame = 0
 371              		@ frame_needed = 0, uses_anonymous_args = 0
 372              		@ link register save eliminated.
 840:Drivers/STM32F4xx_HAL_Driver/Src/stm32f4xx_hal_can.c ****   uint32_t filternbrbitpos;
 373              		.loc 1 840 3 view .LVU105
 841:Drivers/STM32F4xx_HAL_Driver/Src/stm32f4xx_hal_can.c ****   CAN_TypeDef *can_ip = hcan->Instance;
 374              		.loc 1 841 3 view .LVU106
 375              		.loc 1 841 16 is_stmt 0 view .LVU107
 376 0000 0368     		ldr	r3, [r0]
 377              	.LVL16:
 842:Drivers/STM32F4xx_HAL_Driver/Src/stm32f4xx_hal_can.c ****   HAL_CAN_StateTypeDef state = hcan->State;
 378              		.loc 1 842 3 is_stmt 1 view .LVU108
ARM GAS  /tmp/ccrOzmIp.s 			page 24


 379              		.loc 1 842 24 is_stmt 0 view .LVU109
 380 0002 90F82020 		ldrb	r2, [r0, #32]	@ zero_extendqisi2
 381              	.LVL17:
 843:Drivers/STM32F4xx_HAL_Driver/Src/stm32f4xx_hal_can.c **** 
 844:Drivers/STM32F4xx_HAL_Driver/Src/stm32f4xx_hal_can.c ****   if ((state == HAL_CAN_STATE_READY) ||
 382              		.loc 1 844 3 is_stmt 1 view .LVU110
 383              		.loc 1 844 38 is_stmt 0 view .LVU111
 384 0006 013A     		subs	r2, r2, #1
 385              	.LVL18:
 386              		.loc 1 844 38 view .LVU112
 387 0008 D2B2     		uxtb	r2, r2
 388              		.loc 1 844 6 view .LVU113
 389 000a 012A     		cmp	r2, #1
 390 000c 05D9     		bls	.L53
 845:Drivers/STM32F4xx_HAL_Driver/Src/stm32f4xx_hal_can.c ****       (state == HAL_CAN_STATE_LISTENING))
 846:Drivers/STM32F4xx_HAL_Driver/Src/stm32f4xx_hal_can.c ****   {
 847:Drivers/STM32F4xx_HAL_Driver/Src/stm32f4xx_hal_can.c ****     /* Check the parameters */
 848:Drivers/STM32F4xx_HAL_Driver/Src/stm32f4xx_hal_can.c ****     assert_param(IS_CAN_FILTER_ID_HALFWORD(sFilterConfig->FilterIdHigh));
 849:Drivers/STM32F4xx_HAL_Driver/Src/stm32f4xx_hal_can.c ****     assert_param(IS_CAN_FILTER_ID_HALFWORD(sFilterConfig->FilterIdLow));
 850:Drivers/STM32F4xx_HAL_Driver/Src/stm32f4xx_hal_can.c ****     assert_param(IS_CAN_FILTER_ID_HALFWORD(sFilterConfig->FilterMaskIdHigh));
 851:Drivers/STM32F4xx_HAL_Driver/Src/stm32f4xx_hal_can.c ****     assert_param(IS_CAN_FILTER_ID_HALFWORD(sFilterConfig->FilterMaskIdLow));
 852:Drivers/STM32F4xx_HAL_Driver/Src/stm32f4xx_hal_can.c ****     assert_param(IS_CAN_FILTER_MODE(sFilterConfig->FilterMode));
 853:Drivers/STM32F4xx_HAL_Driver/Src/stm32f4xx_hal_can.c ****     assert_param(IS_CAN_FILTER_SCALE(sFilterConfig->FilterScale));
 854:Drivers/STM32F4xx_HAL_Driver/Src/stm32f4xx_hal_can.c ****     assert_param(IS_CAN_FILTER_FIFO(sFilterConfig->FilterFIFOAssignment));
 855:Drivers/STM32F4xx_HAL_Driver/Src/stm32f4xx_hal_can.c ****     assert_param(IS_CAN_FILTER_ACTIVATION(sFilterConfig->FilterActivation));
 856:Drivers/STM32F4xx_HAL_Driver/Src/stm32f4xx_hal_can.c **** 
 857:Drivers/STM32F4xx_HAL_Driver/Src/stm32f4xx_hal_can.c **** #if defined(CAN3)
 858:Drivers/STM32F4xx_HAL_Driver/Src/stm32f4xx_hal_can.c ****     /* Check the CAN instance */
 859:Drivers/STM32F4xx_HAL_Driver/Src/stm32f4xx_hal_can.c ****     if (hcan->Instance == CAN3)
 860:Drivers/STM32F4xx_HAL_Driver/Src/stm32f4xx_hal_can.c ****     {
 861:Drivers/STM32F4xx_HAL_Driver/Src/stm32f4xx_hal_can.c ****       /* CAN3 is single instance with 14 dedicated filters banks */
 862:Drivers/STM32F4xx_HAL_Driver/Src/stm32f4xx_hal_can.c **** 
 863:Drivers/STM32F4xx_HAL_Driver/Src/stm32f4xx_hal_can.c ****       /* Check the parameters */
 864:Drivers/STM32F4xx_HAL_Driver/Src/stm32f4xx_hal_can.c ****       assert_param(IS_CAN_FILTER_BANK_SINGLE(sFilterConfig->FilterBank));
 865:Drivers/STM32F4xx_HAL_Driver/Src/stm32f4xx_hal_can.c ****     }
 866:Drivers/STM32F4xx_HAL_Driver/Src/stm32f4xx_hal_can.c ****     else
 867:Drivers/STM32F4xx_HAL_Driver/Src/stm32f4xx_hal_can.c ****     {
 868:Drivers/STM32F4xx_HAL_Driver/Src/stm32f4xx_hal_can.c ****       /* CAN1 and CAN2 are dual instances with 28 common filters banks */
 869:Drivers/STM32F4xx_HAL_Driver/Src/stm32f4xx_hal_can.c ****       /* Select master instance to access the filter banks */
 870:Drivers/STM32F4xx_HAL_Driver/Src/stm32f4xx_hal_can.c ****       can_ip = CAN1;
 871:Drivers/STM32F4xx_HAL_Driver/Src/stm32f4xx_hal_can.c **** 
 872:Drivers/STM32F4xx_HAL_Driver/Src/stm32f4xx_hal_can.c ****       /* Check the parameters */
 873:Drivers/STM32F4xx_HAL_Driver/Src/stm32f4xx_hal_can.c ****       assert_param(IS_CAN_FILTER_BANK_DUAL(sFilterConfig->FilterBank));
 874:Drivers/STM32F4xx_HAL_Driver/Src/stm32f4xx_hal_can.c ****       assert_param(IS_CAN_FILTER_BANK_DUAL(sFilterConfig->SlaveStartFilterBank));
 875:Drivers/STM32F4xx_HAL_Driver/Src/stm32f4xx_hal_can.c ****     }
 876:Drivers/STM32F4xx_HAL_Driver/Src/stm32f4xx_hal_can.c **** #elif defined(CAN2)
 877:Drivers/STM32F4xx_HAL_Driver/Src/stm32f4xx_hal_can.c ****     /* CAN1 and CAN2 are dual instances with 28 common filters banks */
 878:Drivers/STM32F4xx_HAL_Driver/Src/stm32f4xx_hal_can.c ****     /* Select master instance to access the filter banks */
 879:Drivers/STM32F4xx_HAL_Driver/Src/stm32f4xx_hal_can.c ****     can_ip = CAN1;
 880:Drivers/STM32F4xx_HAL_Driver/Src/stm32f4xx_hal_can.c **** 
 881:Drivers/STM32F4xx_HAL_Driver/Src/stm32f4xx_hal_can.c ****     /* Check the parameters */
 882:Drivers/STM32F4xx_HAL_Driver/Src/stm32f4xx_hal_can.c ****     assert_param(IS_CAN_FILTER_BANK_DUAL(sFilterConfig->FilterBank));
 883:Drivers/STM32F4xx_HAL_Driver/Src/stm32f4xx_hal_can.c ****     assert_param(IS_CAN_FILTER_BANK_DUAL(sFilterConfig->SlaveStartFilterBank));
 884:Drivers/STM32F4xx_HAL_Driver/Src/stm32f4xx_hal_can.c **** #else
 885:Drivers/STM32F4xx_HAL_Driver/Src/stm32f4xx_hal_can.c ****     /* CAN1 is single instance with 14 dedicated filters banks */
 886:Drivers/STM32F4xx_HAL_Driver/Src/stm32f4xx_hal_can.c **** 
 887:Drivers/STM32F4xx_HAL_Driver/Src/stm32f4xx_hal_can.c ****     /* Check the parameters */
ARM GAS  /tmp/ccrOzmIp.s 			page 25


 888:Drivers/STM32F4xx_HAL_Driver/Src/stm32f4xx_hal_can.c ****     assert_param(IS_CAN_FILTER_BANK_SINGLE(sFilterConfig->FilterBank));
 889:Drivers/STM32F4xx_HAL_Driver/Src/stm32f4xx_hal_can.c **** #endif
 890:Drivers/STM32F4xx_HAL_Driver/Src/stm32f4xx_hal_can.c **** 
 891:Drivers/STM32F4xx_HAL_Driver/Src/stm32f4xx_hal_can.c ****     /* Initialisation mode for the filter */
 892:Drivers/STM32F4xx_HAL_Driver/Src/stm32f4xx_hal_can.c ****     SET_BIT(can_ip->FMR, CAN_FMR_FINIT);
 893:Drivers/STM32F4xx_HAL_Driver/Src/stm32f4xx_hal_can.c **** 
 894:Drivers/STM32F4xx_HAL_Driver/Src/stm32f4xx_hal_can.c **** #if defined(CAN3)
 895:Drivers/STM32F4xx_HAL_Driver/Src/stm32f4xx_hal_can.c ****     /* Check the CAN instance */
 896:Drivers/STM32F4xx_HAL_Driver/Src/stm32f4xx_hal_can.c ****     if (can_ip == CAN1)
 897:Drivers/STM32F4xx_HAL_Driver/Src/stm32f4xx_hal_can.c ****     {
 898:Drivers/STM32F4xx_HAL_Driver/Src/stm32f4xx_hal_can.c ****       /* Select the start filter number of CAN2 slave instance */
 899:Drivers/STM32F4xx_HAL_Driver/Src/stm32f4xx_hal_can.c ****       CLEAR_BIT(can_ip->FMR, CAN_FMR_CAN2SB);
 900:Drivers/STM32F4xx_HAL_Driver/Src/stm32f4xx_hal_can.c ****       SET_BIT(can_ip->FMR, sFilterConfig->SlaveStartFilterBank << CAN_FMR_CAN2SB_Pos);
 901:Drivers/STM32F4xx_HAL_Driver/Src/stm32f4xx_hal_can.c ****     }
 902:Drivers/STM32F4xx_HAL_Driver/Src/stm32f4xx_hal_can.c **** 
 903:Drivers/STM32F4xx_HAL_Driver/Src/stm32f4xx_hal_can.c **** #elif defined(CAN2)
 904:Drivers/STM32F4xx_HAL_Driver/Src/stm32f4xx_hal_can.c ****     /* Select the start filter number of CAN2 slave instance */
 905:Drivers/STM32F4xx_HAL_Driver/Src/stm32f4xx_hal_can.c ****     CLEAR_BIT(can_ip->FMR, CAN_FMR_CAN2SB);
 906:Drivers/STM32F4xx_HAL_Driver/Src/stm32f4xx_hal_can.c ****     SET_BIT(can_ip->FMR, sFilterConfig->SlaveStartFilterBank << CAN_FMR_CAN2SB_Pos);
 907:Drivers/STM32F4xx_HAL_Driver/Src/stm32f4xx_hal_can.c **** 
 908:Drivers/STM32F4xx_HAL_Driver/Src/stm32f4xx_hal_can.c **** #endif
 909:Drivers/STM32F4xx_HAL_Driver/Src/stm32f4xx_hal_can.c ****     /* Convert filter number into bit position */
 910:Drivers/STM32F4xx_HAL_Driver/Src/stm32f4xx_hal_can.c ****     filternbrbitpos = (uint32_t)1 << (sFilterConfig->FilterBank & 0x1FU);
 911:Drivers/STM32F4xx_HAL_Driver/Src/stm32f4xx_hal_can.c **** 
 912:Drivers/STM32F4xx_HAL_Driver/Src/stm32f4xx_hal_can.c ****     /* Filter Deactivation */
 913:Drivers/STM32F4xx_HAL_Driver/Src/stm32f4xx_hal_can.c ****     CLEAR_BIT(can_ip->FA1R, filternbrbitpos);
 914:Drivers/STM32F4xx_HAL_Driver/Src/stm32f4xx_hal_can.c **** 
 915:Drivers/STM32F4xx_HAL_Driver/Src/stm32f4xx_hal_can.c ****     /* Filter Scale */
 916:Drivers/STM32F4xx_HAL_Driver/Src/stm32f4xx_hal_can.c ****     if (sFilterConfig->FilterScale == CAN_FILTERSCALE_16BIT)
 917:Drivers/STM32F4xx_HAL_Driver/Src/stm32f4xx_hal_can.c ****     {
 918:Drivers/STM32F4xx_HAL_Driver/Src/stm32f4xx_hal_can.c ****       /* 16-bit scale for the filter */
 919:Drivers/STM32F4xx_HAL_Driver/Src/stm32f4xx_hal_can.c ****       CLEAR_BIT(can_ip->FS1R, filternbrbitpos);
 920:Drivers/STM32F4xx_HAL_Driver/Src/stm32f4xx_hal_can.c **** 
 921:Drivers/STM32F4xx_HAL_Driver/Src/stm32f4xx_hal_can.c ****       /* First 16-bit identifier and First 16-bit mask */
 922:Drivers/STM32F4xx_HAL_Driver/Src/stm32f4xx_hal_can.c ****       /* Or First 16-bit identifier and Second 16-bit identifier */
 923:Drivers/STM32F4xx_HAL_Driver/Src/stm32f4xx_hal_can.c ****       can_ip->sFilterRegister[sFilterConfig->FilterBank].FR1 =
 924:Drivers/STM32F4xx_HAL_Driver/Src/stm32f4xx_hal_can.c ****         ((0x0000FFFFU & (uint32_t)sFilterConfig->FilterMaskIdLow) << 16U) |
 925:Drivers/STM32F4xx_HAL_Driver/Src/stm32f4xx_hal_can.c ****         (0x0000FFFFU & (uint32_t)sFilterConfig->FilterIdLow);
 926:Drivers/STM32F4xx_HAL_Driver/Src/stm32f4xx_hal_can.c **** 
 927:Drivers/STM32F4xx_HAL_Driver/Src/stm32f4xx_hal_can.c ****       /* Second 16-bit identifier and Second 16-bit mask */
 928:Drivers/STM32F4xx_HAL_Driver/Src/stm32f4xx_hal_can.c ****       /* Or Third 16-bit identifier and Fourth 16-bit identifier */
 929:Drivers/STM32F4xx_HAL_Driver/Src/stm32f4xx_hal_can.c ****       can_ip->sFilterRegister[sFilterConfig->FilterBank].FR2 =
 930:Drivers/STM32F4xx_HAL_Driver/Src/stm32f4xx_hal_can.c ****         ((0x0000FFFFU & (uint32_t)sFilterConfig->FilterMaskIdHigh) << 16U) |
 931:Drivers/STM32F4xx_HAL_Driver/Src/stm32f4xx_hal_can.c ****         (0x0000FFFFU & (uint32_t)sFilterConfig->FilterIdHigh);
 932:Drivers/STM32F4xx_HAL_Driver/Src/stm32f4xx_hal_can.c ****     }
 933:Drivers/STM32F4xx_HAL_Driver/Src/stm32f4xx_hal_can.c **** 
 934:Drivers/STM32F4xx_HAL_Driver/Src/stm32f4xx_hal_can.c ****     if (sFilterConfig->FilterScale == CAN_FILTERSCALE_32BIT)
 935:Drivers/STM32F4xx_HAL_Driver/Src/stm32f4xx_hal_can.c ****     {
 936:Drivers/STM32F4xx_HAL_Driver/Src/stm32f4xx_hal_can.c ****       /* 32-bit scale for the filter */
 937:Drivers/STM32F4xx_HAL_Driver/Src/stm32f4xx_hal_can.c ****       SET_BIT(can_ip->FS1R, filternbrbitpos);
 938:Drivers/STM32F4xx_HAL_Driver/Src/stm32f4xx_hal_can.c **** 
 939:Drivers/STM32F4xx_HAL_Driver/Src/stm32f4xx_hal_can.c ****       /* 32-bit identifier or First 32-bit identifier */
 940:Drivers/STM32F4xx_HAL_Driver/Src/stm32f4xx_hal_can.c ****       can_ip->sFilterRegister[sFilterConfig->FilterBank].FR1 =
 941:Drivers/STM32F4xx_HAL_Driver/Src/stm32f4xx_hal_can.c ****         ((0x0000FFFFU & (uint32_t)sFilterConfig->FilterIdHigh) << 16U) |
 942:Drivers/STM32F4xx_HAL_Driver/Src/stm32f4xx_hal_can.c ****         (0x0000FFFFU & (uint32_t)sFilterConfig->FilterIdLow);
 943:Drivers/STM32F4xx_HAL_Driver/Src/stm32f4xx_hal_can.c **** 
 944:Drivers/STM32F4xx_HAL_Driver/Src/stm32f4xx_hal_can.c ****       /* 32-bit mask or Second 32-bit identifier */
ARM GAS  /tmp/ccrOzmIp.s 			page 26


 945:Drivers/STM32F4xx_HAL_Driver/Src/stm32f4xx_hal_can.c ****       can_ip->sFilterRegister[sFilterConfig->FilterBank].FR2 =
 946:Drivers/STM32F4xx_HAL_Driver/Src/stm32f4xx_hal_can.c ****         ((0x0000FFFFU & (uint32_t)sFilterConfig->FilterMaskIdHigh) << 16U) |
 947:Drivers/STM32F4xx_HAL_Driver/Src/stm32f4xx_hal_can.c ****         (0x0000FFFFU & (uint32_t)sFilterConfig->FilterMaskIdLow);
 948:Drivers/STM32F4xx_HAL_Driver/Src/stm32f4xx_hal_can.c ****     }
 949:Drivers/STM32F4xx_HAL_Driver/Src/stm32f4xx_hal_can.c **** 
 950:Drivers/STM32F4xx_HAL_Driver/Src/stm32f4xx_hal_can.c ****     /* Filter Mode */
 951:Drivers/STM32F4xx_HAL_Driver/Src/stm32f4xx_hal_can.c ****     if (sFilterConfig->FilterMode == CAN_FILTERMODE_IDMASK)
 952:Drivers/STM32F4xx_HAL_Driver/Src/stm32f4xx_hal_can.c ****     {
 953:Drivers/STM32F4xx_HAL_Driver/Src/stm32f4xx_hal_can.c ****       /* Id/Mask mode for the filter*/
 954:Drivers/STM32F4xx_HAL_Driver/Src/stm32f4xx_hal_can.c ****       CLEAR_BIT(can_ip->FM1R, filternbrbitpos);
 955:Drivers/STM32F4xx_HAL_Driver/Src/stm32f4xx_hal_can.c ****     }
 956:Drivers/STM32F4xx_HAL_Driver/Src/stm32f4xx_hal_can.c ****     else /* CAN_FilterInitStruct->CAN_FilterMode == CAN_FilterMode_IdList */
 957:Drivers/STM32F4xx_HAL_Driver/Src/stm32f4xx_hal_can.c ****     {
 958:Drivers/STM32F4xx_HAL_Driver/Src/stm32f4xx_hal_can.c ****       /* Identifier list mode for the filter*/
 959:Drivers/STM32F4xx_HAL_Driver/Src/stm32f4xx_hal_can.c ****       SET_BIT(can_ip->FM1R, filternbrbitpos);
 960:Drivers/STM32F4xx_HAL_Driver/Src/stm32f4xx_hal_can.c ****     }
 961:Drivers/STM32F4xx_HAL_Driver/Src/stm32f4xx_hal_can.c **** 
 962:Drivers/STM32F4xx_HAL_Driver/Src/stm32f4xx_hal_can.c ****     /* Filter FIFO assignment */
 963:Drivers/STM32F4xx_HAL_Driver/Src/stm32f4xx_hal_can.c ****     if (sFilterConfig->FilterFIFOAssignment == CAN_FILTER_FIFO0)
 964:Drivers/STM32F4xx_HAL_Driver/Src/stm32f4xx_hal_can.c ****     {
 965:Drivers/STM32F4xx_HAL_Driver/Src/stm32f4xx_hal_can.c ****       /* FIFO 0 assignation for the filter */
 966:Drivers/STM32F4xx_HAL_Driver/Src/stm32f4xx_hal_can.c ****       CLEAR_BIT(can_ip->FFA1R, filternbrbitpos);
 967:Drivers/STM32F4xx_HAL_Driver/Src/stm32f4xx_hal_can.c ****     }
 968:Drivers/STM32F4xx_HAL_Driver/Src/stm32f4xx_hal_can.c ****     else
 969:Drivers/STM32F4xx_HAL_Driver/Src/stm32f4xx_hal_can.c ****     {
 970:Drivers/STM32F4xx_HAL_Driver/Src/stm32f4xx_hal_can.c ****       /* FIFO 1 assignation for the filter */
 971:Drivers/STM32F4xx_HAL_Driver/Src/stm32f4xx_hal_can.c ****       SET_BIT(can_ip->FFA1R, filternbrbitpos);
 972:Drivers/STM32F4xx_HAL_Driver/Src/stm32f4xx_hal_can.c ****     }
 973:Drivers/STM32F4xx_HAL_Driver/Src/stm32f4xx_hal_can.c **** 
 974:Drivers/STM32F4xx_HAL_Driver/Src/stm32f4xx_hal_can.c ****     /* Filter activation */
 975:Drivers/STM32F4xx_HAL_Driver/Src/stm32f4xx_hal_can.c ****     if (sFilterConfig->FilterActivation == CAN_FILTER_ENABLE)
 976:Drivers/STM32F4xx_HAL_Driver/Src/stm32f4xx_hal_can.c ****     {
 977:Drivers/STM32F4xx_HAL_Driver/Src/stm32f4xx_hal_can.c ****       SET_BIT(can_ip->FA1R, filternbrbitpos);
 978:Drivers/STM32F4xx_HAL_Driver/Src/stm32f4xx_hal_can.c ****     }
 979:Drivers/STM32F4xx_HAL_Driver/Src/stm32f4xx_hal_can.c **** 
 980:Drivers/STM32F4xx_HAL_Driver/Src/stm32f4xx_hal_can.c ****     /* Leave the initialisation mode for the filter */
 981:Drivers/STM32F4xx_HAL_Driver/Src/stm32f4xx_hal_can.c ****     CLEAR_BIT(can_ip->FMR, CAN_FMR_FINIT);
 982:Drivers/STM32F4xx_HAL_Driver/Src/stm32f4xx_hal_can.c **** 
 983:Drivers/STM32F4xx_HAL_Driver/Src/stm32f4xx_hal_can.c ****     /* Return function status */
 984:Drivers/STM32F4xx_HAL_Driver/Src/stm32f4xx_hal_can.c ****     return HAL_OK;
 985:Drivers/STM32F4xx_HAL_Driver/Src/stm32f4xx_hal_can.c ****   }
 986:Drivers/STM32F4xx_HAL_Driver/Src/stm32f4xx_hal_can.c ****   else
 987:Drivers/STM32F4xx_HAL_Driver/Src/stm32f4xx_hal_can.c ****   {
 988:Drivers/STM32F4xx_HAL_Driver/Src/stm32f4xx_hal_can.c ****     /* Update error code */
 989:Drivers/STM32F4xx_HAL_Driver/Src/stm32f4xx_hal_can.c ****     hcan->ErrorCode |= HAL_CAN_ERROR_NOT_INITIALIZED;
 391              		.loc 1 989 5 is_stmt 1 view .LVU114
 392              		.loc 1 989 21 is_stmt 0 view .LVU115
 393 000e 436A     		ldr	r3, [r0, #36]
 394              	.LVL19:
 395              		.loc 1 989 21 view .LVU116
 396 0010 43F48023 		orr	r3, r3, #262144
 397 0014 4362     		str	r3, [r0, #36]
 990:Drivers/STM32F4xx_HAL_Driver/Src/stm32f4xx_hal_can.c **** 
 991:Drivers/STM32F4xx_HAL_Driver/Src/stm32f4xx_hal_can.c ****     return HAL_ERROR;
 398              		.loc 1 991 5 is_stmt 1 view .LVU117
 399              		.loc 1 991 12 is_stmt 0 view .LVU118
 400 0016 0120     		movs	r0, #1
ARM GAS  /tmp/ccrOzmIp.s 			page 27


 401              	.LVL20:
 992:Drivers/STM32F4xx_HAL_Driver/Src/stm32f4xx_hal_can.c ****   }
 993:Drivers/STM32F4xx_HAL_Driver/Src/stm32f4xx_hal_can.c **** }
 402              		.loc 1 993 1 view .LVU119
 403 0018 7047     		bx	lr
 404              	.LVL21:
 405              	.L53:
 839:Drivers/STM32F4xx_HAL_Driver/Src/stm32f4xx_hal_can.c ****   uint32_t filternbrbitpos;
 406              		.loc 1 839 1 view .LVU120
 407 001a 30B4     		push	{r4, r5}
 408              	.LCFI2:
 409              		.cfi_def_cfa_offset 8
 410              		.cfi_offset 4, -8
 411              		.cfi_offset 5, -4
 848:Drivers/STM32F4xx_HAL_Driver/Src/stm32f4xx_hal_can.c ****     assert_param(IS_CAN_FILTER_ID_HALFWORD(sFilterConfig->FilterIdLow));
 412              		.loc 1 848 5 is_stmt 1 view .LVU121
 849:Drivers/STM32F4xx_HAL_Driver/Src/stm32f4xx_hal_can.c ****     assert_param(IS_CAN_FILTER_ID_HALFWORD(sFilterConfig->FilterMaskIdHigh));
 413              		.loc 1 849 5 view .LVU122
 850:Drivers/STM32F4xx_HAL_Driver/Src/stm32f4xx_hal_can.c ****     assert_param(IS_CAN_FILTER_ID_HALFWORD(sFilterConfig->FilterMaskIdLow));
 414              		.loc 1 850 5 view .LVU123
 851:Drivers/STM32F4xx_HAL_Driver/Src/stm32f4xx_hal_can.c ****     assert_param(IS_CAN_FILTER_MODE(sFilterConfig->FilterMode));
 415              		.loc 1 851 5 view .LVU124
 852:Drivers/STM32F4xx_HAL_Driver/Src/stm32f4xx_hal_can.c ****     assert_param(IS_CAN_FILTER_SCALE(sFilterConfig->FilterScale));
 416              		.loc 1 852 5 view .LVU125
 853:Drivers/STM32F4xx_HAL_Driver/Src/stm32f4xx_hal_can.c ****     assert_param(IS_CAN_FILTER_FIFO(sFilterConfig->FilterFIFOAssignment));
 417              		.loc 1 853 5 view .LVU126
 854:Drivers/STM32F4xx_HAL_Driver/Src/stm32f4xx_hal_can.c ****     assert_param(IS_CAN_FILTER_ACTIVATION(sFilterConfig->FilterActivation));
 418              		.loc 1 854 5 view .LVU127
 855:Drivers/STM32F4xx_HAL_Driver/Src/stm32f4xx_hal_can.c **** 
 419              		.loc 1 855 5 view .LVU128
 859:Drivers/STM32F4xx_HAL_Driver/Src/stm32f4xx_hal_can.c ****     {
 420              		.loc 1 859 5 view .LVU129
 859:Drivers/STM32F4xx_HAL_Driver/Src/stm32f4xx_hal_can.c ****     {
 421              		.loc 1 859 8 is_stmt 0 view .LVU130
 422 001c 454A     		ldr	r2, .L57
 423 001e 9342     		cmp	r3, r2
 424 0020 00D0     		beq	.L38
 870:Drivers/STM32F4xx_HAL_Driver/Src/stm32f4xx_hal_can.c **** 
 425              		.loc 1 870 14 view .LVU131
 426 0022 454B     		ldr	r3, .L57+4
 427              	.LVL22:
 428              	.L38:
 873:Drivers/STM32F4xx_HAL_Driver/Src/stm32f4xx_hal_can.c ****       assert_param(IS_CAN_FILTER_BANK_DUAL(sFilterConfig->SlaveStartFilterBank));
 429              		.loc 1 873 7 is_stmt 1 view .LVU132
 874:Drivers/STM32F4xx_HAL_Driver/Src/stm32f4xx_hal_can.c ****     }
 430              		.loc 1 874 7 view .LVU133
 892:Drivers/STM32F4xx_HAL_Driver/Src/stm32f4xx_hal_can.c **** 
 431              		.loc 1 892 5 view .LVU134
 432 0024 D3F80022 		ldr	r2, [r3, #512]
 433 0028 42F00102 		orr	r2, r2, #1
 434 002c C3F80022 		str	r2, [r3, #512]
 896:Drivers/STM32F4xx_HAL_Driver/Src/stm32f4xx_hal_can.c ****     {
 435              		.loc 1 896 5 view .LVU135
 896:Drivers/STM32F4xx_HAL_Driver/Src/stm32f4xx_hal_can.c ****     {
 436              		.loc 1 896 8 is_stmt 0 view .LVU136
 437 0030 414A     		ldr	r2, .L57+4
 438 0032 9342     		cmp	r3, r2
ARM GAS  /tmp/ccrOzmIp.s 			page 28


 439 0034 47D0     		beq	.L54
 440              	.LVL23:
 441              	.L39:
 910:Drivers/STM32F4xx_HAL_Driver/Src/stm32f4xx_hal_can.c **** 
 442              		.loc 1 910 5 is_stmt 1 view .LVU137
 910:Drivers/STM32F4xx_HAL_Driver/Src/stm32f4xx_hal_can.c **** 
 443              		.loc 1 910 52 is_stmt 0 view .LVU138
 444 0036 4A69     		ldr	r2, [r1, #20]
 910:Drivers/STM32F4xx_HAL_Driver/Src/stm32f4xx_hal_can.c **** 
 445              		.loc 1 910 65 view .LVU139
 446 0038 02F01F02 		and	r2, r2, #31
 910:Drivers/STM32F4xx_HAL_Driver/Src/stm32f4xx_hal_can.c **** 
 447              		.loc 1 910 21 view .LVU140
 448 003c 0120     		movs	r0, #1
 449 003e 00FA02F2 		lsl	r2, r0, r2
 450              	.LVL24:
 913:Drivers/STM32F4xx_HAL_Driver/Src/stm32f4xx_hal_can.c **** 
 451              		.loc 1 913 5 is_stmt 1 view .LVU141
 452 0042 D3F81C02 		ldr	r0, [r3, #540]
 453 0046 6FEA020C 		mvn	ip, r2
 454 004a 20EA0200 		bic	r0, r0, r2
 455 004e C3F81C02 		str	r0, [r3, #540]
 916:Drivers/STM32F4xx_HAL_Driver/Src/stm32f4xx_hal_can.c ****     {
 456              		.loc 1 916 5 view .LVU142
 916:Drivers/STM32F4xx_HAL_Driver/Src/stm32f4xx_hal_can.c ****     {
 457              		.loc 1 916 22 is_stmt 0 view .LVU143
 458 0052 C869     		ldr	r0, [r1, #28]
 916:Drivers/STM32F4xx_HAL_Driver/Src/stm32f4xx_hal_can.c ****     {
 459              		.loc 1 916 8 view .LVU144
 460 0054 B0B9     		cbnz	r0, .L40
 919:Drivers/STM32F4xx_HAL_Driver/Src/stm32f4xx_hal_can.c **** 
 461              		.loc 1 919 7 is_stmt 1 view .LVU145
 462 0056 D3F80C02 		ldr	r0, [r3, #524]
 463 005a 0CEA0000 		and	r0, ip, r0
 464 005e C3F80C02 		str	r0, [r3, #524]
 923:Drivers/STM32F4xx_HAL_Driver/Src/stm32f4xx_hal_can.c ****         ((0x0000FFFFU & (uint32_t)sFilterConfig->FilterMaskIdLow) << 16U) |
 465              		.loc 1 923 7 view .LVU146
 925:Drivers/STM32F4xx_HAL_Driver/Src/stm32f4xx_hal_can.c **** 
 466              		.loc 1 925 22 is_stmt 0 view .LVU147
 467 0062 8C88     		ldrh	r4, [r1, #4]
 923:Drivers/STM32F4xx_HAL_Driver/Src/stm32f4xx_hal_can.c ****         ((0x0000FFFFU & (uint32_t)sFilterConfig->FilterMaskIdLow) << 16U) |
 468              		.loc 1 923 44 view .LVU148
 469 0064 4869     		ldr	r0, [r1, #20]
 924:Drivers/STM32F4xx_HAL_Driver/Src/stm32f4xx_hal_can.c ****         (0x0000FFFFU & (uint32_t)sFilterConfig->FilterIdLow);
 470              		.loc 1 924 75 view .LVU149
 471 0066 CD68     		ldr	r5, [r1, #12]
 472 0068 44EA0544 		orr	r4, r4, r5, lsl #16
 923:Drivers/STM32F4xx_HAL_Driver/Src/stm32f4xx_hal_can.c ****         ((0x0000FFFFU & (uint32_t)sFilterConfig->FilterMaskIdLow) << 16U) |
 473              		.loc 1 923 62 view .LVU150
 474 006c 4830     		adds	r0, r0, #72
 475 006e 43F83040 		str	r4, [r3, r0, lsl #3]
 929:Drivers/STM32F4xx_HAL_Driver/Src/stm32f4xx_hal_can.c ****         ((0x0000FFFFU & (uint32_t)sFilterConfig->FilterMaskIdHigh) << 16U) |
 476              		.loc 1 929 7 is_stmt 1 view .LVU151
 931:Drivers/STM32F4xx_HAL_Driver/Src/stm32f4xx_hal_can.c ****     }
 477              		.loc 1 931 22 is_stmt 0 view .LVU152
 478 0072 0C88     		ldrh	r4, [r1]
 929:Drivers/STM32F4xx_HAL_Driver/Src/stm32f4xx_hal_can.c ****         ((0x0000FFFFU & (uint32_t)sFilterConfig->FilterMaskIdHigh) << 16U) |
ARM GAS  /tmp/ccrOzmIp.s 			page 29


 479              		.loc 1 929 44 view .LVU153
 480 0074 4869     		ldr	r0, [r1, #20]
 930:Drivers/STM32F4xx_HAL_Driver/Src/stm32f4xx_hal_can.c ****         (0x0000FFFFU & (uint32_t)sFilterConfig->FilterIdHigh);
 481              		.loc 1 930 76 view .LVU154
 482 0076 8D68     		ldr	r5, [r1, #8]
 483 0078 44EA0544 		orr	r4, r4, r5, lsl #16
 929:Drivers/STM32F4xx_HAL_Driver/Src/stm32f4xx_hal_can.c ****         ((0x0000FFFFU & (uint32_t)sFilterConfig->FilterMaskIdHigh) << 16U) |
 484              		.loc 1 929 62 view .LVU155
 485 007c 4830     		adds	r0, r0, #72
 486 007e 03EBC000 		add	r0, r3, r0, lsl #3
 487 0082 4460     		str	r4, [r0, #4]
 488              	.L40:
 934:Drivers/STM32F4xx_HAL_Driver/Src/stm32f4xx_hal_can.c ****     {
 489              		.loc 1 934 5 is_stmt 1 view .LVU156
 934:Drivers/STM32F4xx_HAL_Driver/Src/stm32f4xx_hal_can.c ****     {
 490              		.loc 1 934 22 is_stmt 0 view .LVU157
 491 0084 C869     		ldr	r0, [r1, #28]
 934:Drivers/STM32F4xx_HAL_Driver/Src/stm32f4xx_hal_can.c ****     {
 492              		.loc 1 934 8 view .LVU158
 493 0086 0128     		cmp	r0, #1
 494 0088 2BD0     		beq	.L55
 495              	.L41:
 951:Drivers/STM32F4xx_HAL_Driver/Src/stm32f4xx_hal_can.c ****     {
 496              		.loc 1 951 5 is_stmt 1 view .LVU159
 951:Drivers/STM32F4xx_HAL_Driver/Src/stm32f4xx_hal_can.c ****     {
 497              		.loc 1 951 22 is_stmt 0 view .LVU160
 498 008a 8869     		ldr	r0, [r1, #24]
 951:Drivers/STM32F4xx_HAL_Driver/Src/stm32f4xx_hal_can.c ****     {
 499              		.loc 1 951 8 view .LVU161
 500 008c 0028     		cmp	r0, #0
 501 008e 3FD1     		bne	.L42
 954:Drivers/STM32F4xx_HAL_Driver/Src/stm32f4xx_hal_can.c ****     }
 502              		.loc 1 954 7 is_stmt 1 view .LVU162
 503 0090 D3F80402 		ldr	r0, [r3, #516]
 504 0094 0CEA0000 		and	r0, ip, r0
 505 0098 C3F80402 		str	r0, [r3, #516]
 506              	.L43:
 963:Drivers/STM32F4xx_HAL_Driver/Src/stm32f4xx_hal_can.c ****     {
 507              		.loc 1 963 5 view .LVU163
 963:Drivers/STM32F4xx_HAL_Driver/Src/stm32f4xx_hal_can.c ****     {
 508              		.loc 1 963 22 is_stmt 0 view .LVU164
 509 009c 0869     		ldr	r0, [r1, #16]
 963:Drivers/STM32F4xx_HAL_Driver/Src/stm32f4xx_hal_can.c ****     {
 510              		.loc 1 963 8 view .LVU165
 511 009e 0028     		cmp	r0, #0
 512 00a0 3CD1     		bne	.L44
 966:Drivers/STM32F4xx_HAL_Driver/Src/stm32f4xx_hal_can.c ****     }
 513              		.loc 1 966 7 is_stmt 1 view .LVU166
 514 00a2 D3F81402 		ldr	r0, [r3, #532]
 515 00a6 0CEA0000 		and	r0, ip, r0
 516 00aa C3F81402 		str	r0, [r3, #532]
 517              	.L45:
 975:Drivers/STM32F4xx_HAL_Driver/Src/stm32f4xx_hal_can.c ****     {
 518              		.loc 1 975 5 view .LVU167
 975:Drivers/STM32F4xx_HAL_Driver/Src/stm32f4xx_hal_can.c ****     {
 519              		.loc 1 975 22 is_stmt 0 view .LVU168
 520 00ae 096A     		ldr	r1, [r1, #32]
ARM GAS  /tmp/ccrOzmIp.s 			page 30


 521              	.LVL25:
 975:Drivers/STM32F4xx_HAL_Driver/Src/stm32f4xx_hal_can.c ****     {
 522              		.loc 1 975 8 view .LVU169
 523 00b0 0129     		cmp	r1, #1
 524 00b2 39D0     		beq	.L56
 525              	.LVL26:
 526              	.L46:
 981:Drivers/STM32F4xx_HAL_Driver/Src/stm32f4xx_hal_can.c **** 
 527              		.loc 1 981 5 is_stmt 1 view .LVU170
 528 00b4 D3F80022 		ldr	r2, [r3, #512]
 529 00b8 22F00102 		bic	r2, r2, #1
 530 00bc C3F80022 		str	r2, [r3, #512]
 984:Drivers/STM32F4xx_HAL_Driver/Src/stm32f4xx_hal_can.c ****   }
 531              		.loc 1 984 5 view .LVU171
 984:Drivers/STM32F4xx_HAL_Driver/Src/stm32f4xx_hal_can.c ****   }
 532              		.loc 1 984 12 is_stmt 0 view .LVU172
 533 00c0 0020     		movs	r0, #0
 534              		.loc 1 993 1 view .LVU173
 535 00c2 30BC     		pop	{r4, r5}
 536              	.LCFI3:
 537              		.cfi_remember_state
 538              		.cfi_restore 5
 539              		.cfi_restore 4
 540              		.cfi_def_cfa_offset 0
 541 00c4 7047     		bx	lr
 542              	.LVL27:
 543              	.L54:
 544              	.LCFI4:
 545              		.cfi_restore_state
 899:Drivers/STM32F4xx_HAL_Driver/Src/stm32f4xx_hal_can.c ****       SET_BIT(can_ip->FMR, sFilterConfig->SlaveStartFilterBank << CAN_FMR_CAN2SB_Pos);
 546              		.loc 1 899 7 is_stmt 1 view .LVU174
 547 00c6 D3F80022 		ldr	r2, [r3, #512]
 548 00ca 22F47C52 		bic	r2, r2, #16128
 549 00ce C3F80022 		str	r2, [r3, #512]
 900:Drivers/STM32F4xx_HAL_Driver/Src/stm32f4xx_hal_can.c ****     }
 550              		.loc 1 900 7 view .LVU175
 551 00d2 D3F80022 		ldr	r2, [r3, #512]
 552 00d6 486A     		ldr	r0, [r1, #36]
 553              	.LVL28:
 900:Drivers/STM32F4xx_HAL_Driver/Src/stm32f4xx_hal_can.c ****     }
 554              		.loc 1 900 7 is_stmt 0 view .LVU176
 555 00d8 42EA0022 		orr	r2, r2, r0, lsl #8
 556 00dc C3F80022 		str	r2, [r3, #512]
 557 00e0 A9E7     		b	.L39
 558              	.LVL29:
 559              	.L55:
 937:Drivers/STM32F4xx_HAL_Driver/Src/stm32f4xx_hal_can.c **** 
 560              		.loc 1 937 7 is_stmt 1 view .LVU177
 561 00e2 D3F80C02 		ldr	r0, [r3, #524]
 562 00e6 1043     		orrs	r0, r0, r2
 563 00e8 C3F80C02 		str	r0, [r3, #524]
 940:Drivers/STM32F4xx_HAL_Driver/Src/stm32f4xx_hal_can.c ****         ((0x0000FFFFU & (uint32_t)sFilterConfig->FilterIdHigh) << 16U) |
 564              		.loc 1 940 7 view .LVU178
 942:Drivers/STM32F4xx_HAL_Driver/Src/stm32f4xx_hal_can.c **** 
 565              		.loc 1 942 22 is_stmt 0 view .LVU179
 566 00ec 8C88     		ldrh	r4, [r1, #4]
 940:Drivers/STM32F4xx_HAL_Driver/Src/stm32f4xx_hal_can.c ****         ((0x0000FFFFU & (uint32_t)sFilterConfig->FilterIdHigh) << 16U) |
ARM GAS  /tmp/ccrOzmIp.s 			page 31


 567              		.loc 1 940 44 view .LVU180
 568 00ee 4869     		ldr	r0, [r1, #20]
 941:Drivers/STM32F4xx_HAL_Driver/Src/stm32f4xx_hal_can.c ****         (0x0000FFFFU & (uint32_t)sFilterConfig->FilterIdLow);
 569              		.loc 1 941 72 view .LVU181
 570 00f0 0D68     		ldr	r5, [r1]
 571 00f2 44EA0544 		orr	r4, r4, r5, lsl #16
 940:Drivers/STM32F4xx_HAL_Driver/Src/stm32f4xx_hal_can.c ****         ((0x0000FFFFU & (uint32_t)sFilterConfig->FilterIdHigh) << 16U) |
 572              		.loc 1 940 62 view .LVU182
 573 00f6 4830     		adds	r0, r0, #72
 574 00f8 43F83040 		str	r4, [r3, r0, lsl #3]
 945:Drivers/STM32F4xx_HAL_Driver/Src/stm32f4xx_hal_can.c ****         ((0x0000FFFFU & (uint32_t)sFilterConfig->FilterMaskIdHigh) << 16U) |
 575              		.loc 1 945 7 is_stmt 1 view .LVU183
 947:Drivers/STM32F4xx_HAL_Driver/Src/stm32f4xx_hal_can.c ****     }
 576              		.loc 1 947 22 is_stmt 0 view .LVU184
 577 00fc 8C89     		ldrh	r4, [r1, #12]
 945:Drivers/STM32F4xx_HAL_Driver/Src/stm32f4xx_hal_can.c ****         ((0x0000FFFFU & (uint32_t)sFilterConfig->FilterMaskIdHigh) << 16U) |
 578              		.loc 1 945 44 view .LVU185
 579 00fe 4869     		ldr	r0, [r1, #20]
 946:Drivers/STM32F4xx_HAL_Driver/Src/stm32f4xx_hal_can.c ****         (0x0000FFFFU & (uint32_t)sFilterConfig->FilterMaskIdLow);
 580              		.loc 1 946 76 view .LVU186
 581 0100 8D68     		ldr	r5, [r1, #8]
 582 0102 44EA0544 		orr	r4, r4, r5, lsl #16
 945:Drivers/STM32F4xx_HAL_Driver/Src/stm32f4xx_hal_can.c ****         ((0x0000FFFFU & (uint32_t)sFilterConfig->FilterMaskIdHigh) << 16U) |
 583              		.loc 1 945 62 view .LVU187
 584 0106 4830     		adds	r0, r0, #72
 585 0108 03EBC000 		add	r0, r3, r0, lsl #3
 586 010c 4460     		str	r4, [r0, #4]
 587 010e BCE7     		b	.L41
 588              	.L42:
 959:Drivers/STM32F4xx_HAL_Driver/Src/stm32f4xx_hal_can.c ****     }
 589              		.loc 1 959 7 is_stmt 1 view .LVU188
 590 0110 D3F80402 		ldr	r0, [r3, #516]
 591 0114 1043     		orrs	r0, r0, r2
 592 0116 C3F80402 		str	r0, [r3, #516]
 593 011a BFE7     		b	.L43
 594              	.L44:
 971:Drivers/STM32F4xx_HAL_Driver/Src/stm32f4xx_hal_can.c ****     }
 595              		.loc 1 971 7 view .LVU189
 596 011c D3F81402 		ldr	r0, [r3, #532]
 597 0120 1043     		orrs	r0, r0, r2
 598 0122 C3F81402 		str	r0, [r3, #532]
 599 0126 C2E7     		b	.L45
 600              	.LVL30:
 601              	.L56:
 977:Drivers/STM32F4xx_HAL_Driver/Src/stm32f4xx_hal_can.c ****     }
 602              		.loc 1 977 7 view .LVU190
 603 0128 D3F81C12 		ldr	r1, [r3, #540]
 604 012c 0A43     		orrs	r2, r2, r1
 605              	.LVL31:
 977:Drivers/STM32F4xx_HAL_Driver/Src/stm32f4xx_hal_can.c ****     }
 606              		.loc 1 977 7 is_stmt 0 view .LVU191
 607 012e C3F81C22 		str	r2, [r3, #540]
 608 0132 BFE7     		b	.L46
 609              	.L58:
 610              		.align	2
 611              	.L57:
 612 0134 006C0040 		.word	1073769472
ARM GAS  /tmp/ccrOzmIp.s 			page 32


 613 0138 00640040 		.word	1073767424
 614              		.cfi_endproc
 615              	.LFE220:
 617              		.section	.text.HAL_CAN_Start,"ax",%progbits
 618              		.align	1
 619              		.global	HAL_CAN_Start
 620              		.syntax unified
 621              		.thumb
 622              		.thumb_func
 624              	HAL_CAN_Start:
 625              	.LVL32:
 626              	.LFB221:
 994:Drivers/STM32F4xx_HAL_Driver/Src/stm32f4xx_hal_can.c **** 
 995:Drivers/STM32F4xx_HAL_Driver/Src/stm32f4xx_hal_can.c **** /**
 996:Drivers/STM32F4xx_HAL_Driver/Src/stm32f4xx_hal_can.c ****   * @}
 997:Drivers/STM32F4xx_HAL_Driver/Src/stm32f4xx_hal_can.c ****   */
 998:Drivers/STM32F4xx_HAL_Driver/Src/stm32f4xx_hal_can.c **** 
 999:Drivers/STM32F4xx_HAL_Driver/Src/stm32f4xx_hal_can.c **** /** @defgroup CAN_Exported_Functions_Group3 Control functions
1000:Drivers/STM32F4xx_HAL_Driver/Src/stm32f4xx_hal_can.c ****  *  @brief    Control functions
1001:Drivers/STM32F4xx_HAL_Driver/Src/stm32f4xx_hal_can.c ****  *
1002:Drivers/STM32F4xx_HAL_Driver/Src/stm32f4xx_hal_can.c **** @verbatim
1003:Drivers/STM32F4xx_HAL_Driver/Src/stm32f4xx_hal_can.c ****   ==============================================================================
1004:Drivers/STM32F4xx_HAL_Driver/Src/stm32f4xx_hal_can.c ****                       ##### Control functions #####
1005:Drivers/STM32F4xx_HAL_Driver/Src/stm32f4xx_hal_can.c ****   ==============================================================================
1006:Drivers/STM32F4xx_HAL_Driver/Src/stm32f4xx_hal_can.c ****     [..]  This section provides functions allowing to:
1007:Drivers/STM32F4xx_HAL_Driver/Src/stm32f4xx_hal_can.c ****       (+) HAL_CAN_Start                    : Start the CAN module
1008:Drivers/STM32F4xx_HAL_Driver/Src/stm32f4xx_hal_can.c ****       (+) HAL_CAN_Stop                     : Stop the CAN module
1009:Drivers/STM32F4xx_HAL_Driver/Src/stm32f4xx_hal_can.c ****       (+) HAL_CAN_RequestSleep             : Request sleep mode entry.
1010:Drivers/STM32F4xx_HAL_Driver/Src/stm32f4xx_hal_can.c ****       (+) HAL_CAN_WakeUp                   : Wake up from sleep mode.
1011:Drivers/STM32F4xx_HAL_Driver/Src/stm32f4xx_hal_can.c ****       (+) HAL_CAN_IsSleepActive            : Check is sleep mode is active.
1012:Drivers/STM32F4xx_HAL_Driver/Src/stm32f4xx_hal_can.c ****       (+) HAL_CAN_AddTxMessage             : Add a message to the Tx mailboxes
1013:Drivers/STM32F4xx_HAL_Driver/Src/stm32f4xx_hal_can.c ****                                              and activate the corresponding
1014:Drivers/STM32F4xx_HAL_Driver/Src/stm32f4xx_hal_can.c ****                                              transmission request
1015:Drivers/STM32F4xx_HAL_Driver/Src/stm32f4xx_hal_can.c ****       (+) HAL_CAN_AbortTxRequest           : Abort transmission request
1016:Drivers/STM32F4xx_HAL_Driver/Src/stm32f4xx_hal_can.c ****       (+) HAL_CAN_GetTxMailboxesFreeLevel  : Return Tx mailboxes free level
1017:Drivers/STM32F4xx_HAL_Driver/Src/stm32f4xx_hal_can.c ****       (+) HAL_CAN_IsTxMessagePending       : Check if a transmission request is
1018:Drivers/STM32F4xx_HAL_Driver/Src/stm32f4xx_hal_can.c ****                                              pending on the selected Tx mailbox
1019:Drivers/STM32F4xx_HAL_Driver/Src/stm32f4xx_hal_can.c ****       (+) HAL_CAN_GetRxMessage             : Get a CAN frame from the Rx FIFO
1020:Drivers/STM32F4xx_HAL_Driver/Src/stm32f4xx_hal_can.c ****       (+) HAL_CAN_GetRxFifoFillLevel       : Return Rx FIFO fill level
1021:Drivers/STM32F4xx_HAL_Driver/Src/stm32f4xx_hal_can.c **** 
1022:Drivers/STM32F4xx_HAL_Driver/Src/stm32f4xx_hal_can.c **** @endverbatim
1023:Drivers/STM32F4xx_HAL_Driver/Src/stm32f4xx_hal_can.c ****   * @{
1024:Drivers/STM32F4xx_HAL_Driver/Src/stm32f4xx_hal_can.c ****   */
1025:Drivers/STM32F4xx_HAL_Driver/Src/stm32f4xx_hal_can.c **** 
1026:Drivers/STM32F4xx_HAL_Driver/Src/stm32f4xx_hal_can.c **** /**
1027:Drivers/STM32F4xx_HAL_Driver/Src/stm32f4xx_hal_can.c ****   * @brief  Start the CAN module.
1028:Drivers/STM32F4xx_HAL_Driver/Src/stm32f4xx_hal_can.c ****   * @param  hcan pointer to an CAN_HandleTypeDef structure that contains
1029:Drivers/STM32F4xx_HAL_Driver/Src/stm32f4xx_hal_can.c ****   *         the configuration information for the specified CAN.
1030:Drivers/STM32F4xx_HAL_Driver/Src/stm32f4xx_hal_can.c ****   * @retval HAL status
1031:Drivers/STM32F4xx_HAL_Driver/Src/stm32f4xx_hal_can.c ****   */
1032:Drivers/STM32F4xx_HAL_Driver/Src/stm32f4xx_hal_can.c **** HAL_StatusTypeDef HAL_CAN_Start(CAN_HandleTypeDef *hcan)
1033:Drivers/STM32F4xx_HAL_Driver/Src/stm32f4xx_hal_can.c **** {
 627              		.loc 1 1033 1 is_stmt 1 view -0
 628              		.cfi_startproc
 629              		@ args = 0, pretend = 0, frame = 0
 630              		@ frame_needed = 0, uses_anonymous_args = 0
 631              		.loc 1 1033 1 is_stmt 0 view .LVU193
ARM GAS  /tmp/ccrOzmIp.s 			page 33


 632 0000 70B5     		push	{r4, r5, r6, lr}
 633              	.LCFI5:
 634              		.cfi_def_cfa_offset 16
 635              		.cfi_offset 4, -16
 636              		.cfi_offset 5, -12
 637              		.cfi_offset 6, -8
 638              		.cfi_offset 14, -4
 639 0002 0446     		mov	r4, r0
1034:Drivers/STM32F4xx_HAL_Driver/Src/stm32f4xx_hal_can.c ****   uint32_t tickstart;
 640              		.loc 1 1034 3 is_stmt 1 view .LVU194
1035:Drivers/STM32F4xx_HAL_Driver/Src/stm32f4xx_hal_can.c **** 
1036:Drivers/STM32F4xx_HAL_Driver/Src/stm32f4xx_hal_can.c ****   if (hcan->State == HAL_CAN_STATE_READY)
 641              		.loc 1 1036 3 view .LVU195
 642              		.loc 1 1036 11 is_stmt 0 view .LVU196
 643 0004 90F82050 		ldrb	r5, [r0, #32]	@ zero_extendqisi2
 644 0008 EDB2     		uxtb	r5, r5
 645              		.loc 1 1036 6 view .LVU197
 646 000a 012D     		cmp	r5, #1
 647 000c 06D0     		beq	.L65
1037:Drivers/STM32F4xx_HAL_Driver/Src/stm32f4xx_hal_can.c ****   {
1038:Drivers/STM32F4xx_HAL_Driver/Src/stm32f4xx_hal_can.c ****     /* Change CAN peripheral state */
1039:Drivers/STM32F4xx_HAL_Driver/Src/stm32f4xx_hal_can.c ****     hcan->State = HAL_CAN_STATE_LISTENING;
1040:Drivers/STM32F4xx_HAL_Driver/Src/stm32f4xx_hal_can.c **** 
1041:Drivers/STM32F4xx_HAL_Driver/Src/stm32f4xx_hal_can.c ****     /* Request leave initialisation */
1042:Drivers/STM32F4xx_HAL_Driver/Src/stm32f4xx_hal_can.c ****     CLEAR_BIT(hcan->Instance->MCR, CAN_MCR_INRQ);
1043:Drivers/STM32F4xx_HAL_Driver/Src/stm32f4xx_hal_can.c **** 
1044:Drivers/STM32F4xx_HAL_Driver/Src/stm32f4xx_hal_can.c ****     /* Get tick */
1045:Drivers/STM32F4xx_HAL_Driver/Src/stm32f4xx_hal_can.c ****     tickstart = HAL_GetTick();
1046:Drivers/STM32F4xx_HAL_Driver/Src/stm32f4xx_hal_can.c **** 
1047:Drivers/STM32F4xx_HAL_Driver/Src/stm32f4xx_hal_can.c ****     /* Wait the acknowledge */
1048:Drivers/STM32F4xx_HAL_Driver/Src/stm32f4xx_hal_can.c ****     while ((hcan->Instance->MSR & CAN_MSR_INAK) != 0U)
1049:Drivers/STM32F4xx_HAL_Driver/Src/stm32f4xx_hal_can.c ****     {
1050:Drivers/STM32F4xx_HAL_Driver/Src/stm32f4xx_hal_can.c ****       /* Check for the Timeout */
1051:Drivers/STM32F4xx_HAL_Driver/Src/stm32f4xx_hal_can.c ****       if ((HAL_GetTick() - tickstart) > CAN_TIMEOUT_VALUE)
1052:Drivers/STM32F4xx_HAL_Driver/Src/stm32f4xx_hal_can.c ****       {
1053:Drivers/STM32F4xx_HAL_Driver/Src/stm32f4xx_hal_can.c ****         /* Update error code */
1054:Drivers/STM32F4xx_HAL_Driver/Src/stm32f4xx_hal_can.c ****         hcan->ErrorCode |= HAL_CAN_ERROR_TIMEOUT;
1055:Drivers/STM32F4xx_HAL_Driver/Src/stm32f4xx_hal_can.c **** 
1056:Drivers/STM32F4xx_HAL_Driver/Src/stm32f4xx_hal_can.c ****         /* Change CAN state */
1057:Drivers/STM32F4xx_HAL_Driver/Src/stm32f4xx_hal_can.c ****         hcan->State = HAL_CAN_STATE_ERROR;
1058:Drivers/STM32F4xx_HAL_Driver/Src/stm32f4xx_hal_can.c **** 
1059:Drivers/STM32F4xx_HAL_Driver/Src/stm32f4xx_hal_can.c ****         return HAL_ERROR;
1060:Drivers/STM32F4xx_HAL_Driver/Src/stm32f4xx_hal_can.c ****       }
1061:Drivers/STM32F4xx_HAL_Driver/Src/stm32f4xx_hal_can.c ****     }
1062:Drivers/STM32F4xx_HAL_Driver/Src/stm32f4xx_hal_can.c **** 
1063:Drivers/STM32F4xx_HAL_Driver/Src/stm32f4xx_hal_can.c ****     /* Reset the CAN ErrorCode */
1064:Drivers/STM32F4xx_HAL_Driver/Src/stm32f4xx_hal_can.c ****     hcan->ErrorCode = HAL_CAN_ERROR_NONE;
1065:Drivers/STM32F4xx_HAL_Driver/Src/stm32f4xx_hal_can.c **** 
1066:Drivers/STM32F4xx_HAL_Driver/Src/stm32f4xx_hal_can.c ****     /* Return function status */
1067:Drivers/STM32F4xx_HAL_Driver/Src/stm32f4xx_hal_can.c ****     return HAL_OK;
1068:Drivers/STM32F4xx_HAL_Driver/Src/stm32f4xx_hal_can.c ****   }
1069:Drivers/STM32F4xx_HAL_Driver/Src/stm32f4xx_hal_can.c ****   else
1070:Drivers/STM32F4xx_HAL_Driver/Src/stm32f4xx_hal_can.c ****   {
1071:Drivers/STM32F4xx_HAL_Driver/Src/stm32f4xx_hal_can.c ****     /* Update error code */
1072:Drivers/STM32F4xx_HAL_Driver/Src/stm32f4xx_hal_can.c ****     hcan->ErrorCode |= HAL_CAN_ERROR_NOT_READY;
 648              		.loc 1 1072 5 is_stmt 1 view .LVU198
 649              		.loc 1 1072 21 is_stmt 0 view .LVU199
ARM GAS  /tmp/ccrOzmIp.s 			page 34


 650 000e 436A     		ldr	r3, [r0, #36]
 651 0010 43F40023 		orr	r3, r3, #524288
 652 0014 4362     		str	r3, [r0, #36]
1073:Drivers/STM32F4xx_HAL_Driver/Src/stm32f4xx_hal_can.c **** 
1074:Drivers/STM32F4xx_HAL_Driver/Src/stm32f4xx_hal_can.c ****     return HAL_ERROR;
 653              		.loc 1 1074 5 is_stmt 1 view .LVU200
 654              		.loc 1 1074 12 is_stmt 0 view .LVU201
 655 0016 0125     		movs	r5, #1
 656              	.LVL33:
 657              	.L62:
1075:Drivers/STM32F4xx_HAL_Driver/Src/stm32f4xx_hal_can.c ****   }
1076:Drivers/STM32F4xx_HAL_Driver/Src/stm32f4xx_hal_can.c **** }
 658              		.loc 1 1076 1 view .LVU202
 659 0018 2846     		mov	r0, r5
 660 001a 70BD     		pop	{r4, r5, r6, pc}
 661              	.LVL34:
 662              	.L65:
1039:Drivers/STM32F4xx_HAL_Driver/Src/stm32f4xx_hal_can.c **** 
 663              		.loc 1 1039 5 is_stmt 1 view .LVU203
1039:Drivers/STM32F4xx_HAL_Driver/Src/stm32f4xx_hal_can.c **** 
 664              		.loc 1 1039 17 is_stmt 0 view .LVU204
 665 001c 0223     		movs	r3, #2
 666 001e 80F82030 		strb	r3, [r0, #32]
1042:Drivers/STM32F4xx_HAL_Driver/Src/stm32f4xx_hal_can.c **** 
 667              		.loc 1 1042 5 is_stmt 1 view .LVU205
 668 0022 0268     		ldr	r2, [r0]
 669 0024 1368     		ldr	r3, [r2]
 670 0026 23F00103 		bic	r3, r3, #1
 671 002a 1360     		str	r3, [r2]
1045:Drivers/STM32F4xx_HAL_Driver/Src/stm32f4xx_hal_can.c **** 
 672              		.loc 1 1045 5 view .LVU206
1045:Drivers/STM32F4xx_HAL_Driver/Src/stm32f4xx_hal_can.c **** 
 673              		.loc 1 1045 17 is_stmt 0 view .LVU207
 674 002c FFF7FEFF 		bl	HAL_GetTick
 675              	.LVL35:
1045:Drivers/STM32F4xx_HAL_Driver/Src/stm32f4xx_hal_can.c **** 
 676              		.loc 1 1045 17 view .LVU208
 677 0030 0646     		mov	r6, r0
 678              	.LVL36:
1048:Drivers/STM32F4xx_HAL_Driver/Src/stm32f4xx_hal_can.c ****     {
 679              		.loc 1 1048 5 is_stmt 1 view .LVU209
 680              	.L61:
1048:Drivers/STM32F4xx_HAL_Driver/Src/stm32f4xx_hal_can.c ****     {
 681              		.loc 1 1048 49 view .LVU210
1048:Drivers/STM32F4xx_HAL_Driver/Src/stm32f4xx_hal_can.c ****     {
 682              		.loc 1 1048 17 is_stmt 0 view .LVU211
 683 0032 2368     		ldr	r3, [r4]
1048:Drivers/STM32F4xx_HAL_Driver/Src/stm32f4xx_hal_can.c ****     {
 684              		.loc 1 1048 27 view .LVU212
 685 0034 5B68     		ldr	r3, [r3, #4]
1048:Drivers/STM32F4xx_HAL_Driver/Src/stm32f4xx_hal_can.c ****     {
 686              		.loc 1 1048 49 view .LVU213
 687 0036 13F0010F 		tst	r3, #1
 688 003a 0CD0     		beq	.L66
1051:Drivers/STM32F4xx_HAL_Driver/Src/stm32f4xx_hal_can.c ****       {
 689              		.loc 1 1051 7 is_stmt 1 view .LVU214
1051:Drivers/STM32F4xx_HAL_Driver/Src/stm32f4xx_hal_can.c ****       {
ARM GAS  /tmp/ccrOzmIp.s 			page 35


 690              		.loc 1 1051 12 is_stmt 0 view .LVU215
 691 003c FFF7FEFF 		bl	HAL_GetTick
 692              	.LVL37:
1051:Drivers/STM32F4xx_HAL_Driver/Src/stm32f4xx_hal_can.c ****       {
 693              		.loc 1 1051 26 view .LVU216
 694 0040 831B     		subs	r3, r0, r6
1051:Drivers/STM32F4xx_HAL_Driver/Src/stm32f4xx_hal_can.c ****       {
 695              		.loc 1 1051 10 view .LVU217
 696 0042 0A2B     		cmp	r3, #10
 697 0044 F5D9     		bls	.L61
1054:Drivers/STM32F4xx_HAL_Driver/Src/stm32f4xx_hal_can.c **** 
 698              		.loc 1 1054 9 is_stmt 1 view .LVU218
1054:Drivers/STM32F4xx_HAL_Driver/Src/stm32f4xx_hal_can.c **** 
 699              		.loc 1 1054 25 is_stmt 0 view .LVU219
 700 0046 636A     		ldr	r3, [r4, #36]
 701 0048 43F40033 		orr	r3, r3, #131072
 702 004c 6362     		str	r3, [r4, #36]
1057:Drivers/STM32F4xx_HAL_Driver/Src/stm32f4xx_hal_can.c **** 
 703              		.loc 1 1057 9 is_stmt 1 view .LVU220
1057:Drivers/STM32F4xx_HAL_Driver/Src/stm32f4xx_hal_can.c **** 
 704              		.loc 1 1057 21 is_stmt 0 view .LVU221
 705 004e 0523     		movs	r3, #5
 706 0050 84F82030 		strb	r3, [r4, #32]
1059:Drivers/STM32F4xx_HAL_Driver/Src/stm32f4xx_hal_can.c ****       }
 707              		.loc 1 1059 9 is_stmt 1 view .LVU222
1059:Drivers/STM32F4xx_HAL_Driver/Src/stm32f4xx_hal_can.c ****       }
 708              		.loc 1 1059 16 is_stmt 0 view .LVU223
 709 0054 E0E7     		b	.L62
 710              	.L66:
1064:Drivers/STM32F4xx_HAL_Driver/Src/stm32f4xx_hal_can.c **** 
 711              		.loc 1 1064 5 is_stmt 1 view .LVU224
1064:Drivers/STM32F4xx_HAL_Driver/Src/stm32f4xx_hal_can.c **** 
 712              		.loc 1 1064 21 is_stmt 0 view .LVU225
 713 0056 0025     		movs	r5, #0
 714 0058 6562     		str	r5, [r4, #36]
1067:Drivers/STM32F4xx_HAL_Driver/Src/stm32f4xx_hal_can.c ****   }
 715              		.loc 1 1067 5 is_stmt 1 view .LVU226
1067:Drivers/STM32F4xx_HAL_Driver/Src/stm32f4xx_hal_can.c ****   }
 716              		.loc 1 1067 12 is_stmt 0 view .LVU227
 717 005a DDE7     		b	.L62
 718              		.cfi_endproc
 719              	.LFE221:
 721              		.section	.text.HAL_CAN_Stop,"ax",%progbits
 722              		.align	1
 723              		.global	HAL_CAN_Stop
 724              		.syntax unified
 725              		.thumb
 726              		.thumb_func
 728              	HAL_CAN_Stop:
 729              	.LVL38:
 730              	.LFB222:
1077:Drivers/STM32F4xx_HAL_Driver/Src/stm32f4xx_hal_can.c **** 
1078:Drivers/STM32F4xx_HAL_Driver/Src/stm32f4xx_hal_can.c **** /**
1079:Drivers/STM32F4xx_HAL_Driver/Src/stm32f4xx_hal_can.c ****   * @brief  Stop the CAN module and enable access to configuration registers.
1080:Drivers/STM32F4xx_HAL_Driver/Src/stm32f4xx_hal_can.c ****   * @param  hcan pointer to an CAN_HandleTypeDef structure that contains
1081:Drivers/STM32F4xx_HAL_Driver/Src/stm32f4xx_hal_can.c ****   *         the configuration information for the specified CAN.
1082:Drivers/STM32F4xx_HAL_Driver/Src/stm32f4xx_hal_can.c ****   * @retval HAL status
ARM GAS  /tmp/ccrOzmIp.s 			page 36


1083:Drivers/STM32F4xx_HAL_Driver/Src/stm32f4xx_hal_can.c ****   */
1084:Drivers/STM32F4xx_HAL_Driver/Src/stm32f4xx_hal_can.c **** HAL_StatusTypeDef HAL_CAN_Stop(CAN_HandleTypeDef *hcan)
1085:Drivers/STM32F4xx_HAL_Driver/Src/stm32f4xx_hal_can.c **** {
 731              		.loc 1 1085 1 is_stmt 1 view -0
 732              		.cfi_startproc
 733              		@ args = 0, pretend = 0, frame = 0
 734              		@ frame_needed = 0, uses_anonymous_args = 0
 735              		.loc 1 1085 1 is_stmt 0 view .LVU229
 736 0000 38B5     		push	{r3, r4, r5, lr}
 737              	.LCFI6:
 738              		.cfi_def_cfa_offset 16
 739              		.cfi_offset 3, -16
 740              		.cfi_offset 4, -12
 741              		.cfi_offset 5, -8
 742              		.cfi_offset 14, -4
 743 0002 0446     		mov	r4, r0
1086:Drivers/STM32F4xx_HAL_Driver/Src/stm32f4xx_hal_can.c ****   uint32_t tickstart;
 744              		.loc 1 1086 3 is_stmt 1 view .LVU230
1087:Drivers/STM32F4xx_HAL_Driver/Src/stm32f4xx_hal_can.c **** 
1088:Drivers/STM32F4xx_HAL_Driver/Src/stm32f4xx_hal_can.c ****   if (hcan->State == HAL_CAN_STATE_LISTENING)
 745              		.loc 1 1088 3 view .LVU231
 746              		.loc 1 1088 11 is_stmt 0 view .LVU232
 747 0004 90F82030 		ldrb	r3, [r0, #32]	@ zero_extendqisi2
 748 0008 DBB2     		uxtb	r3, r3
 749              		.loc 1 1088 6 view .LVU233
 750 000a 022B     		cmp	r3, #2
 751 000c 05D0     		beq	.L73
1089:Drivers/STM32F4xx_HAL_Driver/Src/stm32f4xx_hal_can.c ****   {
1090:Drivers/STM32F4xx_HAL_Driver/Src/stm32f4xx_hal_can.c ****     /* Request initialisation */
1091:Drivers/STM32F4xx_HAL_Driver/Src/stm32f4xx_hal_can.c ****     SET_BIT(hcan->Instance->MCR, CAN_MCR_INRQ);
1092:Drivers/STM32F4xx_HAL_Driver/Src/stm32f4xx_hal_can.c **** 
1093:Drivers/STM32F4xx_HAL_Driver/Src/stm32f4xx_hal_can.c ****     /* Get tick */
1094:Drivers/STM32F4xx_HAL_Driver/Src/stm32f4xx_hal_can.c ****     tickstart = HAL_GetTick();
1095:Drivers/STM32F4xx_HAL_Driver/Src/stm32f4xx_hal_can.c **** 
1096:Drivers/STM32F4xx_HAL_Driver/Src/stm32f4xx_hal_can.c ****     /* Wait the acknowledge */
1097:Drivers/STM32F4xx_HAL_Driver/Src/stm32f4xx_hal_can.c ****     while ((hcan->Instance->MSR & CAN_MSR_INAK) == 0U)
1098:Drivers/STM32F4xx_HAL_Driver/Src/stm32f4xx_hal_can.c ****     {
1099:Drivers/STM32F4xx_HAL_Driver/Src/stm32f4xx_hal_can.c ****       /* Check for the Timeout */
1100:Drivers/STM32F4xx_HAL_Driver/Src/stm32f4xx_hal_can.c ****       if ((HAL_GetTick() - tickstart) > CAN_TIMEOUT_VALUE)
1101:Drivers/STM32F4xx_HAL_Driver/Src/stm32f4xx_hal_can.c ****       {
1102:Drivers/STM32F4xx_HAL_Driver/Src/stm32f4xx_hal_can.c ****         /* Update error code */
1103:Drivers/STM32F4xx_HAL_Driver/Src/stm32f4xx_hal_can.c ****         hcan->ErrorCode |= HAL_CAN_ERROR_TIMEOUT;
1104:Drivers/STM32F4xx_HAL_Driver/Src/stm32f4xx_hal_can.c **** 
1105:Drivers/STM32F4xx_HAL_Driver/Src/stm32f4xx_hal_can.c ****         /* Change CAN state */
1106:Drivers/STM32F4xx_HAL_Driver/Src/stm32f4xx_hal_can.c ****         hcan->State = HAL_CAN_STATE_ERROR;
1107:Drivers/STM32F4xx_HAL_Driver/Src/stm32f4xx_hal_can.c **** 
1108:Drivers/STM32F4xx_HAL_Driver/Src/stm32f4xx_hal_can.c ****         return HAL_ERROR;
1109:Drivers/STM32F4xx_HAL_Driver/Src/stm32f4xx_hal_can.c ****       }
1110:Drivers/STM32F4xx_HAL_Driver/Src/stm32f4xx_hal_can.c ****     }
1111:Drivers/STM32F4xx_HAL_Driver/Src/stm32f4xx_hal_can.c **** 
1112:Drivers/STM32F4xx_HAL_Driver/Src/stm32f4xx_hal_can.c ****     /* Exit from sleep mode */
1113:Drivers/STM32F4xx_HAL_Driver/Src/stm32f4xx_hal_can.c ****     CLEAR_BIT(hcan->Instance->MCR, CAN_MCR_SLEEP);
1114:Drivers/STM32F4xx_HAL_Driver/Src/stm32f4xx_hal_can.c **** 
1115:Drivers/STM32F4xx_HAL_Driver/Src/stm32f4xx_hal_can.c ****     /* Change CAN peripheral state */
1116:Drivers/STM32F4xx_HAL_Driver/Src/stm32f4xx_hal_can.c ****     hcan->State = HAL_CAN_STATE_READY;
1117:Drivers/STM32F4xx_HAL_Driver/Src/stm32f4xx_hal_can.c **** 
1118:Drivers/STM32F4xx_HAL_Driver/Src/stm32f4xx_hal_can.c ****     /* Return function status */
ARM GAS  /tmp/ccrOzmIp.s 			page 37


1119:Drivers/STM32F4xx_HAL_Driver/Src/stm32f4xx_hal_can.c ****     return HAL_OK;
1120:Drivers/STM32F4xx_HAL_Driver/Src/stm32f4xx_hal_can.c ****   }
1121:Drivers/STM32F4xx_HAL_Driver/Src/stm32f4xx_hal_can.c ****   else
1122:Drivers/STM32F4xx_HAL_Driver/Src/stm32f4xx_hal_can.c ****   {
1123:Drivers/STM32F4xx_HAL_Driver/Src/stm32f4xx_hal_can.c ****     /* Update error code */
1124:Drivers/STM32F4xx_HAL_Driver/Src/stm32f4xx_hal_can.c ****     hcan->ErrorCode |= HAL_CAN_ERROR_NOT_STARTED;
 752              		.loc 1 1124 5 is_stmt 1 view .LVU234
 753              		.loc 1 1124 21 is_stmt 0 view .LVU235
 754 000e 436A     		ldr	r3, [r0, #36]
 755 0010 43F48013 		orr	r3, r3, #1048576
 756 0014 4362     		str	r3, [r0, #36]
1125:Drivers/STM32F4xx_HAL_Driver/Src/stm32f4xx_hal_can.c **** 
1126:Drivers/STM32F4xx_HAL_Driver/Src/stm32f4xx_hal_can.c ****     return HAL_ERROR;
 757              		.loc 1 1126 5 is_stmt 1 view .LVU236
 758              		.loc 1 1126 12 is_stmt 0 view .LVU237
 759 0016 0120     		movs	r0, #1
 760              	.LVL39:
 761              	.L70:
1127:Drivers/STM32F4xx_HAL_Driver/Src/stm32f4xx_hal_can.c ****   }
1128:Drivers/STM32F4xx_HAL_Driver/Src/stm32f4xx_hal_can.c **** }
 762              		.loc 1 1128 1 view .LVU238
 763 0018 38BD     		pop	{r3, r4, r5, pc}
 764              	.LVL40:
 765              	.L73:
1091:Drivers/STM32F4xx_HAL_Driver/Src/stm32f4xx_hal_can.c **** 
 766              		.loc 1 1091 5 is_stmt 1 view .LVU239
 767 001a 0268     		ldr	r2, [r0]
 768 001c 1368     		ldr	r3, [r2]
 769 001e 43F00103 		orr	r3, r3, #1
 770 0022 1360     		str	r3, [r2]
1094:Drivers/STM32F4xx_HAL_Driver/Src/stm32f4xx_hal_can.c **** 
 771              		.loc 1 1094 5 view .LVU240
1094:Drivers/STM32F4xx_HAL_Driver/Src/stm32f4xx_hal_can.c **** 
 772              		.loc 1 1094 17 is_stmt 0 view .LVU241
 773 0024 FFF7FEFF 		bl	HAL_GetTick
 774              	.LVL41:
1094:Drivers/STM32F4xx_HAL_Driver/Src/stm32f4xx_hal_can.c **** 
 775              		.loc 1 1094 17 view .LVU242
 776 0028 0546     		mov	r5, r0
 777              	.LVL42:
1097:Drivers/STM32F4xx_HAL_Driver/Src/stm32f4xx_hal_can.c ****     {
 778              		.loc 1 1097 5 is_stmt 1 view .LVU243
 779              	.L69:
1097:Drivers/STM32F4xx_HAL_Driver/Src/stm32f4xx_hal_can.c ****     {
 780              		.loc 1 1097 49 view .LVU244
1097:Drivers/STM32F4xx_HAL_Driver/Src/stm32f4xx_hal_can.c ****     {
 781              		.loc 1 1097 17 is_stmt 0 view .LVU245
 782 002a 2368     		ldr	r3, [r4]
1097:Drivers/STM32F4xx_HAL_Driver/Src/stm32f4xx_hal_can.c ****     {
 783              		.loc 1 1097 27 view .LVU246
 784 002c 5A68     		ldr	r2, [r3, #4]
1097:Drivers/STM32F4xx_HAL_Driver/Src/stm32f4xx_hal_can.c ****     {
 785              		.loc 1 1097 49 view .LVU247
 786 002e 12F0010F 		tst	r2, #1
 787 0032 0DD1     		bne	.L74
1100:Drivers/STM32F4xx_HAL_Driver/Src/stm32f4xx_hal_can.c ****       {
 788              		.loc 1 1100 7 is_stmt 1 view .LVU248
ARM GAS  /tmp/ccrOzmIp.s 			page 38


1100:Drivers/STM32F4xx_HAL_Driver/Src/stm32f4xx_hal_can.c ****       {
 789              		.loc 1 1100 12 is_stmt 0 view .LVU249
 790 0034 FFF7FEFF 		bl	HAL_GetTick
 791              	.LVL43:
1100:Drivers/STM32F4xx_HAL_Driver/Src/stm32f4xx_hal_can.c ****       {
 792              		.loc 1 1100 26 view .LVU250
 793 0038 431B     		subs	r3, r0, r5
1100:Drivers/STM32F4xx_HAL_Driver/Src/stm32f4xx_hal_can.c ****       {
 794              		.loc 1 1100 10 view .LVU251
 795 003a 0A2B     		cmp	r3, #10
 796 003c F5D9     		bls	.L69
1103:Drivers/STM32F4xx_HAL_Driver/Src/stm32f4xx_hal_can.c **** 
 797              		.loc 1 1103 9 is_stmt 1 view .LVU252
1103:Drivers/STM32F4xx_HAL_Driver/Src/stm32f4xx_hal_can.c **** 
 798              		.loc 1 1103 25 is_stmt 0 view .LVU253
 799 003e 636A     		ldr	r3, [r4, #36]
 800 0040 43F40033 		orr	r3, r3, #131072
 801 0044 6362     		str	r3, [r4, #36]
1106:Drivers/STM32F4xx_HAL_Driver/Src/stm32f4xx_hal_can.c **** 
 802              		.loc 1 1106 9 is_stmt 1 view .LVU254
1106:Drivers/STM32F4xx_HAL_Driver/Src/stm32f4xx_hal_can.c **** 
 803              		.loc 1 1106 21 is_stmt 0 view .LVU255
 804 0046 0523     		movs	r3, #5
 805 0048 84F82030 		strb	r3, [r4, #32]
1108:Drivers/STM32F4xx_HAL_Driver/Src/stm32f4xx_hal_can.c ****       }
 806              		.loc 1 1108 9 is_stmt 1 view .LVU256
1108:Drivers/STM32F4xx_HAL_Driver/Src/stm32f4xx_hal_can.c ****       }
 807              		.loc 1 1108 16 is_stmt 0 view .LVU257
 808 004c 0120     		movs	r0, #1
 809 004e E3E7     		b	.L70
 810              	.L74:
1113:Drivers/STM32F4xx_HAL_Driver/Src/stm32f4xx_hal_can.c **** 
 811              		.loc 1 1113 5 is_stmt 1 view .LVU258
 812 0050 1A68     		ldr	r2, [r3]
 813 0052 22F00202 		bic	r2, r2, #2
 814 0056 1A60     		str	r2, [r3]
1116:Drivers/STM32F4xx_HAL_Driver/Src/stm32f4xx_hal_can.c **** 
 815              		.loc 1 1116 5 view .LVU259
1116:Drivers/STM32F4xx_HAL_Driver/Src/stm32f4xx_hal_can.c **** 
 816              		.loc 1 1116 17 is_stmt 0 view .LVU260
 817 0058 0123     		movs	r3, #1
 818 005a 84F82030 		strb	r3, [r4, #32]
1119:Drivers/STM32F4xx_HAL_Driver/Src/stm32f4xx_hal_can.c ****   }
 819              		.loc 1 1119 5 is_stmt 1 view .LVU261
1119:Drivers/STM32F4xx_HAL_Driver/Src/stm32f4xx_hal_can.c ****   }
 820              		.loc 1 1119 12 is_stmt 0 view .LVU262
 821 005e 0020     		movs	r0, #0
 822 0060 DAE7     		b	.L70
 823              		.cfi_endproc
 824              	.LFE222:
 826              		.section	.text.HAL_CAN_DeInit,"ax",%progbits
 827              		.align	1
 828              		.global	HAL_CAN_DeInit
 829              		.syntax unified
 830              		.thumb
 831              		.thumb_func
 833              	HAL_CAN_DeInit:
ARM GAS  /tmp/ccrOzmIp.s 			page 39


 834              	.LVL44:
 835              	.LFB217:
 460:Drivers/STM32F4xx_HAL_Driver/Src/stm32f4xx_hal_can.c ****   /* Check CAN handle */
 836              		.loc 1 460 1 is_stmt 1 view -0
 837              		.cfi_startproc
 838              		@ args = 0, pretend = 0, frame = 0
 839              		@ frame_needed = 0, uses_anonymous_args = 0
 462:Drivers/STM32F4xx_HAL_Driver/Src/stm32f4xx_hal_can.c ****   {
 840              		.loc 1 462 3 view .LVU264
 462:Drivers/STM32F4xx_HAL_Driver/Src/stm32f4xx_hal_can.c ****   {
 841              		.loc 1 462 6 is_stmt 0 view .LVU265
 842 0000 80B1     		cbz	r0, .L77
 460:Drivers/STM32F4xx_HAL_Driver/Src/stm32f4xx_hal_can.c ****   /* Check CAN handle */
 843              		.loc 1 460 1 view .LVU266
 844 0002 10B5     		push	{r4, lr}
 845              	.LCFI7:
 846              		.cfi_def_cfa_offset 8
 847              		.cfi_offset 4, -8
 848              		.cfi_offset 14, -4
 849 0004 0446     		mov	r4, r0
 468:Drivers/STM32F4xx_HAL_Driver/Src/stm32f4xx_hal_can.c **** 
 850              		.loc 1 468 3 is_stmt 1 view .LVU267
 471:Drivers/STM32F4xx_HAL_Driver/Src/stm32f4xx_hal_can.c **** 
 851              		.loc 1 471 3 view .LVU268
 471:Drivers/STM32F4xx_HAL_Driver/Src/stm32f4xx_hal_can.c **** 
 852              		.loc 1 471 9 is_stmt 0 view .LVU269
 853 0006 FFF7FEFF 		bl	HAL_CAN_Stop
 854              	.LVL45:
 484:Drivers/STM32F4xx_HAL_Driver/Src/stm32f4xx_hal_can.c **** #endif /* (USE_HAL_CAN_REGISTER_CALLBACKS) */
 855              		.loc 1 484 3 is_stmt 1 view .LVU270
 856 000a 2046     		mov	r0, r4
 857 000c FFF7FEFF 		bl	HAL_CAN_MspDeInit
 858              	.LVL46:
 488:Drivers/STM32F4xx_HAL_Driver/Src/stm32f4xx_hal_can.c **** 
 859              		.loc 1 488 3 view .LVU271
 860 0010 2268     		ldr	r2, [r4]
 861 0012 1368     		ldr	r3, [r2]
 862 0014 43F40043 		orr	r3, r3, #32768
 863 0018 1360     		str	r3, [r2]
 491:Drivers/STM32F4xx_HAL_Driver/Src/stm32f4xx_hal_can.c **** 
 864              		.loc 1 491 3 view .LVU272
 491:Drivers/STM32F4xx_HAL_Driver/Src/stm32f4xx_hal_can.c **** 
 865              		.loc 1 491 19 is_stmt 0 view .LVU273
 866 001a 0020     		movs	r0, #0
 867 001c 6062     		str	r0, [r4, #36]
 494:Drivers/STM32F4xx_HAL_Driver/Src/stm32f4xx_hal_can.c **** 
 868              		.loc 1 494 3 is_stmt 1 view .LVU274
 494:Drivers/STM32F4xx_HAL_Driver/Src/stm32f4xx_hal_can.c **** 
 869              		.loc 1 494 15 is_stmt 0 view .LVU275
 870 001e 84F82000 		strb	r0, [r4, #32]
 497:Drivers/STM32F4xx_HAL_Driver/Src/stm32f4xx_hal_can.c **** }
 871              		.loc 1 497 3 is_stmt 1 view .LVU276
 498:Drivers/STM32F4xx_HAL_Driver/Src/stm32f4xx_hal_can.c **** 
 872              		.loc 1 498 1 is_stmt 0 view .LVU277
 873 0022 10BD     		pop	{r4, pc}
 874              	.LVL47:
 875              	.L77:
ARM GAS  /tmp/ccrOzmIp.s 			page 40


 876              	.LCFI8:
 877              		.cfi_def_cfa_offset 0
 878              		.cfi_restore 4
 879              		.cfi_restore 14
 464:Drivers/STM32F4xx_HAL_Driver/Src/stm32f4xx_hal_can.c ****   }
 880              		.loc 1 464 12 view .LVU278
 881 0024 0120     		movs	r0, #1
 882              	.LVL48:
 498:Drivers/STM32F4xx_HAL_Driver/Src/stm32f4xx_hal_can.c **** 
 883              		.loc 1 498 1 view .LVU279
 884 0026 7047     		bx	lr
 885              		.cfi_endproc
 886              	.LFE217:
 888              		.section	.text.HAL_CAN_RequestSleep,"ax",%progbits
 889              		.align	1
 890              		.global	HAL_CAN_RequestSleep
 891              		.syntax unified
 892              		.thumb
 893              		.thumb_func
 895              	HAL_CAN_RequestSleep:
 896              	.LVL49:
 897              	.LFB223:
1129:Drivers/STM32F4xx_HAL_Driver/Src/stm32f4xx_hal_can.c **** 
1130:Drivers/STM32F4xx_HAL_Driver/Src/stm32f4xx_hal_can.c **** /**
1131:Drivers/STM32F4xx_HAL_Driver/Src/stm32f4xx_hal_can.c ****   * @brief  Request the sleep mode (low power) entry.
1132:Drivers/STM32F4xx_HAL_Driver/Src/stm32f4xx_hal_can.c ****   *         When returning from this function, Sleep mode will be entered
1133:Drivers/STM32F4xx_HAL_Driver/Src/stm32f4xx_hal_can.c ****   *         as soon as the current CAN activity (transmission or reception
1134:Drivers/STM32F4xx_HAL_Driver/Src/stm32f4xx_hal_can.c ****   *         of a CAN frame) has been completed.
1135:Drivers/STM32F4xx_HAL_Driver/Src/stm32f4xx_hal_can.c ****   * @param  hcan pointer to a CAN_HandleTypeDef structure that contains
1136:Drivers/STM32F4xx_HAL_Driver/Src/stm32f4xx_hal_can.c ****   *         the configuration information for the specified CAN.
1137:Drivers/STM32F4xx_HAL_Driver/Src/stm32f4xx_hal_can.c ****   * @retval HAL status.
1138:Drivers/STM32F4xx_HAL_Driver/Src/stm32f4xx_hal_can.c ****   */
1139:Drivers/STM32F4xx_HAL_Driver/Src/stm32f4xx_hal_can.c **** HAL_StatusTypeDef HAL_CAN_RequestSleep(CAN_HandleTypeDef *hcan)
1140:Drivers/STM32F4xx_HAL_Driver/Src/stm32f4xx_hal_can.c **** {
 898              		.loc 1 1140 1 is_stmt 1 view -0
 899              		.cfi_startproc
 900              		@ args = 0, pretend = 0, frame = 0
 901              		@ frame_needed = 0, uses_anonymous_args = 0
 902              		@ link register save eliminated.
1141:Drivers/STM32F4xx_HAL_Driver/Src/stm32f4xx_hal_can.c ****   HAL_CAN_StateTypeDef state = hcan->State;
 903              		.loc 1 1141 3 view .LVU281
 904              		.loc 1 1141 24 is_stmt 0 view .LVU282
 905 0000 90F82030 		ldrb	r3, [r0, #32]	@ zero_extendqisi2
 906              	.LVL50:
1142:Drivers/STM32F4xx_HAL_Driver/Src/stm32f4xx_hal_can.c **** 
1143:Drivers/STM32F4xx_HAL_Driver/Src/stm32f4xx_hal_can.c ****   if ((state == HAL_CAN_STATE_READY) ||
 907              		.loc 1 1143 3 is_stmt 1 view .LVU283
 908              		.loc 1 1143 38 is_stmt 0 view .LVU284
 909 0004 013B     		subs	r3, r3, #1
 910              	.LVL51:
 911              		.loc 1 1143 38 view .LVU285
 912 0006 DBB2     		uxtb	r3, r3
 913              		.loc 1 1143 6 view .LVU286
 914 0008 012B     		cmp	r3, #1
 915 000a 05D9     		bls	.L85
1144:Drivers/STM32F4xx_HAL_Driver/Src/stm32f4xx_hal_can.c ****       (state == HAL_CAN_STATE_LISTENING))
1145:Drivers/STM32F4xx_HAL_Driver/Src/stm32f4xx_hal_can.c ****   {
ARM GAS  /tmp/ccrOzmIp.s 			page 41


1146:Drivers/STM32F4xx_HAL_Driver/Src/stm32f4xx_hal_can.c ****     /* Request Sleep mode */
1147:Drivers/STM32F4xx_HAL_Driver/Src/stm32f4xx_hal_can.c ****     SET_BIT(hcan->Instance->MCR, CAN_MCR_SLEEP);
1148:Drivers/STM32F4xx_HAL_Driver/Src/stm32f4xx_hal_can.c **** 
1149:Drivers/STM32F4xx_HAL_Driver/Src/stm32f4xx_hal_can.c ****     /* Return function status */
1150:Drivers/STM32F4xx_HAL_Driver/Src/stm32f4xx_hal_can.c ****     return HAL_OK;
1151:Drivers/STM32F4xx_HAL_Driver/Src/stm32f4xx_hal_can.c ****   }
1152:Drivers/STM32F4xx_HAL_Driver/Src/stm32f4xx_hal_can.c ****   else
1153:Drivers/STM32F4xx_HAL_Driver/Src/stm32f4xx_hal_can.c ****   {
1154:Drivers/STM32F4xx_HAL_Driver/Src/stm32f4xx_hal_can.c ****     /* Update error code */
1155:Drivers/STM32F4xx_HAL_Driver/Src/stm32f4xx_hal_can.c ****     hcan->ErrorCode |= HAL_CAN_ERROR_NOT_INITIALIZED;
 916              		.loc 1 1155 5 is_stmt 1 view .LVU287
 917              		.loc 1 1155 21 is_stmt 0 view .LVU288
 918 000c 436A     		ldr	r3, [r0, #36]
 919 000e 43F48023 		orr	r3, r3, #262144
 920 0012 4362     		str	r3, [r0, #36]
1156:Drivers/STM32F4xx_HAL_Driver/Src/stm32f4xx_hal_can.c **** 
1157:Drivers/STM32F4xx_HAL_Driver/Src/stm32f4xx_hal_can.c ****     /* Return function status */
1158:Drivers/STM32F4xx_HAL_Driver/Src/stm32f4xx_hal_can.c ****     return HAL_ERROR;
 921              		.loc 1 1158 5 is_stmt 1 view .LVU289
 922              		.loc 1 1158 12 is_stmt 0 view .LVU290
 923 0014 0120     		movs	r0, #1
 924              	.LVL52:
1159:Drivers/STM32F4xx_HAL_Driver/Src/stm32f4xx_hal_can.c ****   }
1160:Drivers/STM32F4xx_HAL_Driver/Src/stm32f4xx_hal_can.c **** }
 925              		.loc 1 1160 1 view .LVU291
 926 0016 7047     		bx	lr
 927              	.LVL53:
 928              	.L85:
1147:Drivers/STM32F4xx_HAL_Driver/Src/stm32f4xx_hal_can.c **** 
 929              		.loc 1 1147 5 is_stmt 1 view .LVU292
 930 0018 0268     		ldr	r2, [r0]
 931 001a 1368     		ldr	r3, [r2]
 932 001c 43F00203 		orr	r3, r3, #2
 933 0020 1360     		str	r3, [r2]
1150:Drivers/STM32F4xx_HAL_Driver/Src/stm32f4xx_hal_can.c ****   }
 934              		.loc 1 1150 5 view .LVU293
1150:Drivers/STM32F4xx_HAL_Driver/Src/stm32f4xx_hal_can.c ****   }
 935              		.loc 1 1150 12 is_stmt 0 view .LVU294
 936 0022 0020     		movs	r0, #0
 937              	.LVL54:
1150:Drivers/STM32F4xx_HAL_Driver/Src/stm32f4xx_hal_can.c ****   }
 938              		.loc 1 1150 12 view .LVU295
 939 0024 7047     		bx	lr
 940              		.cfi_endproc
 941              	.LFE223:
 943              		.section	.text.HAL_CAN_WakeUp,"ax",%progbits
 944              		.align	1
 945              		.global	HAL_CAN_WakeUp
 946              		.syntax unified
 947              		.thumb
 948              		.thumb_func
 950              	HAL_CAN_WakeUp:
 951              	.LVL55:
 952              	.LFB224:
1161:Drivers/STM32F4xx_HAL_Driver/Src/stm32f4xx_hal_can.c **** 
1162:Drivers/STM32F4xx_HAL_Driver/Src/stm32f4xx_hal_can.c **** /**
1163:Drivers/STM32F4xx_HAL_Driver/Src/stm32f4xx_hal_can.c ****   * @brief  Wake up from sleep mode.
ARM GAS  /tmp/ccrOzmIp.s 			page 42


1164:Drivers/STM32F4xx_HAL_Driver/Src/stm32f4xx_hal_can.c ****   *         When returning with HAL_OK status from this function, Sleep mode
1165:Drivers/STM32F4xx_HAL_Driver/Src/stm32f4xx_hal_can.c ****   *         is exited.
1166:Drivers/STM32F4xx_HAL_Driver/Src/stm32f4xx_hal_can.c ****   * @param  hcan pointer to a CAN_HandleTypeDef structure that contains
1167:Drivers/STM32F4xx_HAL_Driver/Src/stm32f4xx_hal_can.c ****   *         the configuration information for the specified CAN.
1168:Drivers/STM32F4xx_HAL_Driver/Src/stm32f4xx_hal_can.c ****   * @retval HAL status.
1169:Drivers/STM32F4xx_HAL_Driver/Src/stm32f4xx_hal_can.c ****   */
1170:Drivers/STM32F4xx_HAL_Driver/Src/stm32f4xx_hal_can.c **** HAL_StatusTypeDef HAL_CAN_WakeUp(CAN_HandleTypeDef *hcan)
1171:Drivers/STM32F4xx_HAL_Driver/Src/stm32f4xx_hal_can.c **** {
 953              		.loc 1 1171 1 is_stmt 1 view -0
 954              		.cfi_startproc
 955              		@ args = 0, pretend = 0, frame = 8
 956              		@ frame_needed = 0, uses_anonymous_args = 0
 957              		@ link register save eliminated.
 958              		.loc 1 1171 1 is_stmt 0 view .LVU297
 959 0000 82B0     		sub	sp, sp, #8
 960              	.LCFI9:
 961              		.cfi_def_cfa_offset 8
1172:Drivers/STM32F4xx_HAL_Driver/Src/stm32f4xx_hal_can.c ****   __IO uint32_t count = 0;
 962              		.loc 1 1172 3 is_stmt 1 view .LVU298
 963              		.loc 1 1172 17 is_stmt 0 view .LVU299
 964 0002 0023     		movs	r3, #0
 965 0004 0193     		str	r3, [sp, #4]
1173:Drivers/STM32F4xx_HAL_Driver/Src/stm32f4xx_hal_can.c ****   uint32_t timeout = 1000000U;
 966              		.loc 1 1173 3 is_stmt 1 view .LVU300
 967              	.LVL56:
1174:Drivers/STM32F4xx_HAL_Driver/Src/stm32f4xx_hal_can.c ****   HAL_CAN_StateTypeDef state = hcan->State;
 968              		.loc 1 1174 3 view .LVU301
 969              		.loc 1 1174 24 is_stmt 0 view .LVU302
 970 0006 90F82030 		ldrb	r3, [r0, #32]	@ zero_extendqisi2
 971              	.LVL57:
1175:Drivers/STM32F4xx_HAL_Driver/Src/stm32f4xx_hal_can.c **** 
1176:Drivers/STM32F4xx_HAL_Driver/Src/stm32f4xx_hal_can.c ****   if ((state == HAL_CAN_STATE_READY) ||
 972              		.loc 1 1176 3 is_stmt 1 view .LVU303
 973              		.loc 1 1176 38 is_stmt 0 view .LVU304
 974 000a 013B     		subs	r3, r3, #1
 975              	.LVL58:
 976              		.loc 1 1176 38 view .LVU305
 977 000c DBB2     		uxtb	r3, r3
 978              		.loc 1 1176 6 view .LVU306
 979 000e 012B     		cmp	r3, #1
 980 0010 18D8     		bhi	.L87
1177:Drivers/STM32F4xx_HAL_Driver/Src/stm32f4xx_hal_can.c ****       (state == HAL_CAN_STATE_LISTENING))
1178:Drivers/STM32F4xx_HAL_Driver/Src/stm32f4xx_hal_can.c ****   {
1179:Drivers/STM32F4xx_HAL_Driver/Src/stm32f4xx_hal_can.c ****     /* Wake up request */
1180:Drivers/STM32F4xx_HAL_Driver/Src/stm32f4xx_hal_can.c ****     CLEAR_BIT(hcan->Instance->MCR, CAN_MCR_SLEEP);
 981              		.loc 1 1180 5 is_stmt 1 view .LVU307
 982 0012 0268     		ldr	r2, [r0]
 983 0014 1368     		ldr	r3, [r2]
 984 0016 23F00203 		bic	r3, r3, #2
 985 001a 1360     		str	r3, [r2]
 986              	.L90:
1181:Drivers/STM32F4xx_HAL_Driver/Src/stm32f4xx_hal_can.c **** 
1182:Drivers/STM32F4xx_HAL_Driver/Src/stm32f4xx_hal_can.c ****     /* Wait sleep mode is exited */
1183:Drivers/STM32F4xx_HAL_Driver/Src/stm32f4xx_hal_can.c ****     do
 987              		.loc 1 1183 5 view .LVU308
1184:Drivers/STM32F4xx_HAL_Driver/Src/stm32f4xx_hal_can.c ****     {
1185:Drivers/STM32F4xx_HAL_Driver/Src/stm32f4xx_hal_can.c ****       /* Increment counter */
ARM GAS  /tmp/ccrOzmIp.s 			page 43


1186:Drivers/STM32F4xx_HAL_Driver/Src/stm32f4xx_hal_can.c ****       count++;
 988              		.loc 1 1186 7 view .LVU309
 989              		.loc 1 1186 12 is_stmt 0 view .LVU310
 990 001c 019B     		ldr	r3, [sp, #4]
 991 001e 0133     		adds	r3, r3, #1
 992 0020 0193     		str	r3, [sp, #4]
1187:Drivers/STM32F4xx_HAL_Driver/Src/stm32f4xx_hal_can.c **** 
1188:Drivers/STM32F4xx_HAL_Driver/Src/stm32f4xx_hal_can.c ****       /* Check if timeout is reached */
1189:Drivers/STM32F4xx_HAL_Driver/Src/stm32f4xx_hal_can.c ****       if (count > timeout)
 993              		.loc 1 1189 7 is_stmt 1 view .LVU311
 994              		.loc 1 1189 17 is_stmt 0 view .LVU312
 995 0022 019A     		ldr	r2, [sp, #4]
 996              		.loc 1 1189 10 view .LVU313
 997 0024 0B4B     		ldr	r3, .L93
 998 0026 9A42     		cmp	r2, r3
 999 0028 06D8     		bhi	.L92
1190:Drivers/STM32F4xx_HAL_Driver/Src/stm32f4xx_hal_can.c ****       {
1191:Drivers/STM32F4xx_HAL_Driver/Src/stm32f4xx_hal_can.c ****         /* Update error code */
1192:Drivers/STM32F4xx_HAL_Driver/Src/stm32f4xx_hal_can.c ****         hcan->ErrorCode |= HAL_CAN_ERROR_TIMEOUT;
1193:Drivers/STM32F4xx_HAL_Driver/Src/stm32f4xx_hal_can.c **** 
1194:Drivers/STM32F4xx_HAL_Driver/Src/stm32f4xx_hal_can.c ****         return HAL_ERROR;
1195:Drivers/STM32F4xx_HAL_Driver/Src/stm32f4xx_hal_can.c ****       }
1196:Drivers/STM32F4xx_HAL_Driver/Src/stm32f4xx_hal_can.c ****     }
1197:Drivers/STM32F4xx_HAL_Driver/Src/stm32f4xx_hal_can.c ****     while ((hcan->Instance->MSR & CAN_MSR_SLAK) != 0U);
 1000              		.loc 1 1197 49 is_stmt 1 view .LVU314
 1001              		.loc 1 1197 17 is_stmt 0 view .LVU315
 1002 002a 0368     		ldr	r3, [r0]
 1003              		.loc 1 1197 27 view .LVU316
 1004 002c 5B68     		ldr	r3, [r3, #4]
 1005              		.loc 1 1197 49 view .LVU317
 1006 002e 13F0020F 		tst	r3, #2
 1007 0032 F3D1     		bne	.L90
1198:Drivers/STM32F4xx_HAL_Driver/Src/stm32f4xx_hal_can.c **** 
1199:Drivers/STM32F4xx_HAL_Driver/Src/stm32f4xx_hal_can.c ****     /* Return function status */
1200:Drivers/STM32F4xx_HAL_Driver/Src/stm32f4xx_hal_can.c ****     return HAL_OK;
 1008              		.loc 1 1200 12 view .LVU318
 1009 0034 0020     		movs	r0, #0
 1010              	.LVL59:
 1011              		.loc 1 1200 12 view .LVU319
 1012 0036 0AE0     		b	.L89
 1013              	.LVL60:
 1014              	.L92:
1192:Drivers/STM32F4xx_HAL_Driver/Src/stm32f4xx_hal_can.c **** 
 1015              		.loc 1 1192 9 is_stmt 1 view .LVU320
1192:Drivers/STM32F4xx_HAL_Driver/Src/stm32f4xx_hal_can.c **** 
 1016              		.loc 1 1192 25 is_stmt 0 view .LVU321
 1017 0038 436A     		ldr	r3, [r0, #36]
 1018 003a 43F40033 		orr	r3, r3, #131072
 1019 003e 4362     		str	r3, [r0, #36]
1194:Drivers/STM32F4xx_HAL_Driver/Src/stm32f4xx_hal_can.c ****       }
 1020              		.loc 1 1194 9 is_stmt 1 view .LVU322
1194:Drivers/STM32F4xx_HAL_Driver/Src/stm32f4xx_hal_can.c ****       }
 1021              		.loc 1 1194 16 is_stmt 0 view .LVU323
 1022 0040 0120     		movs	r0, #1
 1023              	.LVL61:
1194:Drivers/STM32F4xx_HAL_Driver/Src/stm32f4xx_hal_can.c ****       }
 1024              		.loc 1 1194 16 view .LVU324
ARM GAS  /tmp/ccrOzmIp.s 			page 44


 1025 0042 04E0     		b	.L89
 1026              	.LVL62:
 1027              	.L87:
1201:Drivers/STM32F4xx_HAL_Driver/Src/stm32f4xx_hal_can.c ****   }
1202:Drivers/STM32F4xx_HAL_Driver/Src/stm32f4xx_hal_can.c ****   else
1203:Drivers/STM32F4xx_HAL_Driver/Src/stm32f4xx_hal_can.c ****   {
1204:Drivers/STM32F4xx_HAL_Driver/Src/stm32f4xx_hal_can.c ****     /* Update error code */
1205:Drivers/STM32F4xx_HAL_Driver/Src/stm32f4xx_hal_can.c ****     hcan->ErrorCode |= HAL_CAN_ERROR_NOT_INITIALIZED;
 1028              		.loc 1 1205 5 is_stmt 1 view .LVU325
 1029              		.loc 1 1205 21 is_stmt 0 view .LVU326
 1030 0044 436A     		ldr	r3, [r0, #36]
 1031 0046 43F48023 		orr	r3, r3, #262144
 1032 004a 4362     		str	r3, [r0, #36]
1206:Drivers/STM32F4xx_HAL_Driver/Src/stm32f4xx_hal_can.c **** 
1207:Drivers/STM32F4xx_HAL_Driver/Src/stm32f4xx_hal_can.c ****     return HAL_ERROR;
 1033              		.loc 1 1207 5 is_stmt 1 view .LVU327
 1034              		.loc 1 1207 12 is_stmt 0 view .LVU328
 1035 004c 0120     		movs	r0, #1
 1036              	.LVL63:
 1037              	.L89:
1208:Drivers/STM32F4xx_HAL_Driver/Src/stm32f4xx_hal_can.c ****   }
1209:Drivers/STM32F4xx_HAL_Driver/Src/stm32f4xx_hal_can.c **** }
 1038              		.loc 1 1209 1 view .LVU329
 1039 004e 02B0     		add	sp, sp, #8
 1040              	.LCFI10:
 1041              		.cfi_def_cfa_offset 0
 1042              		@ sp needed
 1043 0050 7047     		bx	lr
 1044              	.L94:
 1045 0052 00BF     		.align	2
 1046              	.L93:
 1047 0054 40420F00 		.word	1000000
 1048              		.cfi_endproc
 1049              	.LFE224:
 1051              		.section	.text.HAL_CAN_IsSleepActive,"ax",%progbits
 1052              		.align	1
 1053              		.global	HAL_CAN_IsSleepActive
 1054              		.syntax unified
 1055              		.thumb
 1056              		.thumb_func
 1058              	HAL_CAN_IsSleepActive:
 1059              	.LVL64:
 1060              	.LFB225:
1210:Drivers/STM32F4xx_HAL_Driver/Src/stm32f4xx_hal_can.c **** 
1211:Drivers/STM32F4xx_HAL_Driver/Src/stm32f4xx_hal_can.c **** /**
1212:Drivers/STM32F4xx_HAL_Driver/Src/stm32f4xx_hal_can.c ****   * @brief  Check is sleep mode is active.
1213:Drivers/STM32F4xx_HAL_Driver/Src/stm32f4xx_hal_can.c ****   * @param  hcan pointer to a CAN_HandleTypeDef structure that contains
1214:Drivers/STM32F4xx_HAL_Driver/Src/stm32f4xx_hal_can.c ****   *         the configuration information for the specified CAN.
1215:Drivers/STM32F4xx_HAL_Driver/Src/stm32f4xx_hal_can.c ****   * @retval Status
1216:Drivers/STM32F4xx_HAL_Driver/Src/stm32f4xx_hal_can.c ****   *          - 0 : Sleep mode is not active.
1217:Drivers/STM32F4xx_HAL_Driver/Src/stm32f4xx_hal_can.c ****   *          - 1 : Sleep mode is active.
1218:Drivers/STM32F4xx_HAL_Driver/Src/stm32f4xx_hal_can.c ****   */
1219:Drivers/STM32F4xx_HAL_Driver/Src/stm32f4xx_hal_can.c **** uint32_t HAL_CAN_IsSleepActive(CAN_HandleTypeDef *hcan)
1220:Drivers/STM32F4xx_HAL_Driver/Src/stm32f4xx_hal_can.c **** {
 1061              		.loc 1 1220 1 is_stmt 1 view -0
 1062              		.cfi_startproc
 1063              		@ args = 0, pretend = 0, frame = 0
ARM GAS  /tmp/ccrOzmIp.s 			page 45


 1064              		@ frame_needed = 0, uses_anonymous_args = 0
 1065              		@ link register save eliminated.
1221:Drivers/STM32F4xx_HAL_Driver/Src/stm32f4xx_hal_can.c ****   uint32_t status = 0U;
 1066              		.loc 1 1221 3 view .LVU331
1222:Drivers/STM32F4xx_HAL_Driver/Src/stm32f4xx_hal_can.c ****   HAL_CAN_StateTypeDef state = hcan->State;
 1067              		.loc 1 1222 3 view .LVU332
 1068              		.loc 1 1222 24 is_stmt 0 view .LVU333
 1069 0000 90F82030 		ldrb	r3, [r0, #32]	@ zero_extendqisi2
 1070              	.LVL65:
1223:Drivers/STM32F4xx_HAL_Driver/Src/stm32f4xx_hal_can.c **** 
1224:Drivers/STM32F4xx_HAL_Driver/Src/stm32f4xx_hal_can.c ****   if ((state == HAL_CAN_STATE_READY) ||
 1071              		.loc 1 1224 3 is_stmt 1 view .LVU334
 1072              		.loc 1 1224 38 is_stmt 0 view .LVU335
 1073 0004 013B     		subs	r3, r3, #1
 1074              	.LVL66:
 1075              		.loc 1 1224 38 view .LVU336
 1076 0006 DBB2     		uxtb	r3, r3
 1077              		.loc 1 1224 6 view .LVU337
 1078 0008 012B     		cmp	r3, #1
 1079 000a 01D9     		bls	.L99
1221:Drivers/STM32F4xx_HAL_Driver/Src/stm32f4xx_hal_can.c ****   HAL_CAN_StateTypeDef state = hcan->State;
 1080              		.loc 1 1221 12 view .LVU338
 1081 000c 0020     		movs	r0, #0
 1082              	.LVL67:
1221:Drivers/STM32F4xx_HAL_Driver/Src/stm32f4xx_hal_can.c ****   HAL_CAN_StateTypeDef state = hcan->State;
 1083              		.loc 1 1221 12 view .LVU339
 1084 000e 7047     		bx	lr
 1085              	.LVL68:
 1086              	.L99:
1225:Drivers/STM32F4xx_HAL_Driver/Src/stm32f4xx_hal_can.c ****       (state == HAL_CAN_STATE_LISTENING))
1226:Drivers/STM32F4xx_HAL_Driver/Src/stm32f4xx_hal_can.c ****   {
1227:Drivers/STM32F4xx_HAL_Driver/Src/stm32f4xx_hal_can.c ****     /* Check Sleep mode */
1228:Drivers/STM32F4xx_HAL_Driver/Src/stm32f4xx_hal_can.c ****     if ((hcan->Instance->MSR & CAN_MSR_SLAK) != 0U)
 1087              		.loc 1 1228 5 is_stmt 1 view .LVU340
 1088              		.loc 1 1228 14 is_stmt 0 view .LVU341
 1089 0010 0368     		ldr	r3, [r0]
 1090              		.loc 1 1228 24 view .LVU342
 1091 0012 5868     		ldr	r0, [r3, #4]
 1092              	.LVL69:
 1093              		.loc 1 1228 8 view .LVU343
 1094 0014 10F00200 		ands	r0, r0, #2
 1095 0018 00D1     		bne	.L98
 1096 001a 7047     		bx	lr
 1097              	.L98:
1229:Drivers/STM32F4xx_HAL_Driver/Src/stm32f4xx_hal_can.c ****     {
1230:Drivers/STM32F4xx_HAL_Driver/Src/stm32f4xx_hal_can.c ****       status = 1U;
 1098              		.loc 1 1230 14 view .LVU344
 1099 001c 0120     		movs	r0, #1
 1100              	.LVL70:
1231:Drivers/STM32F4xx_HAL_Driver/Src/stm32f4xx_hal_can.c ****     }
1232:Drivers/STM32F4xx_HAL_Driver/Src/stm32f4xx_hal_can.c ****   }
1233:Drivers/STM32F4xx_HAL_Driver/Src/stm32f4xx_hal_can.c **** 
1234:Drivers/STM32F4xx_HAL_Driver/Src/stm32f4xx_hal_can.c ****   /* Return function status */
1235:Drivers/STM32F4xx_HAL_Driver/Src/stm32f4xx_hal_can.c ****   return status;
 1101              		.loc 1 1235 3 is_stmt 1 view .LVU345
1236:Drivers/STM32F4xx_HAL_Driver/Src/stm32f4xx_hal_can.c **** }
 1102              		.loc 1 1236 1 is_stmt 0 view .LVU346
ARM GAS  /tmp/ccrOzmIp.s 			page 46


 1103 001e 7047     		bx	lr
 1104              		.cfi_endproc
 1105              	.LFE225:
 1107              		.section	.text.HAL_CAN_AddTxMessage,"ax",%progbits
 1108              		.align	1
 1109              		.global	HAL_CAN_AddTxMessage
 1110              		.syntax unified
 1111              		.thumb
 1112              		.thumb_func
 1114              	HAL_CAN_AddTxMessage:
 1115              	.LVL71:
 1116              	.LFB226:
1237:Drivers/STM32F4xx_HAL_Driver/Src/stm32f4xx_hal_can.c **** 
1238:Drivers/STM32F4xx_HAL_Driver/Src/stm32f4xx_hal_can.c **** /**
1239:Drivers/STM32F4xx_HAL_Driver/Src/stm32f4xx_hal_can.c ****   * @brief  Add a message to the first free Tx mailbox and activate the
1240:Drivers/STM32F4xx_HAL_Driver/Src/stm32f4xx_hal_can.c ****   *         corresponding transmission request.
1241:Drivers/STM32F4xx_HAL_Driver/Src/stm32f4xx_hal_can.c ****   * @param  hcan pointer to a CAN_HandleTypeDef structure that contains
1242:Drivers/STM32F4xx_HAL_Driver/Src/stm32f4xx_hal_can.c ****   *         the configuration information for the specified CAN.
1243:Drivers/STM32F4xx_HAL_Driver/Src/stm32f4xx_hal_can.c ****   * @param  pHeader pointer to a CAN_TxHeaderTypeDef structure.
1244:Drivers/STM32F4xx_HAL_Driver/Src/stm32f4xx_hal_can.c ****   * @param  aData array containing the payload of the Tx frame.
1245:Drivers/STM32F4xx_HAL_Driver/Src/stm32f4xx_hal_can.c ****   * @param  pTxMailbox pointer to a variable where the function will return
1246:Drivers/STM32F4xx_HAL_Driver/Src/stm32f4xx_hal_can.c ****   *         the TxMailbox used to store the Tx message.
1247:Drivers/STM32F4xx_HAL_Driver/Src/stm32f4xx_hal_can.c ****   *         This parameter can be a value of @arg CAN_Tx_Mailboxes.
1248:Drivers/STM32F4xx_HAL_Driver/Src/stm32f4xx_hal_can.c ****   * @retval HAL status
1249:Drivers/STM32F4xx_HAL_Driver/Src/stm32f4xx_hal_can.c ****   */
1250:Drivers/STM32F4xx_HAL_Driver/Src/stm32f4xx_hal_can.c **** HAL_StatusTypeDef HAL_CAN_AddTxMessage(CAN_HandleTypeDef *hcan, CAN_TxHeaderTypeDef *pHeader, uint8
1251:Drivers/STM32F4xx_HAL_Driver/Src/stm32f4xx_hal_can.c **** {
 1117              		.loc 1 1251 1 is_stmt 1 view -0
 1118              		.cfi_startproc
 1119              		@ args = 0, pretend = 0, frame = 0
 1120              		@ frame_needed = 0, uses_anonymous_args = 0
 1121              		.loc 1 1251 1 is_stmt 0 view .LVU348
 1122 0000 30B5     		push	{r4, r5, lr}
 1123              	.LCFI11:
 1124              		.cfi_def_cfa_offset 12
 1125              		.cfi_offset 4, -12
 1126              		.cfi_offset 5, -8
 1127              		.cfi_offset 14, -4
1252:Drivers/STM32F4xx_HAL_Driver/Src/stm32f4xx_hal_can.c ****   uint32_t transmitmailbox;
 1128              		.loc 1 1252 3 is_stmt 1 view .LVU349
1253:Drivers/STM32F4xx_HAL_Driver/Src/stm32f4xx_hal_can.c ****   HAL_CAN_StateTypeDef state = hcan->State;
 1129              		.loc 1 1253 3 view .LVU350
 1130              		.loc 1 1253 24 is_stmt 0 view .LVU351
 1131 0002 90F820C0 		ldrb	ip, [r0, #32]	@ zero_extendqisi2
 1132              	.LVL72:
1254:Drivers/STM32F4xx_HAL_Driver/Src/stm32f4xx_hal_can.c ****   uint32_t tsr = READ_REG(hcan->Instance->TSR);
 1133              		.loc 1 1254 3 is_stmt 1 view .LVU352
 1134              		.loc 1 1254 12 is_stmt 0 view .LVU353
 1135 0006 0468     		ldr	r4, [r0]
 1136 0008 A468     		ldr	r4, [r4, #8]
 1137              	.LVL73:
1255:Drivers/STM32F4xx_HAL_Driver/Src/stm32f4xx_hal_can.c **** 
1256:Drivers/STM32F4xx_HAL_Driver/Src/stm32f4xx_hal_can.c ****   /* Check the parameters */
1257:Drivers/STM32F4xx_HAL_Driver/Src/stm32f4xx_hal_can.c ****   assert_param(IS_CAN_IDTYPE(pHeader->IDE));
 1138              		.loc 1 1257 3 is_stmt 1 view .LVU354
1258:Drivers/STM32F4xx_HAL_Driver/Src/stm32f4xx_hal_can.c ****   assert_param(IS_CAN_RTR(pHeader->RTR));
 1139              		.loc 1 1258 3 view .LVU355
ARM GAS  /tmp/ccrOzmIp.s 			page 47


1259:Drivers/STM32F4xx_HAL_Driver/Src/stm32f4xx_hal_can.c ****   assert_param(IS_CAN_DLC(pHeader->DLC));
 1140              		.loc 1 1259 3 view .LVU356
1260:Drivers/STM32F4xx_HAL_Driver/Src/stm32f4xx_hal_can.c ****   if (pHeader->IDE == CAN_ID_STD)
 1141              		.loc 1 1260 3 view .LVU357
1261:Drivers/STM32F4xx_HAL_Driver/Src/stm32f4xx_hal_can.c ****   {
1262:Drivers/STM32F4xx_HAL_Driver/Src/stm32f4xx_hal_can.c ****     assert_param(IS_CAN_STDID(pHeader->StdId));
1263:Drivers/STM32F4xx_HAL_Driver/Src/stm32f4xx_hal_can.c ****   }
1264:Drivers/STM32F4xx_HAL_Driver/Src/stm32f4xx_hal_can.c ****   else
1265:Drivers/STM32F4xx_HAL_Driver/Src/stm32f4xx_hal_can.c ****   {
1266:Drivers/STM32F4xx_HAL_Driver/Src/stm32f4xx_hal_can.c ****     assert_param(IS_CAN_EXTID(pHeader->ExtId));
 1142              		.loc 1 1266 5 view .LVU358
1267:Drivers/STM32F4xx_HAL_Driver/Src/stm32f4xx_hal_can.c ****   }
1268:Drivers/STM32F4xx_HAL_Driver/Src/stm32f4xx_hal_can.c ****   assert_param(IS_FUNCTIONAL_STATE(pHeader->TransmitGlobalTime));
 1143              		.loc 1 1268 3 view .LVU359
1269:Drivers/STM32F4xx_HAL_Driver/Src/stm32f4xx_hal_can.c **** 
1270:Drivers/STM32F4xx_HAL_Driver/Src/stm32f4xx_hal_can.c ****   if ((state == HAL_CAN_STATE_READY) ||
 1144              		.loc 1 1270 3 view .LVU360
 1145              		.loc 1 1270 38 is_stmt 0 view .LVU361
 1146 000a 0CF1FF3C 		add	ip, ip, #-1
 1147              	.LVL74:
 1148              		.loc 1 1270 38 view .LVU362
 1149 000e 5FFA8CFC 		uxtb	ip, ip
 1150              		.loc 1 1270 6 view .LVU363
 1151 0012 BCF1010F 		cmp	ip, #1
 1152 0016 6BD8     		bhi	.L101
1271:Drivers/STM32F4xx_HAL_Driver/Src/stm32f4xx_hal_can.c ****       (state == HAL_CAN_STATE_LISTENING))
1272:Drivers/STM32F4xx_HAL_Driver/Src/stm32f4xx_hal_can.c ****   {
1273:Drivers/STM32F4xx_HAL_Driver/Src/stm32f4xx_hal_can.c ****     /* Check that all the Tx mailboxes are not full */
1274:Drivers/STM32F4xx_HAL_Driver/Src/stm32f4xx_hal_can.c ****     if (((tsr & CAN_TSR_TME0) != 0U) ||
 1153              		.loc 1 1274 5 is_stmt 1 view .LVU364
 1154              		.loc 1 1274 8 is_stmt 0 view .LVU365
 1155 0018 14F0E05F 		tst	r4, #469762048
 1156 001c 62D0     		beq	.L102
1275:Drivers/STM32F4xx_HAL_Driver/Src/stm32f4xx_hal_can.c ****         ((tsr & CAN_TSR_TME1) != 0U) ||
1276:Drivers/STM32F4xx_HAL_Driver/Src/stm32f4xx_hal_can.c ****         ((tsr & CAN_TSR_TME2) != 0U))
1277:Drivers/STM32F4xx_HAL_Driver/Src/stm32f4xx_hal_can.c ****     {
1278:Drivers/STM32F4xx_HAL_Driver/Src/stm32f4xx_hal_can.c ****       /* Select an empty transmit mailbox */
1279:Drivers/STM32F4xx_HAL_Driver/Src/stm32f4xx_hal_can.c ****       transmitmailbox = (tsr & CAN_TSR_CODE) >> CAN_TSR_CODE_Pos;
 1157              		.loc 1 1279 7 is_stmt 1 view .LVU366
 1158              		.loc 1 1279 23 is_stmt 0 view .LVU367
 1159 001e C4F3016C 		ubfx	ip, r4, #24, #2
 1160              	.LVL75:
1280:Drivers/STM32F4xx_HAL_Driver/Src/stm32f4xx_hal_can.c **** 
1281:Drivers/STM32F4xx_HAL_Driver/Src/stm32f4xx_hal_can.c ****       /* Check transmit mailbox value */
1282:Drivers/STM32F4xx_HAL_Driver/Src/stm32f4xx_hal_can.c ****       if (transmitmailbox > 2U)
 1161              		.loc 1 1282 7 is_stmt 1 view .LVU368
 1162              		.loc 1 1282 10 is_stmt 0 view .LVU369
 1163 0022 BCF1020F 		cmp	ip, #2
 1164 0026 05D9     		bls	.L103
1283:Drivers/STM32F4xx_HAL_Driver/Src/stm32f4xx_hal_can.c ****       {
1284:Drivers/STM32F4xx_HAL_Driver/Src/stm32f4xx_hal_can.c ****         /* Update error code */
1285:Drivers/STM32F4xx_HAL_Driver/Src/stm32f4xx_hal_can.c ****         hcan->ErrorCode |= HAL_CAN_ERROR_INTERNAL;
 1165              		.loc 1 1285 9 is_stmt 1 view .LVU370
 1166              		.loc 1 1285 25 is_stmt 0 view .LVU371
 1167 0028 436A     		ldr	r3, [r0, #36]
 1168              	.LVL76:
 1169              		.loc 1 1285 25 view .LVU372
ARM GAS  /tmp/ccrOzmIp.s 			page 48


 1170 002a 43F40003 		orr	r3, r3, #8388608
 1171 002e 4362     		str	r3, [r0, #36]
1286:Drivers/STM32F4xx_HAL_Driver/Src/stm32f4xx_hal_can.c **** 
1287:Drivers/STM32F4xx_HAL_Driver/Src/stm32f4xx_hal_can.c ****         return HAL_ERROR;
 1172              		.loc 1 1287 9 is_stmt 1 view .LVU373
 1173              		.loc 1 1287 16 is_stmt 0 view .LVU374
 1174 0030 0120     		movs	r0, #1
 1175              	.LVL77:
 1176              		.loc 1 1287 16 view .LVU375
 1177 0032 62E0     		b	.L104
 1178              	.LVL78:
 1179              	.L103:
1288:Drivers/STM32F4xx_HAL_Driver/Src/stm32f4xx_hal_can.c ****       }
1289:Drivers/STM32F4xx_HAL_Driver/Src/stm32f4xx_hal_can.c **** 
1290:Drivers/STM32F4xx_HAL_Driver/Src/stm32f4xx_hal_can.c ****       /* Store the Tx mailbox */
1291:Drivers/STM32F4xx_HAL_Driver/Src/stm32f4xx_hal_can.c ****       *pTxMailbox = (uint32_t)1 << transmitmailbox;
 1180              		.loc 1 1291 7 is_stmt 1 view .LVU376
 1181              		.loc 1 1291 33 is_stmt 0 view .LVU377
 1182 0034 0124     		movs	r4, #1
 1183              	.LVL79:
 1184              		.loc 1 1291 33 view .LVU378
 1185 0036 04FA0CF4 		lsl	r4, r4, ip
 1186              		.loc 1 1291 19 view .LVU379
 1187 003a 1C60     		str	r4, [r3]
1292:Drivers/STM32F4xx_HAL_Driver/Src/stm32f4xx_hal_can.c **** 
1293:Drivers/STM32F4xx_HAL_Driver/Src/stm32f4xx_hal_can.c ****       /* Set up the Id */
1294:Drivers/STM32F4xx_HAL_Driver/Src/stm32f4xx_hal_can.c ****       if (pHeader->IDE == CAN_ID_STD)
 1188              		.loc 1 1294 7 is_stmt 1 view .LVU380
 1189              		.loc 1 1294 18 is_stmt 0 view .LVU381
 1190 003c 8B68     		ldr	r3, [r1, #8]
 1191              	.LVL80:
 1192              		.loc 1 1294 10 view .LVU382
 1193 003e 002B     		cmp	r3, #0
 1194 0040 3DD1     		bne	.L105
1295:Drivers/STM32F4xx_HAL_Driver/Src/stm32f4xx_hal_can.c ****       {
1296:Drivers/STM32F4xx_HAL_Driver/Src/stm32f4xx_hal_can.c ****         hcan->Instance->sTxMailBox[transmitmailbox].TIR = ((pHeader->StdId << CAN_TI0R_STID_Pos) |
 1195              		.loc 1 1296 9 is_stmt 1 view .LVU383
 1196              		.loc 1 1296 68 is_stmt 0 view .LVU384
 1197 0042 0D68     		ldr	r5, [r1]
1297:Drivers/STM32F4xx_HAL_Driver/Src/stm32f4xx_hal_can.c ****                                                            pHeader->RTR);
 1198              		.loc 1 1297 67 view .LVU385
 1199 0044 CB68     		ldr	r3, [r1, #12]
1296:Drivers/STM32F4xx_HAL_Driver/Src/stm32f4xx_hal_can.c ****                                                            pHeader->RTR);
 1200              		.loc 1 1296 13 view .LVU386
 1201 0046 0468     		ldr	r4, [r0]
1296:Drivers/STM32F4xx_HAL_Driver/Src/stm32f4xx_hal_can.c ****                                                            pHeader->RTR);
 1202              		.loc 1 1296 98 view .LVU387
 1203 0048 43EA4555 		orr	r5, r3, r5, lsl #21
1296:Drivers/STM32F4xx_HAL_Driver/Src/stm32f4xx_hal_can.c ****                                                            pHeader->RTR);
 1204              		.loc 1 1296 57 view .LVU388
 1205 004c 0CF11803 		add	r3, ip, #24
 1206 0050 1B01     		lsls	r3, r3, #4
 1207 0052 E550     		str	r5, [r4, r3]
 1208              	.L106:
1298:Drivers/STM32F4xx_HAL_Driver/Src/stm32f4xx_hal_can.c ****       }
1299:Drivers/STM32F4xx_HAL_Driver/Src/stm32f4xx_hal_can.c ****       else
1300:Drivers/STM32F4xx_HAL_Driver/Src/stm32f4xx_hal_can.c ****       {
ARM GAS  /tmp/ccrOzmIp.s 			page 49


1301:Drivers/STM32F4xx_HAL_Driver/Src/stm32f4xx_hal_can.c ****         hcan->Instance->sTxMailBox[transmitmailbox].TIR = ((pHeader->ExtId << CAN_TI0R_EXID_Pos) |
1302:Drivers/STM32F4xx_HAL_Driver/Src/stm32f4xx_hal_can.c ****                                                            pHeader->IDE |
1303:Drivers/STM32F4xx_HAL_Driver/Src/stm32f4xx_hal_can.c ****                                                            pHeader->RTR);
1304:Drivers/STM32F4xx_HAL_Driver/Src/stm32f4xx_hal_can.c ****       }
1305:Drivers/STM32F4xx_HAL_Driver/Src/stm32f4xx_hal_can.c **** 
1306:Drivers/STM32F4xx_HAL_Driver/Src/stm32f4xx_hal_can.c ****       /* Set up the DLC */
1307:Drivers/STM32F4xx_HAL_Driver/Src/stm32f4xx_hal_can.c ****       hcan->Instance->sTxMailBox[transmitmailbox].TDTR = (pHeader->DLC);
 1209              		.loc 1 1307 7 is_stmt 1 view .LVU389
 1210              		.loc 1 1307 11 is_stmt 0 view .LVU390
 1211 0054 0368     		ldr	r3, [r0]
 1212              		.loc 1 1307 66 view .LVU391
 1213 0056 0C69     		ldr	r4, [r1, #16]
 1214              		.loc 1 1307 56 view .LVU392
 1215 0058 0CF1180E 		add	lr, ip, #24
 1216 005c 03EB0E13 		add	r3, r3, lr, lsl #4
 1217 0060 5C60     		str	r4, [r3, #4]
1308:Drivers/STM32F4xx_HAL_Driver/Src/stm32f4xx_hal_can.c **** 
1309:Drivers/STM32F4xx_HAL_Driver/Src/stm32f4xx_hal_can.c ****       /* Set up the Transmit Global Time mode */
1310:Drivers/STM32F4xx_HAL_Driver/Src/stm32f4xx_hal_can.c ****       if (pHeader->TransmitGlobalTime == ENABLE)
 1218              		.loc 1 1310 7 is_stmt 1 view .LVU393
 1219              		.loc 1 1310 18 is_stmt 0 view .LVU394
 1220 0062 0B7D     		ldrb	r3, [r1, #20]	@ zero_extendqisi2
 1221              		.loc 1 1310 10 view .LVU395
 1222 0064 012B     		cmp	r3, #1
 1223 0066 35D0     		beq	.L109
 1224              	.LVL81:
 1225              	.L107:
1311:Drivers/STM32F4xx_HAL_Driver/Src/stm32f4xx_hal_can.c ****       {
1312:Drivers/STM32F4xx_HAL_Driver/Src/stm32f4xx_hal_can.c ****         SET_BIT(hcan->Instance->sTxMailBox[transmitmailbox].TDTR, CAN_TDT0R_TGT);
1313:Drivers/STM32F4xx_HAL_Driver/Src/stm32f4xx_hal_can.c ****       }
1314:Drivers/STM32F4xx_HAL_Driver/Src/stm32f4xx_hal_can.c **** 
1315:Drivers/STM32F4xx_HAL_Driver/Src/stm32f4xx_hal_can.c ****       /* Set up the data field */
1316:Drivers/STM32F4xx_HAL_Driver/Src/stm32f4xx_hal_can.c ****       WRITE_REG(hcan->Instance->sTxMailBox[transmitmailbox].TDHR,
 1226              		.loc 1 1316 7 is_stmt 1 view .LVU396
 1227 0068 D179     		ldrb	r1, [r2, #7]	@ zero_extendqisi2
 1228 006a 9379     		ldrb	r3, [r2, #6]	@ zero_extendqisi2
 1229 006c 1B04     		lsls	r3, r3, #16
 1230 006e 43EA0163 		orr	r3, r3, r1, lsl #24
 1231 0072 5179     		ldrb	r1, [r2, #5]	@ zero_extendqisi2
 1232 0074 43EA0123 		orr	r3, r3, r1, lsl #8
 1233 0078 1479     		ldrb	r4, [r2, #4]	@ zero_extendqisi2
 1234 007a 0168     		ldr	r1, [r0]
 1235 007c 2343     		orrs	r3, r3, r4
 1236 007e 01EB0C11 		add	r1, r1, ip, lsl #4
 1237 0082 C1F88C31 		str	r3, [r1, #396]
1317:Drivers/STM32F4xx_HAL_Driver/Src/stm32f4xx_hal_can.c ****                 ((uint32_t)aData[7] << CAN_TDH0R_DATA7_Pos) |
1318:Drivers/STM32F4xx_HAL_Driver/Src/stm32f4xx_hal_can.c ****                 ((uint32_t)aData[6] << CAN_TDH0R_DATA6_Pos) |
1319:Drivers/STM32F4xx_HAL_Driver/Src/stm32f4xx_hal_can.c ****                 ((uint32_t)aData[5] << CAN_TDH0R_DATA5_Pos) |
1320:Drivers/STM32F4xx_HAL_Driver/Src/stm32f4xx_hal_can.c ****                 ((uint32_t)aData[4] << CAN_TDH0R_DATA4_Pos));
1321:Drivers/STM32F4xx_HAL_Driver/Src/stm32f4xx_hal_can.c ****       WRITE_REG(hcan->Instance->sTxMailBox[transmitmailbox].TDLR,
 1238              		.loc 1 1321 7 view .LVU397
 1239 0086 D178     		ldrb	r1, [r2, #3]	@ zero_extendqisi2
 1240 0088 9378     		ldrb	r3, [r2, #2]	@ zero_extendqisi2
 1241 008a 1B04     		lsls	r3, r3, #16
 1242 008c 43EA0163 		orr	r3, r3, r1, lsl #24
 1243 0090 5178     		ldrb	r1, [r2, #1]	@ zero_extendqisi2
 1244 0092 43EA0123 		orr	r3, r3, r1, lsl #8
ARM GAS  /tmp/ccrOzmIp.s 			page 50


 1245 0096 1178     		ldrb	r1, [r2]	@ zero_extendqisi2
 1246 0098 0268     		ldr	r2, [r0]
 1247              	.LVL82:
 1248              		.loc 1 1321 7 is_stmt 0 view .LVU398
 1249 009a 0B43     		orrs	r3, r3, r1
 1250 009c 02EB0C12 		add	r2, r2, ip, lsl #4
 1251 00a0 C2F88831 		str	r3, [r2, #392]
1322:Drivers/STM32F4xx_HAL_Driver/Src/stm32f4xx_hal_can.c ****                 ((uint32_t)aData[3] << CAN_TDL0R_DATA3_Pos) |
1323:Drivers/STM32F4xx_HAL_Driver/Src/stm32f4xx_hal_can.c ****                 ((uint32_t)aData[2] << CAN_TDL0R_DATA2_Pos) |
1324:Drivers/STM32F4xx_HAL_Driver/Src/stm32f4xx_hal_can.c ****                 ((uint32_t)aData[1] << CAN_TDL0R_DATA1_Pos) |
1325:Drivers/STM32F4xx_HAL_Driver/Src/stm32f4xx_hal_can.c ****                 ((uint32_t)aData[0] << CAN_TDL0R_DATA0_Pos));
1326:Drivers/STM32F4xx_HAL_Driver/Src/stm32f4xx_hal_can.c **** 
1327:Drivers/STM32F4xx_HAL_Driver/Src/stm32f4xx_hal_can.c ****       /* Request transmission */
1328:Drivers/STM32F4xx_HAL_Driver/Src/stm32f4xx_hal_can.c ****       SET_BIT(hcan->Instance->sTxMailBox[transmitmailbox].TIR, CAN_TI0R_TXRQ);
 1252              		.loc 1 1328 7 is_stmt 1 view .LVU399
 1253 00a4 0268     		ldr	r2, [r0]
 1254 00a6 0CF1180C 		add	ip, ip, #24
 1255              	.LVL83:
 1256              		.loc 1 1328 7 is_stmt 0 view .LVU400
 1257 00aa 4FEA0C1C 		lsl	ip, ip, #4
 1258 00ae 52F80C30 		ldr	r3, [r2, ip]
 1259 00b2 43F00103 		orr	r3, r3, #1
 1260 00b6 42F80C30 		str	r3, [r2, ip]
1329:Drivers/STM32F4xx_HAL_Driver/Src/stm32f4xx_hal_can.c **** 
1330:Drivers/STM32F4xx_HAL_Driver/Src/stm32f4xx_hal_can.c ****       /* Return function status */
1331:Drivers/STM32F4xx_HAL_Driver/Src/stm32f4xx_hal_can.c ****       return HAL_OK;
 1261              		.loc 1 1331 7 is_stmt 1 view .LVU401
 1262              		.loc 1 1331 14 is_stmt 0 view .LVU402
 1263 00ba 0020     		movs	r0, #0
 1264              	.LVL84:
 1265              		.loc 1 1331 14 view .LVU403
 1266 00bc 1DE0     		b	.L104
 1267              	.LVL85:
 1268              	.L105:
1301:Drivers/STM32F4xx_HAL_Driver/Src/stm32f4xx_hal_can.c ****                                                            pHeader->IDE |
 1269              		.loc 1 1301 9 is_stmt 1 view .LVU404
1301:Drivers/STM32F4xx_HAL_Driver/Src/stm32f4xx_hal_can.c ****                                                            pHeader->IDE |
 1270              		.loc 1 1301 68 is_stmt 0 view .LVU405
 1271 00be 4C68     		ldr	r4, [r1, #4]
1301:Drivers/STM32F4xx_HAL_Driver/Src/stm32f4xx_hal_can.c ****                                                            pHeader->IDE |
 1272              		.loc 1 1301 98 view .LVU406
 1273 00c0 43EAC403 		orr	r3, r3, r4, lsl #3
1303:Drivers/STM32F4xx_HAL_Driver/Src/stm32f4xx_hal_can.c ****       }
 1274              		.loc 1 1303 67 view .LVU407
 1275 00c4 CC68     		ldr	r4, [r1, #12]
1302:Drivers/STM32F4xx_HAL_Driver/Src/stm32f4xx_hal_can.c ****                                                            pHeader->RTR);
 1276              		.loc 1 1302 73 view .LVU408
 1277 00c6 2343     		orrs	r3, r3, r4
1301:Drivers/STM32F4xx_HAL_Driver/Src/stm32f4xx_hal_can.c ****                                                            pHeader->IDE |
 1278              		.loc 1 1301 57 view .LVU409
 1279 00c8 0CF11804 		add	r4, ip, #24
 1280 00cc 2401     		lsls	r4, r4, #4
 1281 00ce 0568     		ldr	r5, [r0]
 1282 00d0 2B51     		str	r3, [r5, r4]
 1283 00d2 BFE7     		b	.L106
 1284              	.L109:
1312:Drivers/STM32F4xx_HAL_Driver/Src/stm32f4xx_hal_can.c ****       }
ARM GAS  /tmp/ccrOzmIp.s 			page 51


 1285              		.loc 1 1312 9 is_stmt 1 view .LVU410
 1286 00d4 0368     		ldr	r3, [r0]
 1287 00d6 03EB0E13 		add	r3, r3, lr, lsl #4
 1288 00da 5968     		ldr	r1, [r3, #4]
 1289              	.LVL86:
1312:Drivers/STM32F4xx_HAL_Driver/Src/stm32f4xx_hal_can.c ****       }
 1290              		.loc 1 1312 9 is_stmt 0 view .LVU411
 1291 00dc 41F48071 		orr	r1, r1, #256
 1292 00e0 5960     		str	r1, [r3, #4]
 1293 00e2 C1E7     		b	.L107
 1294              	.LVL87:
 1295              	.L102:
1332:Drivers/STM32F4xx_HAL_Driver/Src/stm32f4xx_hal_can.c ****     }
1333:Drivers/STM32F4xx_HAL_Driver/Src/stm32f4xx_hal_can.c ****     else
1334:Drivers/STM32F4xx_HAL_Driver/Src/stm32f4xx_hal_can.c ****     {
1335:Drivers/STM32F4xx_HAL_Driver/Src/stm32f4xx_hal_can.c ****       /* Update error code */
1336:Drivers/STM32F4xx_HAL_Driver/Src/stm32f4xx_hal_can.c ****       hcan->ErrorCode |= HAL_CAN_ERROR_PARAM;
 1296              		.loc 1 1336 7 is_stmt 1 view .LVU412
 1297              		.loc 1 1336 23 is_stmt 0 view .LVU413
 1298 00e4 436A     		ldr	r3, [r0, #36]
 1299              	.LVL88:
 1300              		.loc 1 1336 23 view .LVU414
 1301 00e6 43F40013 		orr	r3, r3, #2097152
 1302 00ea 4362     		str	r3, [r0, #36]
1337:Drivers/STM32F4xx_HAL_Driver/Src/stm32f4xx_hal_can.c **** 
1338:Drivers/STM32F4xx_HAL_Driver/Src/stm32f4xx_hal_can.c ****       return HAL_ERROR;
 1303              		.loc 1 1338 7 is_stmt 1 view .LVU415
 1304              		.loc 1 1338 14 is_stmt 0 view .LVU416
 1305 00ec 0120     		movs	r0, #1
 1306              	.LVL89:
 1307              		.loc 1 1338 14 view .LVU417
 1308 00ee 04E0     		b	.L104
 1309              	.LVL90:
 1310              	.L101:
1339:Drivers/STM32F4xx_HAL_Driver/Src/stm32f4xx_hal_can.c ****     }
1340:Drivers/STM32F4xx_HAL_Driver/Src/stm32f4xx_hal_can.c ****   }
1341:Drivers/STM32F4xx_HAL_Driver/Src/stm32f4xx_hal_can.c ****   else
1342:Drivers/STM32F4xx_HAL_Driver/Src/stm32f4xx_hal_can.c ****   {
1343:Drivers/STM32F4xx_HAL_Driver/Src/stm32f4xx_hal_can.c ****     /* Update error code */
1344:Drivers/STM32F4xx_HAL_Driver/Src/stm32f4xx_hal_can.c ****     hcan->ErrorCode |= HAL_CAN_ERROR_NOT_INITIALIZED;
 1311              		.loc 1 1344 5 is_stmt 1 view .LVU418
 1312              		.loc 1 1344 21 is_stmt 0 view .LVU419
 1313 00f0 436A     		ldr	r3, [r0, #36]
 1314              	.LVL91:
 1315              		.loc 1 1344 21 view .LVU420
 1316 00f2 43F48023 		orr	r3, r3, #262144
 1317 00f6 4362     		str	r3, [r0, #36]
1345:Drivers/STM32F4xx_HAL_Driver/Src/stm32f4xx_hal_can.c **** 
1346:Drivers/STM32F4xx_HAL_Driver/Src/stm32f4xx_hal_can.c ****     return HAL_ERROR;
 1318              		.loc 1 1346 5 is_stmt 1 view .LVU421
 1319              		.loc 1 1346 12 is_stmt 0 view .LVU422
 1320 00f8 0120     		movs	r0, #1
 1321              	.LVL92:
 1322              	.L104:
1347:Drivers/STM32F4xx_HAL_Driver/Src/stm32f4xx_hal_can.c ****   }
1348:Drivers/STM32F4xx_HAL_Driver/Src/stm32f4xx_hal_can.c **** }
 1323              		.loc 1 1348 1 view .LVU423
ARM GAS  /tmp/ccrOzmIp.s 			page 52


 1324 00fa 30BD     		pop	{r4, r5, pc}
 1325              		.cfi_endproc
 1326              	.LFE226:
 1328              		.section	.text.HAL_CAN_AbortTxRequest,"ax",%progbits
 1329              		.align	1
 1330              		.global	HAL_CAN_AbortTxRequest
 1331              		.syntax unified
 1332              		.thumb
 1333              		.thumb_func
 1335              	HAL_CAN_AbortTxRequest:
 1336              	.LVL93:
 1337              	.LFB227:
1349:Drivers/STM32F4xx_HAL_Driver/Src/stm32f4xx_hal_can.c **** 
1350:Drivers/STM32F4xx_HAL_Driver/Src/stm32f4xx_hal_can.c **** /**
1351:Drivers/STM32F4xx_HAL_Driver/Src/stm32f4xx_hal_can.c ****   * @brief  Abort transmission requests
1352:Drivers/STM32F4xx_HAL_Driver/Src/stm32f4xx_hal_can.c ****   * @param  hcan pointer to an CAN_HandleTypeDef structure that contains
1353:Drivers/STM32F4xx_HAL_Driver/Src/stm32f4xx_hal_can.c ****   *         the configuration information for the specified CAN.
1354:Drivers/STM32F4xx_HAL_Driver/Src/stm32f4xx_hal_can.c ****   * @param  TxMailboxes List of the Tx Mailboxes to abort.
1355:Drivers/STM32F4xx_HAL_Driver/Src/stm32f4xx_hal_can.c ****   *         This parameter can be any combination of @arg CAN_Tx_Mailboxes.
1356:Drivers/STM32F4xx_HAL_Driver/Src/stm32f4xx_hal_can.c ****   * @retval HAL status
1357:Drivers/STM32F4xx_HAL_Driver/Src/stm32f4xx_hal_can.c ****   */
1358:Drivers/STM32F4xx_HAL_Driver/Src/stm32f4xx_hal_can.c **** HAL_StatusTypeDef HAL_CAN_AbortTxRequest(CAN_HandleTypeDef *hcan, uint32_t TxMailboxes)
1359:Drivers/STM32F4xx_HAL_Driver/Src/stm32f4xx_hal_can.c **** {
 1338              		.loc 1 1359 1 is_stmt 1 view -0
 1339              		.cfi_startproc
 1340              		@ args = 0, pretend = 0, frame = 0
 1341              		@ frame_needed = 0, uses_anonymous_args = 0
 1342              		@ link register save eliminated.
1360:Drivers/STM32F4xx_HAL_Driver/Src/stm32f4xx_hal_can.c ****   HAL_CAN_StateTypeDef state = hcan->State;
 1343              		.loc 1 1360 3 view .LVU425
 1344              		.loc 1 1360 24 is_stmt 0 view .LVU426
 1345 0000 90F82030 		ldrb	r3, [r0, #32]	@ zero_extendqisi2
 1346              	.LVL94:
1361:Drivers/STM32F4xx_HAL_Driver/Src/stm32f4xx_hal_can.c **** 
1362:Drivers/STM32F4xx_HAL_Driver/Src/stm32f4xx_hal_can.c ****   /* Check function parameters */
1363:Drivers/STM32F4xx_HAL_Driver/Src/stm32f4xx_hal_can.c ****   assert_param(IS_CAN_TX_MAILBOX_LIST(TxMailboxes));
 1347              		.loc 1 1363 3 is_stmt 1 view .LVU427
1364:Drivers/STM32F4xx_HAL_Driver/Src/stm32f4xx_hal_can.c **** 
1365:Drivers/STM32F4xx_HAL_Driver/Src/stm32f4xx_hal_can.c ****   if ((state == HAL_CAN_STATE_READY) ||
 1348              		.loc 1 1365 3 view .LVU428
 1349              		.loc 1 1365 38 is_stmt 0 view .LVU429
 1350 0004 013B     		subs	r3, r3, #1
 1351              	.LVL95:
 1352              		.loc 1 1365 38 view .LVU430
 1353 0006 DBB2     		uxtb	r3, r3
 1354              		.loc 1 1365 6 view .LVU431
 1355 0008 012B     		cmp	r3, #1
 1356 000a 05D9     		bls	.L116
1366:Drivers/STM32F4xx_HAL_Driver/Src/stm32f4xx_hal_can.c ****       (state == HAL_CAN_STATE_LISTENING))
1367:Drivers/STM32F4xx_HAL_Driver/Src/stm32f4xx_hal_can.c ****   {
1368:Drivers/STM32F4xx_HAL_Driver/Src/stm32f4xx_hal_can.c ****     /* Check Tx Mailbox 0 */
1369:Drivers/STM32F4xx_HAL_Driver/Src/stm32f4xx_hal_can.c ****     if ((TxMailboxes & CAN_TX_MAILBOX0) != 0U)
1370:Drivers/STM32F4xx_HAL_Driver/Src/stm32f4xx_hal_can.c ****     {
1371:Drivers/STM32F4xx_HAL_Driver/Src/stm32f4xx_hal_can.c ****       /* Add cancellation request for Tx Mailbox 0 */
1372:Drivers/STM32F4xx_HAL_Driver/Src/stm32f4xx_hal_can.c ****       SET_BIT(hcan->Instance->TSR, CAN_TSR_ABRQ0);
1373:Drivers/STM32F4xx_HAL_Driver/Src/stm32f4xx_hal_can.c ****     }
1374:Drivers/STM32F4xx_HAL_Driver/Src/stm32f4xx_hal_can.c **** 
ARM GAS  /tmp/ccrOzmIp.s 			page 53


1375:Drivers/STM32F4xx_HAL_Driver/Src/stm32f4xx_hal_can.c ****     /* Check Tx Mailbox 1 */
1376:Drivers/STM32F4xx_HAL_Driver/Src/stm32f4xx_hal_can.c ****     if ((TxMailboxes & CAN_TX_MAILBOX1) != 0U)
1377:Drivers/STM32F4xx_HAL_Driver/Src/stm32f4xx_hal_can.c ****     {
1378:Drivers/STM32F4xx_HAL_Driver/Src/stm32f4xx_hal_can.c ****       /* Add cancellation request for Tx Mailbox 1 */
1379:Drivers/STM32F4xx_HAL_Driver/Src/stm32f4xx_hal_can.c ****       SET_BIT(hcan->Instance->TSR, CAN_TSR_ABRQ1);
1380:Drivers/STM32F4xx_HAL_Driver/Src/stm32f4xx_hal_can.c ****     }
1381:Drivers/STM32F4xx_HAL_Driver/Src/stm32f4xx_hal_can.c **** 
1382:Drivers/STM32F4xx_HAL_Driver/Src/stm32f4xx_hal_can.c ****     /* Check Tx Mailbox 2 */
1383:Drivers/STM32F4xx_HAL_Driver/Src/stm32f4xx_hal_can.c ****     if ((TxMailboxes & CAN_TX_MAILBOX2) != 0U)
1384:Drivers/STM32F4xx_HAL_Driver/Src/stm32f4xx_hal_can.c ****     {
1385:Drivers/STM32F4xx_HAL_Driver/Src/stm32f4xx_hal_can.c ****       /* Add cancellation request for Tx Mailbox 2 */
1386:Drivers/STM32F4xx_HAL_Driver/Src/stm32f4xx_hal_can.c ****       SET_BIT(hcan->Instance->TSR, CAN_TSR_ABRQ2);
1387:Drivers/STM32F4xx_HAL_Driver/Src/stm32f4xx_hal_can.c ****     }
1388:Drivers/STM32F4xx_HAL_Driver/Src/stm32f4xx_hal_can.c **** 
1389:Drivers/STM32F4xx_HAL_Driver/Src/stm32f4xx_hal_can.c ****     /* Return function status */
1390:Drivers/STM32F4xx_HAL_Driver/Src/stm32f4xx_hal_can.c ****     return HAL_OK;
1391:Drivers/STM32F4xx_HAL_Driver/Src/stm32f4xx_hal_can.c ****   }
1392:Drivers/STM32F4xx_HAL_Driver/Src/stm32f4xx_hal_can.c ****   else
1393:Drivers/STM32F4xx_HAL_Driver/Src/stm32f4xx_hal_can.c ****   {
1394:Drivers/STM32F4xx_HAL_Driver/Src/stm32f4xx_hal_can.c ****     /* Update error code */
1395:Drivers/STM32F4xx_HAL_Driver/Src/stm32f4xx_hal_can.c ****     hcan->ErrorCode |= HAL_CAN_ERROR_NOT_INITIALIZED;
 1357              		.loc 1 1395 5 is_stmt 1 view .LVU432
 1358              		.loc 1 1395 21 is_stmt 0 view .LVU433
 1359 000c 436A     		ldr	r3, [r0, #36]
 1360 000e 43F48023 		orr	r3, r3, #262144
 1361 0012 4362     		str	r3, [r0, #36]
1396:Drivers/STM32F4xx_HAL_Driver/Src/stm32f4xx_hal_can.c **** 
1397:Drivers/STM32F4xx_HAL_Driver/Src/stm32f4xx_hal_can.c ****     return HAL_ERROR;
 1362              		.loc 1 1397 5 is_stmt 1 view .LVU434
 1363              		.loc 1 1397 12 is_stmt 0 view .LVU435
 1364 0014 0120     		movs	r0, #1
 1365              	.LVL96:
1398:Drivers/STM32F4xx_HAL_Driver/Src/stm32f4xx_hal_can.c ****   }
1399:Drivers/STM32F4xx_HAL_Driver/Src/stm32f4xx_hal_can.c **** }
 1366              		.loc 1 1399 1 view .LVU436
 1367 0016 7047     		bx	lr
 1368              	.LVL97:
 1369              	.L116:
1369:Drivers/STM32F4xx_HAL_Driver/Src/stm32f4xx_hal_can.c ****     {
 1370              		.loc 1 1369 5 is_stmt 1 view .LVU437
1369:Drivers/STM32F4xx_HAL_Driver/Src/stm32f4xx_hal_can.c ****     {
 1371              		.loc 1 1369 8 is_stmt 0 view .LVU438
 1372 0018 11F0010F 		tst	r1, #1
 1373 001c 04D0     		beq	.L112
1372:Drivers/STM32F4xx_HAL_Driver/Src/stm32f4xx_hal_can.c ****     }
 1374              		.loc 1 1372 7 is_stmt 1 view .LVU439
 1375 001e 0268     		ldr	r2, [r0]
 1376 0020 9368     		ldr	r3, [r2, #8]
 1377 0022 43F08003 		orr	r3, r3, #128
 1378 0026 9360     		str	r3, [r2, #8]
 1379              	.L112:
1376:Drivers/STM32F4xx_HAL_Driver/Src/stm32f4xx_hal_can.c ****     {
 1380              		.loc 1 1376 5 view .LVU440
1376:Drivers/STM32F4xx_HAL_Driver/Src/stm32f4xx_hal_can.c ****     {
 1381              		.loc 1 1376 8 is_stmt 0 view .LVU441
 1382 0028 11F0020F 		tst	r1, #2
 1383 002c 04D0     		beq	.L113
ARM GAS  /tmp/ccrOzmIp.s 			page 54


1379:Drivers/STM32F4xx_HAL_Driver/Src/stm32f4xx_hal_can.c ****     }
 1384              		.loc 1 1379 7 is_stmt 1 view .LVU442
 1385 002e 0268     		ldr	r2, [r0]
 1386 0030 9368     		ldr	r3, [r2, #8]
 1387 0032 43F40043 		orr	r3, r3, #32768
 1388 0036 9360     		str	r3, [r2, #8]
 1389              	.L113:
1383:Drivers/STM32F4xx_HAL_Driver/Src/stm32f4xx_hal_can.c ****     {
 1390              		.loc 1 1383 5 view .LVU443
1383:Drivers/STM32F4xx_HAL_Driver/Src/stm32f4xx_hal_can.c ****     {
 1391              		.loc 1 1383 8 is_stmt 0 view .LVU444
 1392 0038 11F0040F 		tst	r1, #4
 1393 003c 04D0     		beq	.L114
1386:Drivers/STM32F4xx_HAL_Driver/Src/stm32f4xx_hal_can.c ****     }
 1394              		.loc 1 1386 7 is_stmt 1 view .LVU445
 1395 003e 0268     		ldr	r2, [r0]
 1396 0040 9368     		ldr	r3, [r2, #8]
 1397 0042 43F40003 		orr	r3, r3, #8388608
 1398 0046 9360     		str	r3, [r2, #8]
 1399              	.L114:
1390:Drivers/STM32F4xx_HAL_Driver/Src/stm32f4xx_hal_can.c ****   }
 1400              		.loc 1 1390 5 view .LVU446
1390:Drivers/STM32F4xx_HAL_Driver/Src/stm32f4xx_hal_can.c ****   }
 1401              		.loc 1 1390 12 is_stmt 0 view .LVU447
 1402 0048 0020     		movs	r0, #0
 1403              	.LVL98:
1390:Drivers/STM32F4xx_HAL_Driver/Src/stm32f4xx_hal_can.c ****   }
 1404              		.loc 1 1390 12 view .LVU448
 1405 004a 7047     		bx	lr
 1406              		.cfi_endproc
 1407              	.LFE227:
 1409              		.section	.text.HAL_CAN_GetTxMailboxesFreeLevel,"ax",%progbits
 1410              		.align	1
 1411              		.global	HAL_CAN_GetTxMailboxesFreeLevel
 1412              		.syntax unified
 1413              		.thumb
 1414              		.thumb_func
 1416              	HAL_CAN_GetTxMailboxesFreeLevel:
 1417              	.LVL99:
 1418              	.LFB228:
1400:Drivers/STM32F4xx_HAL_Driver/Src/stm32f4xx_hal_can.c **** 
1401:Drivers/STM32F4xx_HAL_Driver/Src/stm32f4xx_hal_can.c **** /**
1402:Drivers/STM32F4xx_HAL_Driver/Src/stm32f4xx_hal_can.c ****   * @brief  Return Tx Mailboxes free level: number of free Tx Mailboxes.
1403:Drivers/STM32F4xx_HAL_Driver/Src/stm32f4xx_hal_can.c ****   * @param  hcan pointer to a CAN_HandleTypeDef structure that contains
1404:Drivers/STM32F4xx_HAL_Driver/Src/stm32f4xx_hal_can.c ****   *         the configuration information for the specified CAN.
1405:Drivers/STM32F4xx_HAL_Driver/Src/stm32f4xx_hal_can.c ****   * @retval Number of free Tx Mailboxes.
1406:Drivers/STM32F4xx_HAL_Driver/Src/stm32f4xx_hal_can.c ****   */
1407:Drivers/STM32F4xx_HAL_Driver/Src/stm32f4xx_hal_can.c **** uint32_t HAL_CAN_GetTxMailboxesFreeLevel(CAN_HandleTypeDef *hcan)
1408:Drivers/STM32F4xx_HAL_Driver/Src/stm32f4xx_hal_can.c **** {
 1419              		.loc 1 1408 1 is_stmt 1 view -0
 1420              		.cfi_startproc
 1421              		@ args = 0, pretend = 0, frame = 0
 1422              		@ frame_needed = 0, uses_anonymous_args = 0
 1423              		@ link register save eliminated.
1409:Drivers/STM32F4xx_HAL_Driver/Src/stm32f4xx_hal_can.c ****   uint32_t freelevel = 0U;
 1424              		.loc 1 1409 3 view .LVU450
1410:Drivers/STM32F4xx_HAL_Driver/Src/stm32f4xx_hal_can.c ****   HAL_CAN_StateTypeDef state = hcan->State;
ARM GAS  /tmp/ccrOzmIp.s 			page 55


 1425              		.loc 1 1410 3 view .LVU451
 1426              		.loc 1 1410 24 is_stmt 0 view .LVU452
 1427 0000 90F82030 		ldrb	r3, [r0, #32]	@ zero_extendqisi2
 1428              	.LVL100:
1411:Drivers/STM32F4xx_HAL_Driver/Src/stm32f4xx_hal_can.c **** 
1412:Drivers/STM32F4xx_HAL_Driver/Src/stm32f4xx_hal_can.c ****   if ((state == HAL_CAN_STATE_READY) ||
 1429              		.loc 1 1412 3 is_stmt 1 view .LVU453
 1430              		.loc 1 1412 38 is_stmt 0 view .LVU454
 1431 0004 013B     		subs	r3, r3, #1
 1432              	.LVL101:
 1433              		.loc 1 1412 38 view .LVU455
 1434 0006 DBB2     		uxtb	r3, r3
 1435              		.loc 1 1412 6 view .LVU456
 1436 0008 012B     		cmp	r3, #1
 1437 000a 01D9     		bls	.L123
1409:Drivers/STM32F4xx_HAL_Driver/Src/stm32f4xx_hal_can.c ****   HAL_CAN_StateTypeDef state = hcan->State;
 1438              		.loc 1 1409 12 view .LVU457
 1439 000c 0020     		movs	r0, #0
 1440              	.LVL102:
1413:Drivers/STM32F4xx_HAL_Driver/Src/stm32f4xx_hal_can.c ****       (state == HAL_CAN_STATE_LISTENING))
1414:Drivers/STM32F4xx_HAL_Driver/Src/stm32f4xx_hal_can.c ****   {
1415:Drivers/STM32F4xx_HAL_Driver/Src/stm32f4xx_hal_can.c ****     /* Check Tx Mailbox 0 status */
1416:Drivers/STM32F4xx_HAL_Driver/Src/stm32f4xx_hal_can.c ****     if ((hcan->Instance->TSR & CAN_TSR_TME0) != 0U)
1417:Drivers/STM32F4xx_HAL_Driver/Src/stm32f4xx_hal_can.c ****     {
1418:Drivers/STM32F4xx_HAL_Driver/Src/stm32f4xx_hal_can.c ****       freelevel++;
1419:Drivers/STM32F4xx_HAL_Driver/Src/stm32f4xx_hal_can.c ****     }
1420:Drivers/STM32F4xx_HAL_Driver/Src/stm32f4xx_hal_can.c **** 
1421:Drivers/STM32F4xx_HAL_Driver/Src/stm32f4xx_hal_can.c ****     /* Check Tx Mailbox 1 status */
1422:Drivers/STM32F4xx_HAL_Driver/Src/stm32f4xx_hal_can.c ****     if ((hcan->Instance->TSR & CAN_TSR_TME1) != 0U)
1423:Drivers/STM32F4xx_HAL_Driver/Src/stm32f4xx_hal_can.c ****     {
1424:Drivers/STM32F4xx_HAL_Driver/Src/stm32f4xx_hal_can.c ****       freelevel++;
1425:Drivers/STM32F4xx_HAL_Driver/Src/stm32f4xx_hal_can.c ****     }
1426:Drivers/STM32F4xx_HAL_Driver/Src/stm32f4xx_hal_can.c **** 
1427:Drivers/STM32F4xx_HAL_Driver/Src/stm32f4xx_hal_can.c ****     /* Check Tx Mailbox 2 status */
1428:Drivers/STM32F4xx_HAL_Driver/Src/stm32f4xx_hal_can.c ****     if ((hcan->Instance->TSR & CAN_TSR_TME2) != 0U)
1429:Drivers/STM32F4xx_HAL_Driver/Src/stm32f4xx_hal_can.c ****     {
1430:Drivers/STM32F4xx_HAL_Driver/Src/stm32f4xx_hal_can.c ****       freelevel++;
1431:Drivers/STM32F4xx_HAL_Driver/Src/stm32f4xx_hal_can.c ****     }
1432:Drivers/STM32F4xx_HAL_Driver/Src/stm32f4xx_hal_can.c ****   }
1433:Drivers/STM32F4xx_HAL_Driver/Src/stm32f4xx_hal_can.c **** 
1434:Drivers/STM32F4xx_HAL_Driver/Src/stm32f4xx_hal_can.c ****   /* Return Tx Mailboxes free level */
1435:Drivers/STM32F4xx_HAL_Driver/Src/stm32f4xx_hal_can.c ****   return freelevel;
 1441              		.loc 1 1435 3 is_stmt 1 view .LVU458
 1442              	.L117:
1436:Drivers/STM32F4xx_HAL_Driver/Src/stm32f4xx_hal_can.c **** }
 1443              		.loc 1 1436 1 is_stmt 0 view .LVU459
 1444 000e 7047     		bx	lr
 1445              	.LVL103:
 1446              	.L123:
1416:Drivers/STM32F4xx_HAL_Driver/Src/stm32f4xx_hal_can.c ****     {
 1447              		.loc 1 1416 5 is_stmt 1 view .LVU460
1416:Drivers/STM32F4xx_HAL_Driver/Src/stm32f4xx_hal_can.c ****     {
 1448              		.loc 1 1416 14 is_stmt 0 view .LVU461
 1449 0010 0368     		ldr	r3, [r0]
1416:Drivers/STM32F4xx_HAL_Driver/Src/stm32f4xx_hal_can.c ****     {
 1450              		.loc 1 1416 24 view .LVU462
 1451 0012 9868     		ldr	r0, [r3, #8]
ARM GAS  /tmp/ccrOzmIp.s 			page 56


 1452              	.LVL104:
1416:Drivers/STM32F4xx_HAL_Driver/Src/stm32f4xx_hal_can.c ****     {
 1453              		.loc 1 1416 8 view .LVU463
 1454 0014 10F08060 		ands	r0, r0, #67108864
 1455 0018 00D0     		beq	.L119
1418:Drivers/STM32F4xx_HAL_Driver/Src/stm32f4xx_hal_can.c ****     }
 1456              		.loc 1 1418 16 view .LVU464
 1457 001a 0120     		movs	r0, #1
 1458              	.L119:
 1459              	.LVL105:
1422:Drivers/STM32F4xx_HAL_Driver/Src/stm32f4xx_hal_can.c ****     {
 1460              		.loc 1 1422 5 is_stmt 1 view .LVU465
1422:Drivers/STM32F4xx_HAL_Driver/Src/stm32f4xx_hal_can.c ****     {
 1461              		.loc 1 1422 24 is_stmt 0 view .LVU466
 1462 001c 9A68     		ldr	r2, [r3, #8]
1422:Drivers/STM32F4xx_HAL_Driver/Src/stm32f4xx_hal_can.c ****     {
 1463              		.loc 1 1422 8 view .LVU467
 1464 001e 12F0006F 		tst	r2, #134217728
 1465 0022 00D0     		beq	.L120
1424:Drivers/STM32F4xx_HAL_Driver/Src/stm32f4xx_hal_can.c ****     }
 1466              		.loc 1 1424 7 is_stmt 1 view .LVU468
1424:Drivers/STM32F4xx_HAL_Driver/Src/stm32f4xx_hal_can.c ****     }
 1467              		.loc 1 1424 16 is_stmt 0 view .LVU469
 1468 0024 0130     		adds	r0, r0, #1
 1469              	.LVL106:
 1470              	.L120:
1428:Drivers/STM32F4xx_HAL_Driver/Src/stm32f4xx_hal_can.c ****     {
 1471              		.loc 1 1428 5 is_stmt 1 view .LVU470
1428:Drivers/STM32F4xx_HAL_Driver/Src/stm32f4xx_hal_can.c ****     {
 1472              		.loc 1 1428 24 is_stmt 0 view .LVU471
 1473 0026 9B68     		ldr	r3, [r3, #8]
1428:Drivers/STM32F4xx_HAL_Driver/Src/stm32f4xx_hal_can.c ****     {
 1474              		.loc 1 1428 8 view .LVU472
 1475 0028 13F0805F 		tst	r3, #268435456
 1476 002c EFD0     		beq	.L117
1430:Drivers/STM32F4xx_HAL_Driver/Src/stm32f4xx_hal_can.c ****     }
 1477              		.loc 1 1430 7 is_stmt 1 view .LVU473
1430:Drivers/STM32F4xx_HAL_Driver/Src/stm32f4xx_hal_can.c ****     }
 1478              		.loc 1 1430 16 is_stmt 0 view .LVU474
 1479 002e 0130     		adds	r0, r0, #1
 1480              	.LVL107:
1430:Drivers/STM32F4xx_HAL_Driver/Src/stm32f4xx_hal_can.c ****     }
 1481              		.loc 1 1430 16 view .LVU475
 1482 0030 7047     		bx	lr
 1483              		.cfi_endproc
 1484              	.LFE228:
 1486              		.section	.text.HAL_CAN_IsTxMessagePending,"ax",%progbits
 1487              		.align	1
 1488              		.global	HAL_CAN_IsTxMessagePending
 1489              		.syntax unified
 1490              		.thumb
 1491              		.thumb_func
 1493              	HAL_CAN_IsTxMessagePending:
 1494              	.LVL108:
 1495              	.LFB229:
1437:Drivers/STM32F4xx_HAL_Driver/Src/stm32f4xx_hal_can.c **** 
1438:Drivers/STM32F4xx_HAL_Driver/Src/stm32f4xx_hal_can.c **** /**
ARM GAS  /tmp/ccrOzmIp.s 			page 57


1439:Drivers/STM32F4xx_HAL_Driver/Src/stm32f4xx_hal_can.c ****   * @brief  Check if a transmission request is pending on the selected Tx
1440:Drivers/STM32F4xx_HAL_Driver/Src/stm32f4xx_hal_can.c ****   *         Mailboxes.
1441:Drivers/STM32F4xx_HAL_Driver/Src/stm32f4xx_hal_can.c ****   * @param  hcan pointer to an CAN_HandleTypeDef structure that contains
1442:Drivers/STM32F4xx_HAL_Driver/Src/stm32f4xx_hal_can.c ****   *         the configuration information for the specified CAN.
1443:Drivers/STM32F4xx_HAL_Driver/Src/stm32f4xx_hal_can.c ****   * @param  TxMailboxes List of Tx Mailboxes to check.
1444:Drivers/STM32F4xx_HAL_Driver/Src/stm32f4xx_hal_can.c ****   *         This parameter can be any combination of @arg CAN_Tx_Mailboxes.
1445:Drivers/STM32F4xx_HAL_Driver/Src/stm32f4xx_hal_can.c ****   * @retval Status
1446:Drivers/STM32F4xx_HAL_Driver/Src/stm32f4xx_hal_can.c ****   *          - 0 : No pending transmission request on any selected Tx Mailboxes.
1447:Drivers/STM32F4xx_HAL_Driver/Src/stm32f4xx_hal_can.c ****   *          - 1 : Pending transmission request on at least one of the selected
1448:Drivers/STM32F4xx_HAL_Driver/Src/stm32f4xx_hal_can.c ****   *                Tx Mailbox.
1449:Drivers/STM32F4xx_HAL_Driver/Src/stm32f4xx_hal_can.c ****   */
1450:Drivers/STM32F4xx_HAL_Driver/Src/stm32f4xx_hal_can.c **** uint32_t HAL_CAN_IsTxMessagePending(CAN_HandleTypeDef *hcan, uint32_t TxMailboxes)
1451:Drivers/STM32F4xx_HAL_Driver/Src/stm32f4xx_hal_can.c **** {
 1496              		.loc 1 1451 1 is_stmt 1 view -0
 1497              		.cfi_startproc
 1498              		@ args = 0, pretend = 0, frame = 0
 1499              		@ frame_needed = 0, uses_anonymous_args = 0
 1500              		@ link register save eliminated.
1452:Drivers/STM32F4xx_HAL_Driver/Src/stm32f4xx_hal_can.c ****   uint32_t status = 0U;
 1501              		.loc 1 1452 3 view .LVU477
1453:Drivers/STM32F4xx_HAL_Driver/Src/stm32f4xx_hal_can.c ****   HAL_CAN_StateTypeDef state = hcan->State;
 1502              		.loc 1 1453 3 view .LVU478
 1503              		.loc 1 1453 24 is_stmt 0 view .LVU479
 1504 0000 90F82030 		ldrb	r3, [r0, #32]	@ zero_extendqisi2
 1505              	.LVL109:
1454:Drivers/STM32F4xx_HAL_Driver/Src/stm32f4xx_hal_can.c **** 
1455:Drivers/STM32F4xx_HAL_Driver/Src/stm32f4xx_hal_can.c ****   /* Check function parameters */
1456:Drivers/STM32F4xx_HAL_Driver/Src/stm32f4xx_hal_can.c ****   assert_param(IS_CAN_TX_MAILBOX_LIST(TxMailboxes));
 1506              		.loc 1 1456 3 is_stmt 1 view .LVU480
1457:Drivers/STM32F4xx_HAL_Driver/Src/stm32f4xx_hal_can.c **** 
1458:Drivers/STM32F4xx_HAL_Driver/Src/stm32f4xx_hal_can.c ****   if ((state == HAL_CAN_STATE_READY) ||
 1507              		.loc 1 1458 3 view .LVU481
 1508              		.loc 1 1458 38 is_stmt 0 view .LVU482
 1509 0004 013B     		subs	r3, r3, #1
 1510              	.LVL110:
 1511              		.loc 1 1458 38 view .LVU483
 1512 0006 DBB2     		uxtb	r3, r3
 1513              		.loc 1 1458 6 view .LVU484
 1514 0008 012B     		cmp	r3, #1
 1515 000a 01D9     		bls	.L128
1452:Drivers/STM32F4xx_HAL_Driver/Src/stm32f4xx_hal_can.c ****   HAL_CAN_StateTypeDef state = hcan->State;
 1516              		.loc 1 1452 12 view .LVU485
 1517 000c 0020     		movs	r0, #0
 1518              	.LVL111:
1452:Drivers/STM32F4xx_HAL_Driver/Src/stm32f4xx_hal_can.c ****   HAL_CAN_StateTypeDef state = hcan->State;
 1519              		.loc 1 1452 12 view .LVU486
 1520 000e 7047     		bx	lr
 1521              	.LVL112:
 1522              	.L128:
1459:Drivers/STM32F4xx_HAL_Driver/Src/stm32f4xx_hal_can.c ****       (state == HAL_CAN_STATE_LISTENING))
1460:Drivers/STM32F4xx_HAL_Driver/Src/stm32f4xx_hal_can.c ****   {
1461:Drivers/STM32F4xx_HAL_Driver/Src/stm32f4xx_hal_can.c ****     /* Check pending transmission request on the selected Tx Mailboxes */
1462:Drivers/STM32F4xx_HAL_Driver/Src/stm32f4xx_hal_can.c ****     if ((hcan->Instance->TSR & (TxMailboxes << CAN_TSR_TME0_Pos)) != (TxMailboxes << CAN_TSR_TME0_P
 1523              		.loc 1 1462 5 is_stmt 1 view .LVU487
 1524              		.loc 1 1462 14 is_stmt 0 view .LVU488
 1525 0010 0368     		ldr	r3, [r0]
 1526              		.loc 1 1462 24 view .LVU489
ARM GAS  /tmp/ccrOzmIp.s 			page 58


 1527 0012 9B68     		ldr	r3, [r3, #8]
 1528              		.loc 1 1462 30 view .LVU490
 1529 0014 03EA8163 		and	r3, r3, r1, lsl #26
 1530              		.loc 1 1462 8 view .LVU491
 1531 0018 B3EB816F 		cmp	r3, r1, lsl #26
 1532 001c 01D0     		beq	.L129
1463:Drivers/STM32F4xx_HAL_Driver/Src/stm32f4xx_hal_can.c ****     {
1464:Drivers/STM32F4xx_HAL_Driver/Src/stm32f4xx_hal_can.c ****       status = 1U;
 1533              		.loc 1 1464 14 view .LVU492
 1534 001e 0120     		movs	r0, #1
 1535              	.LVL113:
1465:Drivers/STM32F4xx_HAL_Driver/Src/stm32f4xx_hal_can.c ****     }
1466:Drivers/STM32F4xx_HAL_Driver/Src/stm32f4xx_hal_can.c ****   }
1467:Drivers/STM32F4xx_HAL_Driver/Src/stm32f4xx_hal_can.c **** 
1468:Drivers/STM32F4xx_HAL_Driver/Src/stm32f4xx_hal_can.c ****   /* Return status */
1469:Drivers/STM32F4xx_HAL_Driver/Src/stm32f4xx_hal_can.c ****   return status;
 1536              		.loc 1 1469 3 is_stmt 1 view .LVU493
1470:Drivers/STM32F4xx_HAL_Driver/Src/stm32f4xx_hal_can.c **** }
 1537              		.loc 1 1470 1 is_stmt 0 view .LVU494
 1538 0020 7047     		bx	lr
 1539              	.LVL114:
 1540              	.L129:
1452:Drivers/STM32F4xx_HAL_Driver/Src/stm32f4xx_hal_can.c ****   HAL_CAN_StateTypeDef state = hcan->State;
 1541              		.loc 1 1452 12 view .LVU495
 1542 0022 0020     		movs	r0, #0
 1543              	.LVL115:
1452:Drivers/STM32F4xx_HAL_Driver/Src/stm32f4xx_hal_can.c ****   HAL_CAN_StateTypeDef state = hcan->State;
 1544              		.loc 1 1452 12 view .LVU496
 1545 0024 7047     		bx	lr
 1546              		.cfi_endproc
 1547              	.LFE229:
 1549              		.section	.text.HAL_CAN_GetTxTimestamp,"ax",%progbits
 1550              		.align	1
 1551              		.global	HAL_CAN_GetTxTimestamp
 1552              		.syntax unified
 1553              		.thumb
 1554              		.thumb_func
 1556              	HAL_CAN_GetTxTimestamp:
 1557              	.LVL116:
 1558              	.LFB230:
1471:Drivers/STM32F4xx_HAL_Driver/Src/stm32f4xx_hal_can.c **** 
1472:Drivers/STM32F4xx_HAL_Driver/Src/stm32f4xx_hal_can.c **** /**
1473:Drivers/STM32F4xx_HAL_Driver/Src/stm32f4xx_hal_can.c ****   * @brief  Return timestamp of Tx message sent, if time triggered communication
1474:Drivers/STM32F4xx_HAL_Driver/Src/stm32f4xx_hal_can.c ****             mode is enabled.
1475:Drivers/STM32F4xx_HAL_Driver/Src/stm32f4xx_hal_can.c ****   * @param  hcan pointer to a CAN_HandleTypeDef structure that contains
1476:Drivers/STM32F4xx_HAL_Driver/Src/stm32f4xx_hal_can.c ****   *         the configuration information for the specified CAN.
1477:Drivers/STM32F4xx_HAL_Driver/Src/stm32f4xx_hal_can.c ****   * @param  TxMailbox Tx Mailbox where the timestamp of message sent will be
1478:Drivers/STM32F4xx_HAL_Driver/Src/stm32f4xx_hal_can.c ****   *         read.
1479:Drivers/STM32F4xx_HAL_Driver/Src/stm32f4xx_hal_can.c ****   *         This parameter can be one value of @arg CAN_Tx_Mailboxes.
1480:Drivers/STM32F4xx_HAL_Driver/Src/stm32f4xx_hal_can.c ****   * @retval Timestamp of message sent from Tx Mailbox.
1481:Drivers/STM32F4xx_HAL_Driver/Src/stm32f4xx_hal_can.c ****   */
1482:Drivers/STM32F4xx_HAL_Driver/Src/stm32f4xx_hal_can.c **** uint32_t HAL_CAN_GetTxTimestamp(CAN_HandleTypeDef *hcan, uint32_t TxMailbox)
1483:Drivers/STM32F4xx_HAL_Driver/Src/stm32f4xx_hal_can.c **** {
 1559              		.loc 1 1483 1 is_stmt 1 view -0
 1560              		.cfi_startproc
 1561              		@ args = 0, pretend = 0, frame = 0
 1562              		@ frame_needed = 0, uses_anonymous_args = 0
ARM GAS  /tmp/ccrOzmIp.s 			page 59


 1563              		@ link register save eliminated.
1484:Drivers/STM32F4xx_HAL_Driver/Src/stm32f4xx_hal_can.c ****   uint32_t timestamp = 0U;
 1564              		.loc 1 1484 3 view .LVU498
1485:Drivers/STM32F4xx_HAL_Driver/Src/stm32f4xx_hal_can.c ****   uint32_t transmitmailbox;
 1565              		.loc 1 1485 3 view .LVU499
1486:Drivers/STM32F4xx_HAL_Driver/Src/stm32f4xx_hal_can.c ****   HAL_CAN_StateTypeDef state = hcan->State;
 1566              		.loc 1 1486 3 view .LVU500
 1567              		.loc 1 1486 24 is_stmt 0 view .LVU501
 1568 0000 90F82030 		ldrb	r3, [r0, #32]	@ zero_extendqisi2
 1569              	.LVL117:
1487:Drivers/STM32F4xx_HAL_Driver/Src/stm32f4xx_hal_can.c **** 
1488:Drivers/STM32F4xx_HAL_Driver/Src/stm32f4xx_hal_can.c ****   /* Check function parameters */
1489:Drivers/STM32F4xx_HAL_Driver/Src/stm32f4xx_hal_can.c ****   assert_param(IS_CAN_TX_MAILBOX(TxMailbox));
 1570              		.loc 1 1489 3 is_stmt 1 view .LVU502
1490:Drivers/STM32F4xx_HAL_Driver/Src/stm32f4xx_hal_can.c **** 
1491:Drivers/STM32F4xx_HAL_Driver/Src/stm32f4xx_hal_can.c ****   if ((state == HAL_CAN_STATE_READY) ||
 1571              		.loc 1 1491 3 view .LVU503
 1572              		.loc 1 1491 38 is_stmt 0 view .LVU504
 1573 0004 013B     		subs	r3, r3, #1
 1574              	.LVL118:
 1575              		.loc 1 1491 38 view .LVU505
 1576 0006 DBB2     		uxtb	r3, r3
 1577              		.loc 1 1491 6 view .LVU506
 1578 0008 012B     		cmp	r3, #1
 1579 000a 01D9     		bls	.L133
1484:Drivers/STM32F4xx_HAL_Driver/Src/stm32f4xx_hal_can.c ****   uint32_t transmitmailbox;
 1580              		.loc 1 1484 12 view .LVU507
 1581 000c 0020     		movs	r0, #0
 1582              	.LVL119:
1492:Drivers/STM32F4xx_HAL_Driver/Src/stm32f4xx_hal_can.c ****       (state == HAL_CAN_STATE_LISTENING))
1493:Drivers/STM32F4xx_HAL_Driver/Src/stm32f4xx_hal_can.c ****   {
1494:Drivers/STM32F4xx_HAL_Driver/Src/stm32f4xx_hal_can.c ****     /* Select the Tx mailbox */
1495:Drivers/STM32F4xx_HAL_Driver/Src/stm32f4xx_hal_can.c ****     transmitmailbox = POSITION_VAL(TxMailbox);
1496:Drivers/STM32F4xx_HAL_Driver/Src/stm32f4xx_hal_can.c **** 
1497:Drivers/STM32F4xx_HAL_Driver/Src/stm32f4xx_hal_can.c ****     /* Get timestamp */
1498:Drivers/STM32F4xx_HAL_Driver/Src/stm32f4xx_hal_can.c ****     timestamp = (hcan->Instance->sTxMailBox[transmitmailbox].TDTR & CAN_TDT0R_TIME) >> CAN_TDT0R_TI
1499:Drivers/STM32F4xx_HAL_Driver/Src/stm32f4xx_hal_can.c ****   }
1500:Drivers/STM32F4xx_HAL_Driver/Src/stm32f4xx_hal_can.c **** 
1501:Drivers/STM32F4xx_HAL_Driver/Src/stm32f4xx_hal_can.c ****   /* Return the timestamp */
1502:Drivers/STM32F4xx_HAL_Driver/Src/stm32f4xx_hal_can.c ****   return timestamp;
 1583              		.loc 1 1502 3 is_stmt 1 view .LVU508
1503:Drivers/STM32F4xx_HAL_Driver/Src/stm32f4xx_hal_can.c **** }
 1584              		.loc 1 1503 1 is_stmt 0 view .LVU509
 1585 000e 7047     		bx	lr
 1586              	.LVL120:
 1587              	.L133:
1495:Drivers/STM32F4xx_HAL_Driver/Src/stm32f4xx_hal_can.c **** 
 1588              		.loc 1 1495 5 is_stmt 1 view .LVU510
 1589              	.LBB4:
 1590              	.LBI4:
 1591              		.file 2 "Drivers/CMSIS/Include/cmsis_gcc.h"
   1:Drivers/CMSIS/Include/cmsis_gcc.h **** /**************************************************************************//**
   2:Drivers/CMSIS/Include/cmsis_gcc.h ****  * @file     cmsis_gcc.h
   3:Drivers/CMSIS/Include/cmsis_gcc.h ****  * @brief    CMSIS compiler GCC header file
   4:Drivers/CMSIS/Include/cmsis_gcc.h ****  * @version  V5.0.4
   5:Drivers/CMSIS/Include/cmsis_gcc.h ****  * @date     09. April 2018
   6:Drivers/CMSIS/Include/cmsis_gcc.h ****  ******************************************************************************/
ARM GAS  /tmp/ccrOzmIp.s 			page 60


   7:Drivers/CMSIS/Include/cmsis_gcc.h **** /*
   8:Drivers/CMSIS/Include/cmsis_gcc.h ****  * Copyright (c) 2009-2018 Arm Limited. All rights reserved.
   9:Drivers/CMSIS/Include/cmsis_gcc.h ****  *
  10:Drivers/CMSIS/Include/cmsis_gcc.h ****  * SPDX-License-Identifier: Apache-2.0
  11:Drivers/CMSIS/Include/cmsis_gcc.h ****  *
  12:Drivers/CMSIS/Include/cmsis_gcc.h ****  * Licensed under the Apache License, Version 2.0 (the License); you may
  13:Drivers/CMSIS/Include/cmsis_gcc.h ****  * not use this file except in compliance with the License.
  14:Drivers/CMSIS/Include/cmsis_gcc.h ****  * You may obtain a copy of the License at
  15:Drivers/CMSIS/Include/cmsis_gcc.h ****  *
  16:Drivers/CMSIS/Include/cmsis_gcc.h ****  * www.apache.org/licenses/LICENSE-2.0
  17:Drivers/CMSIS/Include/cmsis_gcc.h ****  *
  18:Drivers/CMSIS/Include/cmsis_gcc.h ****  * Unless required by applicable law or agreed to in writing, software
  19:Drivers/CMSIS/Include/cmsis_gcc.h ****  * distributed under the License is distributed on an AS IS BASIS, WITHOUT
  20:Drivers/CMSIS/Include/cmsis_gcc.h ****  * WARRANTIES OR CONDITIONS OF ANY KIND, either express or implied.
  21:Drivers/CMSIS/Include/cmsis_gcc.h ****  * See the License for the specific language governing permissions and
  22:Drivers/CMSIS/Include/cmsis_gcc.h ****  * limitations under the License.
  23:Drivers/CMSIS/Include/cmsis_gcc.h ****  */
  24:Drivers/CMSIS/Include/cmsis_gcc.h **** 
  25:Drivers/CMSIS/Include/cmsis_gcc.h **** #ifndef __CMSIS_GCC_H
  26:Drivers/CMSIS/Include/cmsis_gcc.h **** #define __CMSIS_GCC_H
  27:Drivers/CMSIS/Include/cmsis_gcc.h **** 
  28:Drivers/CMSIS/Include/cmsis_gcc.h **** /* ignore some GCC warnings */
  29:Drivers/CMSIS/Include/cmsis_gcc.h **** #pragma GCC diagnostic push
  30:Drivers/CMSIS/Include/cmsis_gcc.h **** #pragma GCC diagnostic ignored "-Wsign-conversion"
  31:Drivers/CMSIS/Include/cmsis_gcc.h **** #pragma GCC diagnostic ignored "-Wconversion"
  32:Drivers/CMSIS/Include/cmsis_gcc.h **** #pragma GCC diagnostic ignored "-Wunused-parameter"
  33:Drivers/CMSIS/Include/cmsis_gcc.h **** 
  34:Drivers/CMSIS/Include/cmsis_gcc.h **** /* Fallback for __has_builtin */
  35:Drivers/CMSIS/Include/cmsis_gcc.h **** #ifndef __has_builtin
  36:Drivers/CMSIS/Include/cmsis_gcc.h ****   #define __has_builtin(x) (0)
  37:Drivers/CMSIS/Include/cmsis_gcc.h **** #endif
  38:Drivers/CMSIS/Include/cmsis_gcc.h **** 
  39:Drivers/CMSIS/Include/cmsis_gcc.h **** /* CMSIS compiler specific defines */
  40:Drivers/CMSIS/Include/cmsis_gcc.h **** #ifndef   __ASM
  41:Drivers/CMSIS/Include/cmsis_gcc.h ****   #define __ASM                                  __asm
  42:Drivers/CMSIS/Include/cmsis_gcc.h **** #endif
  43:Drivers/CMSIS/Include/cmsis_gcc.h **** #ifndef   __INLINE
  44:Drivers/CMSIS/Include/cmsis_gcc.h ****   #define __INLINE                               inline
  45:Drivers/CMSIS/Include/cmsis_gcc.h **** #endif
  46:Drivers/CMSIS/Include/cmsis_gcc.h **** #ifndef   __STATIC_INLINE
  47:Drivers/CMSIS/Include/cmsis_gcc.h ****   #define __STATIC_INLINE                        static inline
  48:Drivers/CMSIS/Include/cmsis_gcc.h **** #endif
  49:Drivers/CMSIS/Include/cmsis_gcc.h **** #ifndef   __STATIC_FORCEINLINE                 
  50:Drivers/CMSIS/Include/cmsis_gcc.h ****   #define __STATIC_FORCEINLINE                   __attribute__((always_inline)) static inline
  51:Drivers/CMSIS/Include/cmsis_gcc.h **** #endif                                           
  52:Drivers/CMSIS/Include/cmsis_gcc.h **** #ifndef   __NO_RETURN
  53:Drivers/CMSIS/Include/cmsis_gcc.h ****   #define __NO_RETURN                            __attribute__((__noreturn__))
  54:Drivers/CMSIS/Include/cmsis_gcc.h **** #endif
  55:Drivers/CMSIS/Include/cmsis_gcc.h **** #ifndef   __USED
  56:Drivers/CMSIS/Include/cmsis_gcc.h ****   #define __USED                                 __attribute__((used))
  57:Drivers/CMSIS/Include/cmsis_gcc.h **** #endif
  58:Drivers/CMSIS/Include/cmsis_gcc.h **** #ifndef   __WEAK
  59:Drivers/CMSIS/Include/cmsis_gcc.h ****   #define __WEAK                                 __attribute__((weak))
  60:Drivers/CMSIS/Include/cmsis_gcc.h **** #endif
  61:Drivers/CMSIS/Include/cmsis_gcc.h **** #ifndef   __PACKED
  62:Drivers/CMSIS/Include/cmsis_gcc.h ****   #define __PACKED                               __attribute__((packed, aligned(1)))
  63:Drivers/CMSIS/Include/cmsis_gcc.h **** #endif
ARM GAS  /tmp/ccrOzmIp.s 			page 61


  64:Drivers/CMSIS/Include/cmsis_gcc.h **** #ifndef   __PACKED_STRUCT
  65:Drivers/CMSIS/Include/cmsis_gcc.h ****   #define __PACKED_STRUCT                        struct __attribute__((packed, aligned(1)))
  66:Drivers/CMSIS/Include/cmsis_gcc.h **** #endif
  67:Drivers/CMSIS/Include/cmsis_gcc.h **** #ifndef   __PACKED_UNION
  68:Drivers/CMSIS/Include/cmsis_gcc.h ****   #define __PACKED_UNION                         union __attribute__((packed, aligned(1)))
  69:Drivers/CMSIS/Include/cmsis_gcc.h **** #endif
  70:Drivers/CMSIS/Include/cmsis_gcc.h **** #ifndef   __UNALIGNED_UINT32        /* deprecated */
  71:Drivers/CMSIS/Include/cmsis_gcc.h ****   #pragma GCC diagnostic push
  72:Drivers/CMSIS/Include/cmsis_gcc.h ****   #pragma GCC diagnostic ignored "-Wpacked"
  73:Drivers/CMSIS/Include/cmsis_gcc.h ****   #pragma GCC diagnostic ignored "-Wattributes"
  74:Drivers/CMSIS/Include/cmsis_gcc.h ****   struct __attribute__((packed)) T_UINT32 { uint32_t v; };
  75:Drivers/CMSIS/Include/cmsis_gcc.h ****   #pragma GCC diagnostic pop
  76:Drivers/CMSIS/Include/cmsis_gcc.h ****   #define __UNALIGNED_UINT32(x)                  (((struct T_UINT32 *)(x))->v)
  77:Drivers/CMSIS/Include/cmsis_gcc.h **** #endif
  78:Drivers/CMSIS/Include/cmsis_gcc.h **** #ifndef   __UNALIGNED_UINT16_WRITE
  79:Drivers/CMSIS/Include/cmsis_gcc.h ****   #pragma GCC diagnostic push
  80:Drivers/CMSIS/Include/cmsis_gcc.h ****   #pragma GCC diagnostic ignored "-Wpacked"
  81:Drivers/CMSIS/Include/cmsis_gcc.h ****   #pragma GCC diagnostic ignored "-Wattributes"
  82:Drivers/CMSIS/Include/cmsis_gcc.h ****   __PACKED_STRUCT T_UINT16_WRITE { uint16_t v; };
  83:Drivers/CMSIS/Include/cmsis_gcc.h ****   #pragma GCC diagnostic pop
  84:Drivers/CMSIS/Include/cmsis_gcc.h ****   #define __UNALIGNED_UINT16_WRITE(addr, val)    (void)((((struct T_UINT16_WRITE *)(void *)(addr))-
  85:Drivers/CMSIS/Include/cmsis_gcc.h **** #endif
  86:Drivers/CMSIS/Include/cmsis_gcc.h **** #ifndef   __UNALIGNED_UINT16_READ
  87:Drivers/CMSIS/Include/cmsis_gcc.h ****   #pragma GCC diagnostic push
  88:Drivers/CMSIS/Include/cmsis_gcc.h ****   #pragma GCC diagnostic ignored "-Wpacked"
  89:Drivers/CMSIS/Include/cmsis_gcc.h ****   #pragma GCC diagnostic ignored "-Wattributes"
  90:Drivers/CMSIS/Include/cmsis_gcc.h ****   __PACKED_STRUCT T_UINT16_READ { uint16_t v; };
  91:Drivers/CMSIS/Include/cmsis_gcc.h ****   #pragma GCC diagnostic pop
  92:Drivers/CMSIS/Include/cmsis_gcc.h ****   #define __UNALIGNED_UINT16_READ(addr)          (((const struct T_UINT16_READ *)(const void *)(add
  93:Drivers/CMSIS/Include/cmsis_gcc.h **** #endif
  94:Drivers/CMSIS/Include/cmsis_gcc.h **** #ifndef   __UNALIGNED_UINT32_WRITE
  95:Drivers/CMSIS/Include/cmsis_gcc.h ****   #pragma GCC diagnostic push
  96:Drivers/CMSIS/Include/cmsis_gcc.h ****   #pragma GCC diagnostic ignored "-Wpacked"
  97:Drivers/CMSIS/Include/cmsis_gcc.h ****   #pragma GCC diagnostic ignored "-Wattributes"
  98:Drivers/CMSIS/Include/cmsis_gcc.h ****   __PACKED_STRUCT T_UINT32_WRITE { uint32_t v; };
  99:Drivers/CMSIS/Include/cmsis_gcc.h ****   #pragma GCC diagnostic pop
 100:Drivers/CMSIS/Include/cmsis_gcc.h ****   #define __UNALIGNED_UINT32_WRITE(addr, val)    (void)((((struct T_UINT32_WRITE *)(void *)(addr))-
 101:Drivers/CMSIS/Include/cmsis_gcc.h **** #endif
 102:Drivers/CMSIS/Include/cmsis_gcc.h **** #ifndef   __UNALIGNED_UINT32_READ
 103:Drivers/CMSIS/Include/cmsis_gcc.h ****   #pragma GCC diagnostic push
 104:Drivers/CMSIS/Include/cmsis_gcc.h ****   #pragma GCC diagnostic ignored "-Wpacked"
 105:Drivers/CMSIS/Include/cmsis_gcc.h ****   #pragma GCC diagnostic ignored "-Wattributes"
 106:Drivers/CMSIS/Include/cmsis_gcc.h ****   __PACKED_STRUCT T_UINT32_READ { uint32_t v; };
 107:Drivers/CMSIS/Include/cmsis_gcc.h ****   #pragma GCC diagnostic pop
 108:Drivers/CMSIS/Include/cmsis_gcc.h ****   #define __UNALIGNED_UINT32_READ(addr)          (((const struct T_UINT32_READ *)(const void *)(add
 109:Drivers/CMSIS/Include/cmsis_gcc.h **** #endif
 110:Drivers/CMSIS/Include/cmsis_gcc.h **** #ifndef   __ALIGNED
 111:Drivers/CMSIS/Include/cmsis_gcc.h ****   #define __ALIGNED(x)                           __attribute__((aligned(x)))
 112:Drivers/CMSIS/Include/cmsis_gcc.h **** #endif
 113:Drivers/CMSIS/Include/cmsis_gcc.h **** #ifndef   __RESTRICT
 114:Drivers/CMSIS/Include/cmsis_gcc.h ****   #define __RESTRICT                             __restrict
 115:Drivers/CMSIS/Include/cmsis_gcc.h **** #endif
 116:Drivers/CMSIS/Include/cmsis_gcc.h **** 
 117:Drivers/CMSIS/Include/cmsis_gcc.h **** 
 118:Drivers/CMSIS/Include/cmsis_gcc.h **** /* ###########################  Core Function Access  ########################### */
 119:Drivers/CMSIS/Include/cmsis_gcc.h **** /** \ingroup  CMSIS_Core_FunctionInterface
 120:Drivers/CMSIS/Include/cmsis_gcc.h ****     \defgroup CMSIS_Core_RegAccFunctions CMSIS Core Register Access Functions
ARM GAS  /tmp/ccrOzmIp.s 			page 62


 121:Drivers/CMSIS/Include/cmsis_gcc.h ****   @{
 122:Drivers/CMSIS/Include/cmsis_gcc.h ****  */
 123:Drivers/CMSIS/Include/cmsis_gcc.h **** 
 124:Drivers/CMSIS/Include/cmsis_gcc.h **** /**
 125:Drivers/CMSIS/Include/cmsis_gcc.h ****   \brief   Enable IRQ Interrupts
 126:Drivers/CMSIS/Include/cmsis_gcc.h ****   \details Enables IRQ interrupts by clearing the I-bit in the CPSR.
 127:Drivers/CMSIS/Include/cmsis_gcc.h ****            Can only be executed in Privileged modes.
 128:Drivers/CMSIS/Include/cmsis_gcc.h ****  */
 129:Drivers/CMSIS/Include/cmsis_gcc.h **** __STATIC_FORCEINLINE void __enable_irq(void)
 130:Drivers/CMSIS/Include/cmsis_gcc.h **** {
 131:Drivers/CMSIS/Include/cmsis_gcc.h ****   __ASM volatile ("cpsie i" : : : "memory");
 132:Drivers/CMSIS/Include/cmsis_gcc.h **** }
 133:Drivers/CMSIS/Include/cmsis_gcc.h **** 
 134:Drivers/CMSIS/Include/cmsis_gcc.h **** 
 135:Drivers/CMSIS/Include/cmsis_gcc.h **** /**
 136:Drivers/CMSIS/Include/cmsis_gcc.h ****   \brief   Disable IRQ Interrupts
 137:Drivers/CMSIS/Include/cmsis_gcc.h ****   \details Disables IRQ interrupts by setting the I-bit in the CPSR.
 138:Drivers/CMSIS/Include/cmsis_gcc.h ****            Can only be executed in Privileged modes.
 139:Drivers/CMSIS/Include/cmsis_gcc.h ****  */
 140:Drivers/CMSIS/Include/cmsis_gcc.h **** __STATIC_FORCEINLINE void __disable_irq(void)
 141:Drivers/CMSIS/Include/cmsis_gcc.h **** {
 142:Drivers/CMSIS/Include/cmsis_gcc.h ****   __ASM volatile ("cpsid i" : : : "memory");
 143:Drivers/CMSIS/Include/cmsis_gcc.h **** }
 144:Drivers/CMSIS/Include/cmsis_gcc.h **** 
 145:Drivers/CMSIS/Include/cmsis_gcc.h **** 
 146:Drivers/CMSIS/Include/cmsis_gcc.h **** /**
 147:Drivers/CMSIS/Include/cmsis_gcc.h ****   \brief   Get Control Register
 148:Drivers/CMSIS/Include/cmsis_gcc.h ****   \details Returns the content of the Control Register.
 149:Drivers/CMSIS/Include/cmsis_gcc.h ****   \return               Control Register value
 150:Drivers/CMSIS/Include/cmsis_gcc.h ****  */
 151:Drivers/CMSIS/Include/cmsis_gcc.h **** __STATIC_FORCEINLINE uint32_t __get_CONTROL(void)
 152:Drivers/CMSIS/Include/cmsis_gcc.h **** {
 153:Drivers/CMSIS/Include/cmsis_gcc.h ****   uint32_t result;
 154:Drivers/CMSIS/Include/cmsis_gcc.h **** 
 155:Drivers/CMSIS/Include/cmsis_gcc.h ****   __ASM volatile ("MRS %0, control" : "=r" (result) );
 156:Drivers/CMSIS/Include/cmsis_gcc.h ****   return(result);
 157:Drivers/CMSIS/Include/cmsis_gcc.h **** }
 158:Drivers/CMSIS/Include/cmsis_gcc.h **** 
 159:Drivers/CMSIS/Include/cmsis_gcc.h **** 
 160:Drivers/CMSIS/Include/cmsis_gcc.h **** #if (defined (__ARM_FEATURE_CMSE ) && (__ARM_FEATURE_CMSE == 3))
 161:Drivers/CMSIS/Include/cmsis_gcc.h **** /**
 162:Drivers/CMSIS/Include/cmsis_gcc.h ****   \brief   Get Control Register (non-secure)
 163:Drivers/CMSIS/Include/cmsis_gcc.h ****   \details Returns the content of the non-secure Control Register when in secure mode.
 164:Drivers/CMSIS/Include/cmsis_gcc.h ****   \return               non-secure Control Register value
 165:Drivers/CMSIS/Include/cmsis_gcc.h ****  */
 166:Drivers/CMSIS/Include/cmsis_gcc.h **** __STATIC_FORCEINLINE uint32_t __TZ_get_CONTROL_NS(void)
 167:Drivers/CMSIS/Include/cmsis_gcc.h **** {
 168:Drivers/CMSIS/Include/cmsis_gcc.h ****   uint32_t result;
 169:Drivers/CMSIS/Include/cmsis_gcc.h **** 
 170:Drivers/CMSIS/Include/cmsis_gcc.h ****   __ASM volatile ("MRS %0, control_ns" : "=r" (result) );
 171:Drivers/CMSIS/Include/cmsis_gcc.h ****   return(result);
 172:Drivers/CMSIS/Include/cmsis_gcc.h **** }
 173:Drivers/CMSIS/Include/cmsis_gcc.h **** #endif
 174:Drivers/CMSIS/Include/cmsis_gcc.h **** 
 175:Drivers/CMSIS/Include/cmsis_gcc.h **** 
 176:Drivers/CMSIS/Include/cmsis_gcc.h **** /**
 177:Drivers/CMSIS/Include/cmsis_gcc.h ****   \brief   Set Control Register
ARM GAS  /tmp/ccrOzmIp.s 			page 63


 178:Drivers/CMSIS/Include/cmsis_gcc.h ****   \details Writes the given value to the Control Register.
 179:Drivers/CMSIS/Include/cmsis_gcc.h ****   \param [in]    control  Control Register value to set
 180:Drivers/CMSIS/Include/cmsis_gcc.h ****  */
 181:Drivers/CMSIS/Include/cmsis_gcc.h **** __STATIC_FORCEINLINE void __set_CONTROL(uint32_t control)
 182:Drivers/CMSIS/Include/cmsis_gcc.h **** {
 183:Drivers/CMSIS/Include/cmsis_gcc.h ****   __ASM volatile ("MSR control, %0" : : "r" (control) : "memory");
 184:Drivers/CMSIS/Include/cmsis_gcc.h **** }
 185:Drivers/CMSIS/Include/cmsis_gcc.h **** 
 186:Drivers/CMSIS/Include/cmsis_gcc.h **** 
 187:Drivers/CMSIS/Include/cmsis_gcc.h **** #if (defined (__ARM_FEATURE_CMSE ) && (__ARM_FEATURE_CMSE == 3))
 188:Drivers/CMSIS/Include/cmsis_gcc.h **** /**
 189:Drivers/CMSIS/Include/cmsis_gcc.h ****   \brief   Set Control Register (non-secure)
 190:Drivers/CMSIS/Include/cmsis_gcc.h ****   \details Writes the given value to the non-secure Control Register when in secure state.
 191:Drivers/CMSIS/Include/cmsis_gcc.h ****   \param [in]    control  Control Register value to set
 192:Drivers/CMSIS/Include/cmsis_gcc.h ****  */
 193:Drivers/CMSIS/Include/cmsis_gcc.h **** __STATIC_FORCEINLINE void __TZ_set_CONTROL_NS(uint32_t control)
 194:Drivers/CMSIS/Include/cmsis_gcc.h **** {
 195:Drivers/CMSIS/Include/cmsis_gcc.h ****   __ASM volatile ("MSR control_ns, %0" : : "r" (control) : "memory");
 196:Drivers/CMSIS/Include/cmsis_gcc.h **** }
 197:Drivers/CMSIS/Include/cmsis_gcc.h **** #endif
 198:Drivers/CMSIS/Include/cmsis_gcc.h **** 
 199:Drivers/CMSIS/Include/cmsis_gcc.h **** 
 200:Drivers/CMSIS/Include/cmsis_gcc.h **** /**
 201:Drivers/CMSIS/Include/cmsis_gcc.h ****   \brief   Get IPSR Register
 202:Drivers/CMSIS/Include/cmsis_gcc.h ****   \details Returns the content of the IPSR Register.
 203:Drivers/CMSIS/Include/cmsis_gcc.h ****   \return               IPSR Register value
 204:Drivers/CMSIS/Include/cmsis_gcc.h ****  */
 205:Drivers/CMSIS/Include/cmsis_gcc.h **** __STATIC_FORCEINLINE uint32_t __get_IPSR(void)
 206:Drivers/CMSIS/Include/cmsis_gcc.h **** {
 207:Drivers/CMSIS/Include/cmsis_gcc.h ****   uint32_t result;
 208:Drivers/CMSIS/Include/cmsis_gcc.h **** 
 209:Drivers/CMSIS/Include/cmsis_gcc.h ****   __ASM volatile ("MRS %0, ipsr" : "=r" (result) );
 210:Drivers/CMSIS/Include/cmsis_gcc.h ****   return(result);
 211:Drivers/CMSIS/Include/cmsis_gcc.h **** }
 212:Drivers/CMSIS/Include/cmsis_gcc.h **** 
 213:Drivers/CMSIS/Include/cmsis_gcc.h **** 
 214:Drivers/CMSIS/Include/cmsis_gcc.h **** /**
 215:Drivers/CMSIS/Include/cmsis_gcc.h ****   \brief   Get APSR Register
 216:Drivers/CMSIS/Include/cmsis_gcc.h ****   \details Returns the content of the APSR Register.
 217:Drivers/CMSIS/Include/cmsis_gcc.h ****   \return               APSR Register value
 218:Drivers/CMSIS/Include/cmsis_gcc.h ****  */
 219:Drivers/CMSIS/Include/cmsis_gcc.h **** __STATIC_FORCEINLINE uint32_t __get_APSR(void)
 220:Drivers/CMSIS/Include/cmsis_gcc.h **** {
 221:Drivers/CMSIS/Include/cmsis_gcc.h ****   uint32_t result;
 222:Drivers/CMSIS/Include/cmsis_gcc.h **** 
 223:Drivers/CMSIS/Include/cmsis_gcc.h ****   __ASM volatile ("MRS %0, apsr" : "=r" (result) );
 224:Drivers/CMSIS/Include/cmsis_gcc.h ****   return(result);
 225:Drivers/CMSIS/Include/cmsis_gcc.h **** }
 226:Drivers/CMSIS/Include/cmsis_gcc.h **** 
 227:Drivers/CMSIS/Include/cmsis_gcc.h **** 
 228:Drivers/CMSIS/Include/cmsis_gcc.h **** /**
 229:Drivers/CMSIS/Include/cmsis_gcc.h ****   \brief   Get xPSR Register
 230:Drivers/CMSIS/Include/cmsis_gcc.h ****   \details Returns the content of the xPSR Register.
 231:Drivers/CMSIS/Include/cmsis_gcc.h ****   \return               xPSR Register value
 232:Drivers/CMSIS/Include/cmsis_gcc.h ****  */
 233:Drivers/CMSIS/Include/cmsis_gcc.h **** __STATIC_FORCEINLINE uint32_t __get_xPSR(void)
 234:Drivers/CMSIS/Include/cmsis_gcc.h **** {
ARM GAS  /tmp/ccrOzmIp.s 			page 64


 235:Drivers/CMSIS/Include/cmsis_gcc.h ****   uint32_t result;
 236:Drivers/CMSIS/Include/cmsis_gcc.h **** 
 237:Drivers/CMSIS/Include/cmsis_gcc.h ****   __ASM volatile ("MRS %0, xpsr" : "=r" (result) );
 238:Drivers/CMSIS/Include/cmsis_gcc.h ****   return(result);
 239:Drivers/CMSIS/Include/cmsis_gcc.h **** }
 240:Drivers/CMSIS/Include/cmsis_gcc.h **** 
 241:Drivers/CMSIS/Include/cmsis_gcc.h **** 
 242:Drivers/CMSIS/Include/cmsis_gcc.h **** /**
 243:Drivers/CMSIS/Include/cmsis_gcc.h ****   \brief   Get Process Stack Pointer
 244:Drivers/CMSIS/Include/cmsis_gcc.h ****   \details Returns the current value of the Process Stack Pointer (PSP).
 245:Drivers/CMSIS/Include/cmsis_gcc.h ****   \return               PSP Register value
 246:Drivers/CMSIS/Include/cmsis_gcc.h ****  */
 247:Drivers/CMSIS/Include/cmsis_gcc.h **** __STATIC_FORCEINLINE uint32_t __get_PSP(void)
 248:Drivers/CMSIS/Include/cmsis_gcc.h **** {
 249:Drivers/CMSIS/Include/cmsis_gcc.h ****   uint32_t result;
 250:Drivers/CMSIS/Include/cmsis_gcc.h **** 
 251:Drivers/CMSIS/Include/cmsis_gcc.h ****   __ASM volatile ("MRS %0, psp"  : "=r" (result) );
 252:Drivers/CMSIS/Include/cmsis_gcc.h ****   return(result);
 253:Drivers/CMSIS/Include/cmsis_gcc.h **** }
 254:Drivers/CMSIS/Include/cmsis_gcc.h **** 
 255:Drivers/CMSIS/Include/cmsis_gcc.h **** 
 256:Drivers/CMSIS/Include/cmsis_gcc.h **** #if (defined (__ARM_FEATURE_CMSE ) && (__ARM_FEATURE_CMSE == 3))
 257:Drivers/CMSIS/Include/cmsis_gcc.h **** /**
 258:Drivers/CMSIS/Include/cmsis_gcc.h ****   \brief   Get Process Stack Pointer (non-secure)
 259:Drivers/CMSIS/Include/cmsis_gcc.h ****   \details Returns the current value of the non-secure Process Stack Pointer (PSP) when in secure s
 260:Drivers/CMSIS/Include/cmsis_gcc.h ****   \return               PSP Register value
 261:Drivers/CMSIS/Include/cmsis_gcc.h ****  */
 262:Drivers/CMSIS/Include/cmsis_gcc.h **** __STATIC_FORCEINLINE uint32_t __TZ_get_PSP_NS(void)
 263:Drivers/CMSIS/Include/cmsis_gcc.h **** {
 264:Drivers/CMSIS/Include/cmsis_gcc.h ****   uint32_t result;
 265:Drivers/CMSIS/Include/cmsis_gcc.h **** 
 266:Drivers/CMSIS/Include/cmsis_gcc.h ****   __ASM volatile ("MRS %0, psp_ns"  : "=r" (result) );
 267:Drivers/CMSIS/Include/cmsis_gcc.h ****   return(result);
 268:Drivers/CMSIS/Include/cmsis_gcc.h **** }
 269:Drivers/CMSIS/Include/cmsis_gcc.h **** #endif
 270:Drivers/CMSIS/Include/cmsis_gcc.h **** 
 271:Drivers/CMSIS/Include/cmsis_gcc.h **** 
 272:Drivers/CMSIS/Include/cmsis_gcc.h **** /**
 273:Drivers/CMSIS/Include/cmsis_gcc.h ****   \brief   Set Process Stack Pointer
 274:Drivers/CMSIS/Include/cmsis_gcc.h ****   \details Assigns the given value to the Process Stack Pointer (PSP).
 275:Drivers/CMSIS/Include/cmsis_gcc.h ****   \param [in]    topOfProcStack  Process Stack Pointer value to set
 276:Drivers/CMSIS/Include/cmsis_gcc.h ****  */
 277:Drivers/CMSIS/Include/cmsis_gcc.h **** __STATIC_FORCEINLINE void __set_PSP(uint32_t topOfProcStack)
 278:Drivers/CMSIS/Include/cmsis_gcc.h **** {
 279:Drivers/CMSIS/Include/cmsis_gcc.h ****   __ASM volatile ("MSR psp, %0" : : "r" (topOfProcStack) : );
 280:Drivers/CMSIS/Include/cmsis_gcc.h **** }
 281:Drivers/CMSIS/Include/cmsis_gcc.h **** 
 282:Drivers/CMSIS/Include/cmsis_gcc.h **** 
 283:Drivers/CMSIS/Include/cmsis_gcc.h **** #if (defined (__ARM_FEATURE_CMSE ) && (__ARM_FEATURE_CMSE == 3))
 284:Drivers/CMSIS/Include/cmsis_gcc.h **** /**
 285:Drivers/CMSIS/Include/cmsis_gcc.h ****   \brief   Set Process Stack Pointer (non-secure)
 286:Drivers/CMSIS/Include/cmsis_gcc.h ****   \details Assigns the given value to the non-secure Process Stack Pointer (PSP) when in secure sta
 287:Drivers/CMSIS/Include/cmsis_gcc.h ****   \param [in]    topOfProcStack  Process Stack Pointer value to set
 288:Drivers/CMSIS/Include/cmsis_gcc.h ****  */
 289:Drivers/CMSIS/Include/cmsis_gcc.h **** __STATIC_FORCEINLINE void __TZ_set_PSP_NS(uint32_t topOfProcStack)
 290:Drivers/CMSIS/Include/cmsis_gcc.h **** {
 291:Drivers/CMSIS/Include/cmsis_gcc.h ****   __ASM volatile ("MSR psp_ns, %0" : : "r" (topOfProcStack) : );
ARM GAS  /tmp/ccrOzmIp.s 			page 65


 292:Drivers/CMSIS/Include/cmsis_gcc.h **** }
 293:Drivers/CMSIS/Include/cmsis_gcc.h **** #endif
 294:Drivers/CMSIS/Include/cmsis_gcc.h **** 
 295:Drivers/CMSIS/Include/cmsis_gcc.h **** 
 296:Drivers/CMSIS/Include/cmsis_gcc.h **** /**
 297:Drivers/CMSIS/Include/cmsis_gcc.h ****   \brief   Get Main Stack Pointer
 298:Drivers/CMSIS/Include/cmsis_gcc.h ****   \details Returns the current value of the Main Stack Pointer (MSP).
 299:Drivers/CMSIS/Include/cmsis_gcc.h ****   \return               MSP Register value
 300:Drivers/CMSIS/Include/cmsis_gcc.h ****  */
 301:Drivers/CMSIS/Include/cmsis_gcc.h **** __STATIC_FORCEINLINE uint32_t __get_MSP(void)
 302:Drivers/CMSIS/Include/cmsis_gcc.h **** {
 303:Drivers/CMSIS/Include/cmsis_gcc.h ****   uint32_t result;
 304:Drivers/CMSIS/Include/cmsis_gcc.h **** 
 305:Drivers/CMSIS/Include/cmsis_gcc.h ****   __ASM volatile ("MRS %0, msp" : "=r" (result) );
 306:Drivers/CMSIS/Include/cmsis_gcc.h ****   return(result);
 307:Drivers/CMSIS/Include/cmsis_gcc.h **** }
 308:Drivers/CMSIS/Include/cmsis_gcc.h **** 
 309:Drivers/CMSIS/Include/cmsis_gcc.h **** 
 310:Drivers/CMSIS/Include/cmsis_gcc.h **** #if (defined (__ARM_FEATURE_CMSE ) && (__ARM_FEATURE_CMSE == 3))
 311:Drivers/CMSIS/Include/cmsis_gcc.h **** /**
 312:Drivers/CMSIS/Include/cmsis_gcc.h ****   \brief   Get Main Stack Pointer (non-secure)
 313:Drivers/CMSIS/Include/cmsis_gcc.h ****   \details Returns the current value of the non-secure Main Stack Pointer (MSP) when in secure stat
 314:Drivers/CMSIS/Include/cmsis_gcc.h ****   \return               MSP Register value
 315:Drivers/CMSIS/Include/cmsis_gcc.h ****  */
 316:Drivers/CMSIS/Include/cmsis_gcc.h **** __STATIC_FORCEINLINE uint32_t __TZ_get_MSP_NS(void)
 317:Drivers/CMSIS/Include/cmsis_gcc.h **** {
 318:Drivers/CMSIS/Include/cmsis_gcc.h ****   uint32_t result;
 319:Drivers/CMSIS/Include/cmsis_gcc.h **** 
 320:Drivers/CMSIS/Include/cmsis_gcc.h ****   __ASM volatile ("MRS %0, msp_ns" : "=r" (result) );
 321:Drivers/CMSIS/Include/cmsis_gcc.h ****   return(result);
 322:Drivers/CMSIS/Include/cmsis_gcc.h **** }
 323:Drivers/CMSIS/Include/cmsis_gcc.h **** #endif
 324:Drivers/CMSIS/Include/cmsis_gcc.h **** 
 325:Drivers/CMSIS/Include/cmsis_gcc.h **** 
 326:Drivers/CMSIS/Include/cmsis_gcc.h **** /**
 327:Drivers/CMSIS/Include/cmsis_gcc.h ****   \brief   Set Main Stack Pointer
 328:Drivers/CMSIS/Include/cmsis_gcc.h ****   \details Assigns the given value to the Main Stack Pointer (MSP).
 329:Drivers/CMSIS/Include/cmsis_gcc.h ****   \param [in]    topOfMainStack  Main Stack Pointer value to set
 330:Drivers/CMSIS/Include/cmsis_gcc.h ****  */
 331:Drivers/CMSIS/Include/cmsis_gcc.h **** __STATIC_FORCEINLINE void __set_MSP(uint32_t topOfMainStack)
 332:Drivers/CMSIS/Include/cmsis_gcc.h **** {
 333:Drivers/CMSIS/Include/cmsis_gcc.h ****   __ASM volatile ("MSR msp, %0" : : "r" (topOfMainStack) : );
 334:Drivers/CMSIS/Include/cmsis_gcc.h **** }
 335:Drivers/CMSIS/Include/cmsis_gcc.h **** 
 336:Drivers/CMSIS/Include/cmsis_gcc.h **** 
 337:Drivers/CMSIS/Include/cmsis_gcc.h **** #if (defined (__ARM_FEATURE_CMSE ) && (__ARM_FEATURE_CMSE == 3))
 338:Drivers/CMSIS/Include/cmsis_gcc.h **** /**
 339:Drivers/CMSIS/Include/cmsis_gcc.h ****   \brief   Set Main Stack Pointer (non-secure)
 340:Drivers/CMSIS/Include/cmsis_gcc.h ****   \details Assigns the given value to the non-secure Main Stack Pointer (MSP) when in secure state.
 341:Drivers/CMSIS/Include/cmsis_gcc.h ****   \param [in]    topOfMainStack  Main Stack Pointer value to set
 342:Drivers/CMSIS/Include/cmsis_gcc.h ****  */
 343:Drivers/CMSIS/Include/cmsis_gcc.h **** __STATIC_FORCEINLINE void __TZ_set_MSP_NS(uint32_t topOfMainStack)
 344:Drivers/CMSIS/Include/cmsis_gcc.h **** {
 345:Drivers/CMSIS/Include/cmsis_gcc.h ****   __ASM volatile ("MSR msp_ns, %0" : : "r" (topOfMainStack) : );
 346:Drivers/CMSIS/Include/cmsis_gcc.h **** }
 347:Drivers/CMSIS/Include/cmsis_gcc.h **** #endif
 348:Drivers/CMSIS/Include/cmsis_gcc.h **** 
ARM GAS  /tmp/ccrOzmIp.s 			page 66


 349:Drivers/CMSIS/Include/cmsis_gcc.h **** 
 350:Drivers/CMSIS/Include/cmsis_gcc.h **** #if (defined (__ARM_FEATURE_CMSE ) && (__ARM_FEATURE_CMSE == 3))
 351:Drivers/CMSIS/Include/cmsis_gcc.h **** /**
 352:Drivers/CMSIS/Include/cmsis_gcc.h ****   \brief   Get Stack Pointer (non-secure)
 353:Drivers/CMSIS/Include/cmsis_gcc.h ****   \details Returns the current value of the non-secure Stack Pointer (SP) when in secure state.
 354:Drivers/CMSIS/Include/cmsis_gcc.h ****   \return               SP Register value
 355:Drivers/CMSIS/Include/cmsis_gcc.h ****  */
 356:Drivers/CMSIS/Include/cmsis_gcc.h **** __STATIC_FORCEINLINE uint32_t __TZ_get_SP_NS(void)
 357:Drivers/CMSIS/Include/cmsis_gcc.h **** {
 358:Drivers/CMSIS/Include/cmsis_gcc.h ****   uint32_t result;
 359:Drivers/CMSIS/Include/cmsis_gcc.h **** 
 360:Drivers/CMSIS/Include/cmsis_gcc.h ****   __ASM volatile ("MRS %0, sp_ns" : "=r" (result) );
 361:Drivers/CMSIS/Include/cmsis_gcc.h ****   return(result);
 362:Drivers/CMSIS/Include/cmsis_gcc.h **** }
 363:Drivers/CMSIS/Include/cmsis_gcc.h **** 
 364:Drivers/CMSIS/Include/cmsis_gcc.h **** 
 365:Drivers/CMSIS/Include/cmsis_gcc.h **** /**
 366:Drivers/CMSIS/Include/cmsis_gcc.h ****   \brief   Set Stack Pointer (non-secure)
 367:Drivers/CMSIS/Include/cmsis_gcc.h ****   \details Assigns the given value to the non-secure Stack Pointer (SP) when in secure state.
 368:Drivers/CMSIS/Include/cmsis_gcc.h ****   \param [in]    topOfStack  Stack Pointer value to set
 369:Drivers/CMSIS/Include/cmsis_gcc.h ****  */
 370:Drivers/CMSIS/Include/cmsis_gcc.h **** __STATIC_FORCEINLINE void __TZ_set_SP_NS(uint32_t topOfStack)
 371:Drivers/CMSIS/Include/cmsis_gcc.h **** {
 372:Drivers/CMSIS/Include/cmsis_gcc.h ****   __ASM volatile ("MSR sp_ns, %0" : : "r" (topOfStack) : );
 373:Drivers/CMSIS/Include/cmsis_gcc.h **** }
 374:Drivers/CMSIS/Include/cmsis_gcc.h **** #endif
 375:Drivers/CMSIS/Include/cmsis_gcc.h **** 
 376:Drivers/CMSIS/Include/cmsis_gcc.h **** 
 377:Drivers/CMSIS/Include/cmsis_gcc.h **** /**
 378:Drivers/CMSIS/Include/cmsis_gcc.h ****   \brief   Get Priority Mask
 379:Drivers/CMSIS/Include/cmsis_gcc.h ****   \details Returns the current state of the priority mask bit from the Priority Mask Register.
 380:Drivers/CMSIS/Include/cmsis_gcc.h ****   \return               Priority Mask value
 381:Drivers/CMSIS/Include/cmsis_gcc.h ****  */
 382:Drivers/CMSIS/Include/cmsis_gcc.h **** __STATIC_FORCEINLINE uint32_t __get_PRIMASK(void)
 383:Drivers/CMSIS/Include/cmsis_gcc.h **** {
 384:Drivers/CMSIS/Include/cmsis_gcc.h ****   uint32_t result;
 385:Drivers/CMSIS/Include/cmsis_gcc.h **** 
 386:Drivers/CMSIS/Include/cmsis_gcc.h ****   __ASM volatile ("MRS %0, primask" : "=r" (result) :: "memory");
 387:Drivers/CMSIS/Include/cmsis_gcc.h ****   return(result);
 388:Drivers/CMSIS/Include/cmsis_gcc.h **** }
 389:Drivers/CMSIS/Include/cmsis_gcc.h **** 
 390:Drivers/CMSIS/Include/cmsis_gcc.h **** 
 391:Drivers/CMSIS/Include/cmsis_gcc.h **** #if (defined (__ARM_FEATURE_CMSE ) && (__ARM_FEATURE_CMSE == 3))
 392:Drivers/CMSIS/Include/cmsis_gcc.h **** /**
 393:Drivers/CMSIS/Include/cmsis_gcc.h ****   \brief   Get Priority Mask (non-secure)
 394:Drivers/CMSIS/Include/cmsis_gcc.h ****   \details Returns the current state of the non-secure priority mask bit from the Priority Mask Reg
 395:Drivers/CMSIS/Include/cmsis_gcc.h ****   \return               Priority Mask value
 396:Drivers/CMSIS/Include/cmsis_gcc.h ****  */
 397:Drivers/CMSIS/Include/cmsis_gcc.h **** __STATIC_FORCEINLINE uint32_t __TZ_get_PRIMASK_NS(void)
 398:Drivers/CMSIS/Include/cmsis_gcc.h **** {
 399:Drivers/CMSIS/Include/cmsis_gcc.h ****   uint32_t result;
 400:Drivers/CMSIS/Include/cmsis_gcc.h **** 
 401:Drivers/CMSIS/Include/cmsis_gcc.h ****   __ASM volatile ("MRS %0, primask_ns" : "=r" (result) :: "memory");
 402:Drivers/CMSIS/Include/cmsis_gcc.h ****   return(result);
 403:Drivers/CMSIS/Include/cmsis_gcc.h **** }
 404:Drivers/CMSIS/Include/cmsis_gcc.h **** #endif
 405:Drivers/CMSIS/Include/cmsis_gcc.h **** 
ARM GAS  /tmp/ccrOzmIp.s 			page 67


 406:Drivers/CMSIS/Include/cmsis_gcc.h **** 
 407:Drivers/CMSIS/Include/cmsis_gcc.h **** /**
 408:Drivers/CMSIS/Include/cmsis_gcc.h ****   \brief   Set Priority Mask
 409:Drivers/CMSIS/Include/cmsis_gcc.h ****   \details Assigns the given value to the Priority Mask Register.
 410:Drivers/CMSIS/Include/cmsis_gcc.h ****   \param [in]    priMask  Priority Mask
 411:Drivers/CMSIS/Include/cmsis_gcc.h ****  */
 412:Drivers/CMSIS/Include/cmsis_gcc.h **** __STATIC_FORCEINLINE void __set_PRIMASK(uint32_t priMask)
 413:Drivers/CMSIS/Include/cmsis_gcc.h **** {
 414:Drivers/CMSIS/Include/cmsis_gcc.h ****   __ASM volatile ("MSR primask, %0" : : "r" (priMask) : "memory");
 415:Drivers/CMSIS/Include/cmsis_gcc.h **** }
 416:Drivers/CMSIS/Include/cmsis_gcc.h **** 
 417:Drivers/CMSIS/Include/cmsis_gcc.h **** 
 418:Drivers/CMSIS/Include/cmsis_gcc.h **** #if (defined (__ARM_FEATURE_CMSE ) && (__ARM_FEATURE_CMSE == 3))
 419:Drivers/CMSIS/Include/cmsis_gcc.h **** /**
 420:Drivers/CMSIS/Include/cmsis_gcc.h ****   \brief   Set Priority Mask (non-secure)
 421:Drivers/CMSIS/Include/cmsis_gcc.h ****   \details Assigns the given value to the non-secure Priority Mask Register when in secure state.
 422:Drivers/CMSIS/Include/cmsis_gcc.h ****   \param [in]    priMask  Priority Mask
 423:Drivers/CMSIS/Include/cmsis_gcc.h ****  */
 424:Drivers/CMSIS/Include/cmsis_gcc.h **** __STATIC_FORCEINLINE void __TZ_set_PRIMASK_NS(uint32_t priMask)
 425:Drivers/CMSIS/Include/cmsis_gcc.h **** {
 426:Drivers/CMSIS/Include/cmsis_gcc.h ****   __ASM volatile ("MSR primask_ns, %0" : : "r" (priMask) : "memory");
 427:Drivers/CMSIS/Include/cmsis_gcc.h **** }
 428:Drivers/CMSIS/Include/cmsis_gcc.h **** #endif
 429:Drivers/CMSIS/Include/cmsis_gcc.h **** 
 430:Drivers/CMSIS/Include/cmsis_gcc.h **** 
 431:Drivers/CMSIS/Include/cmsis_gcc.h **** #if ((defined (__ARM_ARCH_7M__      ) && (__ARM_ARCH_7M__      == 1)) || \
 432:Drivers/CMSIS/Include/cmsis_gcc.h ****      (defined (__ARM_ARCH_7EM__     ) && (__ARM_ARCH_7EM__     == 1)) || \
 433:Drivers/CMSIS/Include/cmsis_gcc.h ****      (defined (__ARM_ARCH_8M_MAIN__ ) && (__ARM_ARCH_8M_MAIN__ == 1))    )
 434:Drivers/CMSIS/Include/cmsis_gcc.h **** /**
 435:Drivers/CMSIS/Include/cmsis_gcc.h ****   \brief   Enable FIQ
 436:Drivers/CMSIS/Include/cmsis_gcc.h ****   \details Enables FIQ interrupts by clearing the F-bit in the CPSR.
 437:Drivers/CMSIS/Include/cmsis_gcc.h ****            Can only be executed in Privileged modes.
 438:Drivers/CMSIS/Include/cmsis_gcc.h ****  */
 439:Drivers/CMSIS/Include/cmsis_gcc.h **** __STATIC_FORCEINLINE void __enable_fault_irq(void)
 440:Drivers/CMSIS/Include/cmsis_gcc.h **** {
 441:Drivers/CMSIS/Include/cmsis_gcc.h ****   __ASM volatile ("cpsie f" : : : "memory");
 442:Drivers/CMSIS/Include/cmsis_gcc.h **** }
 443:Drivers/CMSIS/Include/cmsis_gcc.h **** 
 444:Drivers/CMSIS/Include/cmsis_gcc.h **** 
 445:Drivers/CMSIS/Include/cmsis_gcc.h **** /**
 446:Drivers/CMSIS/Include/cmsis_gcc.h ****   \brief   Disable FIQ
 447:Drivers/CMSIS/Include/cmsis_gcc.h ****   \details Disables FIQ interrupts by setting the F-bit in the CPSR.
 448:Drivers/CMSIS/Include/cmsis_gcc.h ****            Can only be executed in Privileged modes.
 449:Drivers/CMSIS/Include/cmsis_gcc.h ****  */
 450:Drivers/CMSIS/Include/cmsis_gcc.h **** __STATIC_FORCEINLINE void __disable_fault_irq(void)
 451:Drivers/CMSIS/Include/cmsis_gcc.h **** {
 452:Drivers/CMSIS/Include/cmsis_gcc.h ****   __ASM volatile ("cpsid f" : : : "memory");
 453:Drivers/CMSIS/Include/cmsis_gcc.h **** }
 454:Drivers/CMSIS/Include/cmsis_gcc.h **** 
 455:Drivers/CMSIS/Include/cmsis_gcc.h **** 
 456:Drivers/CMSIS/Include/cmsis_gcc.h **** /**
 457:Drivers/CMSIS/Include/cmsis_gcc.h ****   \brief   Get Base Priority
 458:Drivers/CMSIS/Include/cmsis_gcc.h ****   \details Returns the current value of the Base Priority register.
 459:Drivers/CMSIS/Include/cmsis_gcc.h ****   \return               Base Priority register value
 460:Drivers/CMSIS/Include/cmsis_gcc.h ****  */
 461:Drivers/CMSIS/Include/cmsis_gcc.h **** __STATIC_FORCEINLINE uint32_t __get_BASEPRI(void)
 462:Drivers/CMSIS/Include/cmsis_gcc.h **** {
ARM GAS  /tmp/ccrOzmIp.s 			page 68


 463:Drivers/CMSIS/Include/cmsis_gcc.h ****   uint32_t result;
 464:Drivers/CMSIS/Include/cmsis_gcc.h **** 
 465:Drivers/CMSIS/Include/cmsis_gcc.h ****   __ASM volatile ("MRS %0, basepri" : "=r" (result) );
 466:Drivers/CMSIS/Include/cmsis_gcc.h ****   return(result);
 467:Drivers/CMSIS/Include/cmsis_gcc.h **** }
 468:Drivers/CMSIS/Include/cmsis_gcc.h **** 
 469:Drivers/CMSIS/Include/cmsis_gcc.h **** 
 470:Drivers/CMSIS/Include/cmsis_gcc.h **** #if (defined (__ARM_FEATURE_CMSE ) && (__ARM_FEATURE_CMSE == 3))
 471:Drivers/CMSIS/Include/cmsis_gcc.h **** /**
 472:Drivers/CMSIS/Include/cmsis_gcc.h ****   \brief   Get Base Priority (non-secure)
 473:Drivers/CMSIS/Include/cmsis_gcc.h ****   \details Returns the current value of the non-secure Base Priority register when in secure state.
 474:Drivers/CMSIS/Include/cmsis_gcc.h ****   \return               Base Priority register value
 475:Drivers/CMSIS/Include/cmsis_gcc.h ****  */
 476:Drivers/CMSIS/Include/cmsis_gcc.h **** __STATIC_FORCEINLINE uint32_t __TZ_get_BASEPRI_NS(void)
 477:Drivers/CMSIS/Include/cmsis_gcc.h **** {
 478:Drivers/CMSIS/Include/cmsis_gcc.h ****   uint32_t result;
 479:Drivers/CMSIS/Include/cmsis_gcc.h **** 
 480:Drivers/CMSIS/Include/cmsis_gcc.h ****   __ASM volatile ("MRS %0, basepri_ns" : "=r" (result) );
 481:Drivers/CMSIS/Include/cmsis_gcc.h ****   return(result);
 482:Drivers/CMSIS/Include/cmsis_gcc.h **** }
 483:Drivers/CMSIS/Include/cmsis_gcc.h **** #endif
 484:Drivers/CMSIS/Include/cmsis_gcc.h **** 
 485:Drivers/CMSIS/Include/cmsis_gcc.h **** 
 486:Drivers/CMSIS/Include/cmsis_gcc.h **** /**
 487:Drivers/CMSIS/Include/cmsis_gcc.h ****   \brief   Set Base Priority
 488:Drivers/CMSIS/Include/cmsis_gcc.h ****   \details Assigns the given value to the Base Priority register.
 489:Drivers/CMSIS/Include/cmsis_gcc.h ****   \param [in]    basePri  Base Priority value to set
 490:Drivers/CMSIS/Include/cmsis_gcc.h ****  */
 491:Drivers/CMSIS/Include/cmsis_gcc.h **** __STATIC_FORCEINLINE void __set_BASEPRI(uint32_t basePri)
 492:Drivers/CMSIS/Include/cmsis_gcc.h **** {
 493:Drivers/CMSIS/Include/cmsis_gcc.h ****   __ASM volatile ("MSR basepri, %0" : : "r" (basePri) : "memory");
 494:Drivers/CMSIS/Include/cmsis_gcc.h **** }
 495:Drivers/CMSIS/Include/cmsis_gcc.h **** 
 496:Drivers/CMSIS/Include/cmsis_gcc.h **** 
 497:Drivers/CMSIS/Include/cmsis_gcc.h **** #if (defined (__ARM_FEATURE_CMSE ) && (__ARM_FEATURE_CMSE == 3))
 498:Drivers/CMSIS/Include/cmsis_gcc.h **** /**
 499:Drivers/CMSIS/Include/cmsis_gcc.h ****   \brief   Set Base Priority (non-secure)
 500:Drivers/CMSIS/Include/cmsis_gcc.h ****   \details Assigns the given value to the non-secure Base Priority register when in secure state.
 501:Drivers/CMSIS/Include/cmsis_gcc.h ****   \param [in]    basePri  Base Priority value to set
 502:Drivers/CMSIS/Include/cmsis_gcc.h ****  */
 503:Drivers/CMSIS/Include/cmsis_gcc.h **** __STATIC_FORCEINLINE void __TZ_set_BASEPRI_NS(uint32_t basePri)
 504:Drivers/CMSIS/Include/cmsis_gcc.h **** {
 505:Drivers/CMSIS/Include/cmsis_gcc.h ****   __ASM volatile ("MSR basepri_ns, %0" : : "r" (basePri) : "memory");
 506:Drivers/CMSIS/Include/cmsis_gcc.h **** }
 507:Drivers/CMSIS/Include/cmsis_gcc.h **** #endif
 508:Drivers/CMSIS/Include/cmsis_gcc.h **** 
 509:Drivers/CMSIS/Include/cmsis_gcc.h **** 
 510:Drivers/CMSIS/Include/cmsis_gcc.h **** /**
 511:Drivers/CMSIS/Include/cmsis_gcc.h ****   \brief   Set Base Priority with condition
 512:Drivers/CMSIS/Include/cmsis_gcc.h ****   \details Assigns the given value to the Base Priority register only if BASEPRI masking is disable
 513:Drivers/CMSIS/Include/cmsis_gcc.h ****            or the new value increases the BASEPRI priority level.
 514:Drivers/CMSIS/Include/cmsis_gcc.h ****   \param [in]    basePri  Base Priority value to set
 515:Drivers/CMSIS/Include/cmsis_gcc.h ****  */
 516:Drivers/CMSIS/Include/cmsis_gcc.h **** __STATIC_FORCEINLINE void __set_BASEPRI_MAX(uint32_t basePri)
 517:Drivers/CMSIS/Include/cmsis_gcc.h **** {
 518:Drivers/CMSIS/Include/cmsis_gcc.h ****   __ASM volatile ("MSR basepri_max, %0" : : "r" (basePri) : "memory");
 519:Drivers/CMSIS/Include/cmsis_gcc.h **** }
ARM GAS  /tmp/ccrOzmIp.s 			page 69


 520:Drivers/CMSIS/Include/cmsis_gcc.h **** 
 521:Drivers/CMSIS/Include/cmsis_gcc.h **** 
 522:Drivers/CMSIS/Include/cmsis_gcc.h **** /**
 523:Drivers/CMSIS/Include/cmsis_gcc.h ****   \brief   Get Fault Mask
 524:Drivers/CMSIS/Include/cmsis_gcc.h ****   \details Returns the current value of the Fault Mask register.
 525:Drivers/CMSIS/Include/cmsis_gcc.h ****   \return               Fault Mask register value
 526:Drivers/CMSIS/Include/cmsis_gcc.h ****  */
 527:Drivers/CMSIS/Include/cmsis_gcc.h **** __STATIC_FORCEINLINE uint32_t __get_FAULTMASK(void)
 528:Drivers/CMSIS/Include/cmsis_gcc.h **** {
 529:Drivers/CMSIS/Include/cmsis_gcc.h ****   uint32_t result;
 530:Drivers/CMSIS/Include/cmsis_gcc.h **** 
 531:Drivers/CMSIS/Include/cmsis_gcc.h ****   __ASM volatile ("MRS %0, faultmask" : "=r" (result) );
 532:Drivers/CMSIS/Include/cmsis_gcc.h ****   return(result);
 533:Drivers/CMSIS/Include/cmsis_gcc.h **** }
 534:Drivers/CMSIS/Include/cmsis_gcc.h **** 
 535:Drivers/CMSIS/Include/cmsis_gcc.h **** 
 536:Drivers/CMSIS/Include/cmsis_gcc.h **** #if (defined (__ARM_FEATURE_CMSE ) && (__ARM_FEATURE_CMSE == 3))
 537:Drivers/CMSIS/Include/cmsis_gcc.h **** /**
 538:Drivers/CMSIS/Include/cmsis_gcc.h ****   \brief   Get Fault Mask (non-secure)
 539:Drivers/CMSIS/Include/cmsis_gcc.h ****   \details Returns the current value of the non-secure Fault Mask register when in secure state.
 540:Drivers/CMSIS/Include/cmsis_gcc.h ****   \return               Fault Mask register value
 541:Drivers/CMSIS/Include/cmsis_gcc.h ****  */
 542:Drivers/CMSIS/Include/cmsis_gcc.h **** __STATIC_FORCEINLINE uint32_t __TZ_get_FAULTMASK_NS(void)
 543:Drivers/CMSIS/Include/cmsis_gcc.h **** {
 544:Drivers/CMSIS/Include/cmsis_gcc.h ****   uint32_t result;
 545:Drivers/CMSIS/Include/cmsis_gcc.h **** 
 546:Drivers/CMSIS/Include/cmsis_gcc.h ****   __ASM volatile ("MRS %0, faultmask_ns" : "=r" (result) );
 547:Drivers/CMSIS/Include/cmsis_gcc.h ****   return(result);
 548:Drivers/CMSIS/Include/cmsis_gcc.h **** }
 549:Drivers/CMSIS/Include/cmsis_gcc.h **** #endif
 550:Drivers/CMSIS/Include/cmsis_gcc.h **** 
 551:Drivers/CMSIS/Include/cmsis_gcc.h **** 
 552:Drivers/CMSIS/Include/cmsis_gcc.h **** /**
 553:Drivers/CMSIS/Include/cmsis_gcc.h ****   \brief   Set Fault Mask
 554:Drivers/CMSIS/Include/cmsis_gcc.h ****   \details Assigns the given value to the Fault Mask register.
 555:Drivers/CMSIS/Include/cmsis_gcc.h ****   \param [in]    faultMask  Fault Mask value to set
 556:Drivers/CMSIS/Include/cmsis_gcc.h ****  */
 557:Drivers/CMSIS/Include/cmsis_gcc.h **** __STATIC_FORCEINLINE void __set_FAULTMASK(uint32_t faultMask)
 558:Drivers/CMSIS/Include/cmsis_gcc.h **** {
 559:Drivers/CMSIS/Include/cmsis_gcc.h ****   __ASM volatile ("MSR faultmask, %0" : : "r" (faultMask) : "memory");
 560:Drivers/CMSIS/Include/cmsis_gcc.h **** }
 561:Drivers/CMSIS/Include/cmsis_gcc.h **** 
 562:Drivers/CMSIS/Include/cmsis_gcc.h **** 
 563:Drivers/CMSIS/Include/cmsis_gcc.h **** #if (defined (__ARM_FEATURE_CMSE ) && (__ARM_FEATURE_CMSE == 3))
 564:Drivers/CMSIS/Include/cmsis_gcc.h **** /**
 565:Drivers/CMSIS/Include/cmsis_gcc.h ****   \brief   Set Fault Mask (non-secure)
 566:Drivers/CMSIS/Include/cmsis_gcc.h ****   \details Assigns the given value to the non-secure Fault Mask register when in secure state.
 567:Drivers/CMSIS/Include/cmsis_gcc.h ****   \param [in]    faultMask  Fault Mask value to set
 568:Drivers/CMSIS/Include/cmsis_gcc.h ****  */
 569:Drivers/CMSIS/Include/cmsis_gcc.h **** __STATIC_FORCEINLINE void __TZ_set_FAULTMASK_NS(uint32_t faultMask)
 570:Drivers/CMSIS/Include/cmsis_gcc.h **** {
 571:Drivers/CMSIS/Include/cmsis_gcc.h ****   __ASM volatile ("MSR faultmask_ns, %0" : : "r" (faultMask) : "memory");
 572:Drivers/CMSIS/Include/cmsis_gcc.h **** }
 573:Drivers/CMSIS/Include/cmsis_gcc.h **** #endif
 574:Drivers/CMSIS/Include/cmsis_gcc.h **** 
 575:Drivers/CMSIS/Include/cmsis_gcc.h **** #endif /* ((defined (__ARM_ARCH_7M__      ) && (__ARM_ARCH_7M__      == 1)) || \
 576:Drivers/CMSIS/Include/cmsis_gcc.h ****            (defined (__ARM_ARCH_7EM__     ) && (__ARM_ARCH_7EM__     == 1)) || \
ARM GAS  /tmp/ccrOzmIp.s 			page 70


 577:Drivers/CMSIS/Include/cmsis_gcc.h ****            (defined (__ARM_ARCH_8M_MAIN__ ) && (__ARM_ARCH_8M_MAIN__ == 1))    ) */
 578:Drivers/CMSIS/Include/cmsis_gcc.h **** 
 579:Drivers/CMSIS/Include/cmsis_gcc.h **** 
 580:Drivers/CMSIS/Include/cmsis_gcc.h **** #if ((defined (__ARM_ARCH_8M_MAIN__ ) && (__ARM_ARCH_8M_MAIN__ == 1)) || \
 581:Drivers/CMSIS/Include/cmsis_gcc.h ****      (defined (__ARM_ARCH_8M_BASE__ ) && (__ARM_ARCH_8M_BASE__ == 1))    )
 582:Drivers/CMSIS/Include/cmsis_gcc.h **** 
 583:Drivers/CMSIS/Include/cmsis_gcc.h **** /**
 584:Drivers/CMSIS/Include/cmsis_gcc.h ****   \brief   Get Process Stack Pointer Limit
 585:Drivers/CMSIS/Include/cmsis_gcc.h ****   Devices without ARMv8-M Main Extensions (i.e. Cortex-M23) lack the non-secure
 586:Drivers/CMSIS/Include/cmsis_gcc.h ****   Stack Pointer Limit register hence zero is returned always in non-secure
 587:Drivers/CMSIS/Include/cmsis_gcc.h ****   mode.
 588:Drivers/CMSIS/Include/cmsis_gcc.h ****   
 589:Drivers/CMSIS/Include/cmsis_gcc.h ****   \details Returns the current value of the Process Stack Pointer Limit (PSPLIM).
 590:Drivers/CMSIS/Include/cmsis_gcc.h ****   \return               PSPLIM Register value
 591:Drivers/CMSIS/Include/cmsis_gcc.h ****  */
 592:Drivers/CMSIS/Include/cmsis_gcc.h **** __STATIC_FORCEINLINE uint32_t __get_PSPLIM(void)
 593:Drivers/CMSIS/Include/cmsis_gcc.h **** {
 594:Drivers/CMSIS/Include/cmsis_gcc.h **** #if (!(defined (__ARM_ARCH_8M_MAIN__ ) && (__ARM_ARCH_8M_MAIN__ == 1)) && \
 595:Drivers/CMSIS/Include/cmsis_gcc.h ****     (!defined (__ARM_FEATURE_CMSE) || (__ARM_FEATURE_CMSE < 3)))
 596:Drivers/CMSIS/Include/cmsis_gcc.h ****     // without main extensions, the non-secure PSPLIM is RAZ/WI
 597:Drivers/CMSIS/Include/cmsis_gcc.h ****   return 0U;
 598:Drivers/CMSIS/Include/cmsis_gcc.h **** #else
 599:Drivers/CMSIS/Include/cmsis_gcc.h ****   uint32_t result;
 600:Drivers/CMSIS/Include/cmsis_gcc.h ****   __ASM volatile ("MRS %0, psplim"  : "=r" (result) );
 601:Drivers/CMSIS/Include/cmsis_gcc.h ****   return result;
 602:Drivers/CMSIS/Include/cmsis_gcc.h **** #endif
 603:Drivers/CMSIS/Include/cmsis_gcc.h **** }
 604:Drivers/CMSIS/Include/cmsis_gcc.h **** 
 605:Drivers/CMSIS/Include/cmsis_gcc.h **** #if (defined (__ARM_FEATURE_CMSE) && (__ARM_FEATURE_CMSE == 3))
 606:Drivers/CMSIS/Include/cmsis_gcc.h **** /**
 607:Drivers/CMSIS/Include/cmsis_gcc.h ****   \brief   Get Process Stack Pointer Limit (non-secure)
 608:Drivers/CMSIS/Include/cmsis_gcc.h ****   Devices without ARMv8-M Main Extensions (i.e. Cortex-M23) lack the non-secure
 609:Drivers/CMSIS/Include/cmsis_gcc.h ****   Stack Pointer Limit register hence zero is returned always.
 610:Drivers/CMSIS/Include/cmsis_gcc.h **** 
 611:Drivers/CMSIS/Include/cmsis_gcc.h ****   \details Returns the current value of the non-secure Process Stack Pointer Limit (PSPLIM) when in
 612:Drivers/CMSIS/Include/cmsis_gcc.h ****   \return               PSPLIM Register value
 613:Drivers/CMSIS/Include/cmsis_gcc.h ****  */
 614:Drivers/CMSIS/Include/cmsis_gcc.h **** __STATIC_FORCEINLINE uint32_t __TZ_get_PSPLIM_NS(void)
 615:Drivers/CMSIS/Include/cmsis_gcc.h **** {
 616:Drivers/CMSIS/Include/cmsis_gcc.h **** #if (!(defined (__ARM_ARCH_8M_MAIN__ ) && (__ARM_ARCH_8M_MAIN__ == 1)))
 617:Drivers/CMSIS/Include/cmsis_gcc.h ****   // without main extensions, the non-secure PSPLIM is RAZ/WI
 618:Drivers/CMSIS/Include/cmsis_gcc.h ****   return 0U;
 619:Drivers/CMSIS/Include/cmsis_gcc.h **** #else
 620:Drivers/CMSIS/Include/cmsis_gcc.h ****   uint32_t result;
 621:Drivers/CMSIS/Include/cmsis_gcc.h ****   __ASM volatile ("MRS %0, psplim_ns"  : "=r" (result) );
 622:Drivers/CMSIS/Include/cmsis_gcc.h ****   return result;
 623:Drivers/CMSIS/Include/cmsis_gcc.h **** #endif
 624:Drivers/CMSIS/Include/cmsis_gcc.h **** }
 625:Drivers/CMSIS/Include/cmsis_gcc.h **** #endif
 626:Drivers/CMSIS/Include/cmsis_gcc.h **** 
 627:Drivers/CMSIS/Include/cmsis_gcc.h **** 
 628:Drivers/CMSIS/Include/cmsis_gcc.h **** /**
 629:Drivers/CMSIS/Include/cmsis_gcc.h ****   \brief   Set Process Stack Pointer Limit
 630:Drivers/CMSIS/Include/cmsis_gcc.h ****   Devices without ARMv8-M Main Extensions (i.e. Cortex-M23) lack the non-secure
 631:Drivers/CMSIS/Include/cmsis_gcc.h ****   Stack Pointer Limit register hence the write is silently ignored in non-secure
 632:Drivers/CMSIS/Include/cmsis_gcc.h ****   mode.
 633:Drivers/CMSIS/Include/cmsis_gcc.h ****   
ARM GAS  /tmp/ccrOzmIp.s 			page 71


 634:Drivers/CMSIS/Include/cmsis_gcc.h ****   \details Assigns the given value to the Process Stack Pointer Limit (PSPLIM).
 635:Drivers/CMSIS/Include/cmsis_gcc.h ****   \param [in]    ProcStackPtrLimit  Process Stack Pointer Limit value to set
 636:Drivers/CMSIS/Include/cmsis_gcc.h ****  */
 637:Drivers/CMSIS/Include/cmsis_gcc.h **** __STATIC_FORCEINLINE void __set_PSPLIM(uint32_t ProcStackPtrLimit)
 638:Drivers/CMSIS/Include/cmsis_gcc.h **** {
 639:Drivers/CMSIS/Include/cmsis_gcc.h **** #if (!(defined (__ARM_ARCH_8M_MAIN__ ) && (__ARM_ARCH_8M_MAIN__ == 1)) && \
 640:Drivers/CMSIS/Include/cmsis_gcc.h ****     (!defined (__ARM_FEATURE_CMSE) || (__ARM_FEATURE_CMSE < 3)))
 641:Drivers/CMSIS/Include/cmsis_gcc.h ****   // without main extensions, the non-secure PSPLIM is RAZ/WI
 642:Drivers/CMSIS/Include/cmsis_gcc.h ****   (void)ProcStackPtrLimit;
 643:Drivers/CMSIS/Include/cmsis_gcc.h **** #else
 644:Drivers/CMSIS/Include/cmsis_gcc.h ****   __ASM volatile ("MSR psplim, %0" : : "r" (ProcStackPtrLimit));
 645:Drivers/CMSIS/Include/cmsis_gcc.h **** #endif
 646:Drivers/CMSIS/Include/cmsis_gcc.h **** }
 647:Drivers/CMSIS/Include/cmsis_gcc.h **** 
 648:Drivers/CMSIS/Include/cmsis_gcc.h **** 
 649:Drivers/CMSIS/Include/cmsis_gcc.h **** #if (defined (__ARM_FEATURE_CMSE  ) && (__ARM_FEATURE_CMSE   == 3))
 650:Drivers/CMSIS/Include/cmsis_gcc.h **** /**
 651:Drivers/CMSIS/Include/cmsis_gcc.h ****   \brief   Set Process Stack Pointer (non-secure)
 652:Drivers/CMSIS/Include/cmsis_gcc.h ****   Devices without ARMv8-M Main Extensions (i.e. Cortex-M23) lack the non-secure
 653:Drivers/CMSIS/Include/cmsis_gcc.h ****   Stack Pointer Limit register hence the write is silently ignored.
 654:Drivers/CMSIS/Include/cmsis_gcc.h **** 
 655:Drivers/CMSIS/Include/cmsis_gcc.h ****   \details Assigns the given value to the non-secure Process Stack Pointer Limit (PSPLIM) when in s
 656:Drivers/CMSIS/Include/cmsis_gcc.h ****   \param [in]    ProcStackPtrLimit  Process Stack Pointer Limit value to set
 657:Drivers/CMSIS/Include/cmsis_gcc.h ****  */
 658:Drivers/CMSIS/Include/cmsis_gcc.h **** __STATIC_FORCEINLINE void __TZ_set_PSPLIM_NS(uint32_t ProcStackPtrLimit)
 659:Drivers/CMSIS/Include/cmsis_gcc.h **** {
 660:Drivers/CMSIS/Include/cmsis_gcc.h **** #if (!(defined (__ARM_ARCH_8M_MAIN__ ) && (__ARM_ARCH_8M_MAIN__ == 1)))
 661:Drivers/CMSIS/Include/cmsis_gcc.h ****   // without main extensions, the non-secure PSPLIM is RAZ/WI
 662:Drivers/CMSIS/Include/cmsis_gcc.h ****   (void)ProcStackPtrLimit;
 663:Drivers/CMSIS/Include/cmsis_gcc.h **** #else
 664:Drivers/CMSIS/Include/cmsis_gcc.h ****   __ASM volatile ("MSR psplim_ns, %0\n" : : "r" (ProcStackPtrLimit));
 665:Drivers/CMSIS/Include/cmsis_gcc.h **** #endif
 666:Drivers/CMSIS/Include/cmsis_gcc.h **** }
 667:Drivers/CMSIS/Include/cmsis_gcc.h **** #endif
 668:Drivers/CMSIS/Include/cmsis_gcc.h **** 
 669:Drivers/CMSIS/Include/cmsis_gcc.h **** 
 670:Drivers/CMSIS/Include/cmsis_gcc.h **** /**
 671:Drivers/CMSIS/Include/cmsis_gcc.h ****   \brief   Get Main Stack Pointer Limit
 672:Drivers/CMSIS/Include/cmsis_gcc.h ****   Devices without ARMv8-M Main Extensions (i.e. Cortex-M23) lack the non-secure
 673:Drivers/CMSIS/Include/cmsis_gcc.h ****   Stack Pointer Limit register hence zero is returned always in non-secure
 674:Drivers/CMSIS/Include/cmsis_gcc.h ****   mode.
 675:Drivers/CMSIS/Include/cmsis_gcc.h **** 
 676:Drivers/CMSIS/Include/cmsis_gcc.h ****   \details Returns the current value of the Main Stack Pointer Limit (MSPLIM).
 677:Drivers/CMSIS/Include/cmsis_gcc.h ****   \return               MSPLIM Register value
 678:Drivers/CMSIS/Include/cmsis_gcc.h ****  */
 679:Drivers/CMSIS/Include/cmsis_gcc.h **** __STATIC_FORCEINLINE uint32_t __get_MSPLIM(void)
 680:Drivers/CMSIS/Include/cmsis_gcc.h **** {
 681:Drivers/CMSIS/Include/cmsis_gcc.h **** #if (!(defined (__ARM_ARCH_8M_MAIN__ ) && (__ARM_ARCH_8M_MAIN__ == 1)) && \
 682:Drivers/CMSIS/Include/cmsis_gcc.h ****     (!defined (__ARM_FEATURE_CMSE) || (__ARM_FEATURE_CMSE < 3)))
 683:Drivers/CMSIS/Include/cmsis_gcc.h ****   // without main extensions, the non-secure MSPLIM is RAZ/WI
 684:Drivers/CMSIS/Include/cmsis_gcc.h ****   return 0U;
 685:Drivers/CMSIS/Include/cmsis_gcc.h **** #else
 686:Drivers/CMSIS/Include/cmsis_gcc.h ****   uint32_t result;
 687:Drivers/CMSIS/Include/cmsis_gcc.h ****   __ASM volatile ("MRS %0, msplim" : "=r" (result) );
 688:Drivers/CMSIS/Include/cmsis_gcc.h ****   return result;
 689:Drivers/CMSIS/Include/cmsis_gcc.h **** #endif
 690:Drivers/CMSIS/Include/cmsis_gcc.h **** }
ARM GAS  /tmp/ccrOzmIp.s 			page 72


 691:Drivers/CMSIS/Include/cmsis_gcc.h **** 
 692:Drivers/CMSIS/Include/cmsis_gcc.h **** 
 693:Drivers/CMSIS/Include/cmsis_gcc.h **** #if (defined (__ARM_FEATURE_CMSE  ) && (__ARM_FEATURE_CMSE   == 3))
 694:Drivers/CMSIS/Include/cmsis_gcc.h **** /**
 695:Drivers/CMSIS/Include/cmsis_gcc.h ****   \brief   Get Main Stack Pointer Limit (non-secure)
 696:Drivers/CMSIS/Include/cmsis_gcc.h ****   Devices without ARMv8-M Main Extensions (i.e. Cortex-M23) lack the non-secure
 697:Drivers/CMSIS/Include/cmsis_gcc.h ****   Stack Pointer Limit register hence zero is returned always.
 698:Drivers/CMSIS/Include/cmsis_gcc.h **** 
 699:Drivers/CMSIS/Include/cmsis_gcc.h ****   \details Returns the current value of the non-secure Main Stack Pointer Limit(MSPLIM) when in sec
 700:Drivers/CMSIS/Include/cmsis_gcc.h ****   \return               MSPLIM Register value
 701:Drivers/CMSIS/Include/cmsis_gcc.h ****  */
 702:Drivers/CMSIS/Include/cmsis_gcc.h **** __STATIC_FORCEINLINE uint32_t __TZ_get_MSPLIM_NS(void)
 703:Drivers/CMSIS/Include/cmsis_gcc.h **** {
 704:Drivers/CMSIS/Include/cmsis_gcc.h **** #if (!(defined (__ARM_ARCH_8M_MAIN__ ) && (__ARM_ARCH_8M_MAIN__ == 1)))
 705:Drivers/CMSIS/Include/cmsis_gcc.h ****   // without main extensions, the non-secure MSPLIM is RAZ/WI
 706:Drivers/CMSIS/Include/cmsis_gcc.h ****   return 0U;
 707:Drivers/CMSIS/Include/cmsis_gcc.h **** #else
 708:Drivers/CMSIS/Include/cmsis_gcc.h ****   uint32_t result;
 709:Drivers/CMSIS/Include/cmsis_gcc.h ****   __ASM volatile ("MRS %0, msplim_ns" : "=r" (result) );
 710:Drivers/CMSIS/Include/cmsis_gcc.h ****   return result;
 711:Drivers/CMSIS/Include/cmsis_gcc.h **** #endif
 712:Drivers/CMSIS/Include/cmsis_gcc.h **** }
 713:Drivers/CMSIS/Include/cmsis_gcc.h **** #endif
 714:Drivers/CMSIS/Include/cmsis_gcc.h **** 
 715:Drivers/CMSIS/Include/cmsis_gcc.h **** 
 716:Drivers/CMSIS/Include/cmsis_gcc.h **** /**
 717:Drivers/CMSIS/Include/cmsis_gcc.h ****   \brief   Set Main Stack Pointer Limit
 718:Drivers/CMSIS/Include/cmsis_gcc.h ****   Devices without ARMv8-M Main Extensions (i.e. Cortex-M23) lack the non-secure
 719:Drivers/CMSIS/Include/cmsis_gcc.h ****   Stack Pointer Limit register hence the write is silently ignored in non-secure
 720:Drivers/CMSIS/Include/cmsis_gcc.h ****   mode.
 721:Drivers/CMSIS/Include/cmsis_gcc.h **** 
 722:Drivers/CMSIS/Include/cmsis_gcc.h ****   \details Assigns the given value to the Main Stack Pointer Limit (MSPLIM).
 723:Drivers/CMSIS/Include/cmsis_gcc.h ****   \param [in]    MainStackPtrLimit  Main Stack Pointer Limit value to set
 724:Drivers/CMSIS/Include/cmsis_gcc.h ****  */
 725:Drivers/CMSIS/Include/cmsis_gcc.h **** __STATIC_FORCEINLINE void __set_MSPLIM(uint32_t MainStackPtrLimit)
 726:Drivers/CMSIS/Include/cmsis_gcc.h **** {
 727:Drivers/CMSIS/Include/cmsis_gcc.h **** #if (!(defined (__ARM_ARCH_8M_MAIN__ ) && (__ARM_ARCH_8M_MAIN__ == 1)) && \
 728:Drivers/CMSIS/Include/cmsis_gcc.h ****     (!defined (__ARM_FEATURE_CMSE) || (__ARM_FEATURE_CMSE < 3)))
 729:Drivers/CMSIS/Include/cmsis_gcc.h ****   // without main extensions, the non-secure MSPLIM is RAZ/WI
 730:Drivers/CMSIS/Include/cmsis_gcc.h ****   (void)MainStackPtrLimit;
 731:Drivers/CMSIS/Include/cmsis_gcc.h **** #else
 732:Drivers/CMSIS/Include/cmsis_gcc.h ****   __ASM volatile ("MSR msplim, %0" : : "r" (MainStackPtrLimit));
 733:Drivers/CMSIS/Include/cmsis_gcc.h **** #endif
 734:Drivers/CMSIS/Include/cmsis_gcc.h **** }
 735:Drivers/CMSIS/Include/cmsis_gcc.h **** 
 736:Drivers/CMSIS/Include/cmsis_gcc.h **** 
 737:Drivers/CMSIS/Include/cmsis_gcc.h **** #if (defined (__ARM_FEATURE_CMSE  ) && (__ARM_FEATURE_CMSE   == 3))
 738:Drivers/CMSIS/Include/cmsis_gcc.h **** /**
 739:Drivers/CMSIS/Include/cmsis_gcc.h ****   \brief   Set Main Stack Pointer Limit (non-secure)
 740:Drivers/CMSIS/Include/cmsis_gcc.h ****   Devices without ARMv8-M Main Extensions (i.e. Cortex-M23) lack the non-secure
 741:Drivers/CMSIS/Include/cmsis_gcc.h ****   Stack Pointer Limit register hence the write is silently ignored.
 742:Drivers/CMSIS/Include/cmsis_gcc.h **** 
 743:Drivers/CMSIS/Include/cmsis_gcc.h ****   \details Assigns the given value to the non-secure Main Stack Pointer Limit (MSPLIM) when in secu
 744:Drivers/CMSIS/Include/cmsis_gcc.h ****   \param [in]    MainStackPtrLimit  Main Stack Pointer value to set
 745:Drivers/CMSIS/Include/cmsis_gcc.h ****  */
 746:Drivers/CMSIS/Include/cmsis_gcc.h **** __STATIC_FORCEINLINE void __TZ_set_MSPLIM_NS(uint32_t MainStackPtrLimit)
 747:Drivers/CMSIS/Include/cmsis_gcc.h **** {
ARM GAS  /tmp/ccrOzmIp.s 			page 73


 748:Drivers/CMSIS/Include/cmsis_gcc.h **** #if (!(defined (__ARM_ARCH_8M_MAIN__ ) && (__ARM_ARCH_8M_MAIN__ == 1)))
 749:Drivers/CMSIS/Include/cmsis_gcc.h ****   // without main extensions, the non-secure MSPLIM is RAZ/WI
 750:Drivers/CMSIS/Include/cmsis_gcc.h ****   (void)MainStackPtrLimit;
 751:Drivers/CMSIS/Include/cmsis_gcc.h **** #else
 752:Drivers/CMSIS/Include/cmsis_gcc.h ****   __ASM volatile ("MSR msplim_ns, %0" : : "r" (MainStackPtrLimit));
 753:Drivers/CMSIS/Include/cmsis_gcc.h **** #endif
 754:Drivers/CMSIS/Include/cmsis_gcc.h **** }
 755:Drivers/CMSIS/Include/cmsis_gcc.h **** #endif
 756:Drivers/CMSIS/Include/cmsis_gcc.h **** 
 757:Drivers/CMSIS/Include/cmsis_gcc.h **** #endif /* ((defined (__ARM_ARCH_8M_MAIN__ ) && (__ARM_ARCH_8M_MAIN__ == 1)) || \
 758:Drivers/CMSIS/Include/cmsis_gcc.h ****            (defined (__ARM_ARCH_8M_BASE__ ) && (__ARM_ARCH_8M_BASE__ == 1))    ) */
 759:Drivers/CMSIS/Include/cmsis_gcc.h **** 
 760:Drivers/CMSIS/Include/cmsis_gcc.h **** 
 761:Drivers/CMSIS/Include/cmsis_gcc.h **** /**
 762:Drivers/CMSIS/Include/cmsis_gcc.h ****   \brief   Get FPSCR
 763:Drivers/CMSIS/Include/cmsis_gcc.h ****   \details Returns the current value of the Floating Point Status/Control register.
 764:Drivers/CMSIS/Include/cmsis_gcc.h ****   \return               Floating Point Status/Control register value
 765:Drivers/CMSIS/Include/cmsis_gcc.h ****  */
 766:Drivers/CMSIS/Include/cmsis_gcc.h **** __STATIC_FORCEINLINE uint32_t __get_FPSCR(void)
 767:Drivers/CMSIS/Include/cmsis_gcc.h **** {
 768:Drivers/CMSIS/Include/cmsis_gcc.h **** #if ((defined (__FPU_PRESENT) && (__FPU_PRESENT == 1U)) && \
 769:Drivers/CMSIS/Include/cmsis_gcc.h ****      (defined (__FPU_USED   ) && (__FPU_USED    == 1U))     )
 770:Drivers/CMSIS/Include/cmsis_gcc.h **** #if __has_builtin(__builtin_arm_get_fpscr) 
 771:Drivers/CMSIS/Include/cmsis_gcc.h **** // Re-enable using built-in when GCC has been fixed
 772:Drivers/CMSIS/Include/cmsis_gcc.h **** // || (__GNUC__ > 7) || (__GNUC__ == 7 && __GNUC_MINOR__ >= 2)
 773:Drivers/CMSIS/Include/cmsis_gcc.h ****   /* see https://gcc.gnu.org/ml/gcc-patches/2017-04/msg00443.html */
 774:Drivers/CMSIS/Include/cmsis_gcc.h ****   return __builtin_arm_get_fpscr();
 775:Drivers/CMSIS/Include/cmsis_gcc.h **** #else
 776:Drivers/CMSIS/Include/cmsis_gcc.h ****   uint32_t result;
 777:Drivers/CMSIS/Include/cmsis_gcc.h **** 
 778:Drivers/CMSIS/Include/cmsis_gcc.h ****   __ASM volatile ("VMRS %0, fpscr" : "=r" (result) );
 779:Drivers/CMSIS/Include/cmsis_gcc.h ****   return(result);
 780:Drivers/CMSIS/Include/cmsis_gcc.h **** #endif
 781:Drivers/CMSIS/Include/cmsis_gcc.h **** #else
 782:Drivers/CMSIS/Include/cmsis_gcc.h ****   return(0U);
 783:Drivers/CMSIS/Include/cmsis_gcc.h **** #endif
 784:Drivers/CMSIS/Include/cmsis_gcc.h **** }
 785:Drivers/CMSIS/Include/cmsis_gcc.h **** 
 786:Drivers/CMSIS/Include/cmsis_gcc.h **** 
 787:Drivers/CMSIS/Include/cmsis_gcc.h **** /**
 788:Drivers/CMSIS/Include/cmsis_gcc.h ****   \brief   Set FPSCR
 789:Drivers/CMSIS/Include/cmsis_gcc.h ****   \details Assigns the given value to the Floating Point Status/Control register.
 790:Drivers/CMSIS/Include/cmsis_gcc.h ****   \param [in]    fpscr  Floating Point Status/Control value to set
 791:Drivers/CMSIS/Include/cmsis_gcc.h ****  */
 792:Drivers/CMSIS/Include/cmsis_gcc.h **** __STATIC_FORCEINLINE void __set_FPSCR(uint32_t fpscr)
 793:Drivers/CMSIS/Include/cmsis_gcc.h **** {
 794:Drivers/CMSIS/Include/cmsis_gcc.h **** #if ((defined (__FPU_PRESENT) && (__FPU_PRESENT == 1U)) && \
 795:Drivers/CMSIS/Include/cmsis_gcc.h ****      (defined (__FPU_USED   ) && (__FPU_USED    == 1U))     )
 796:Drivers/CMSIS/Include/cmsis_gcc.h **** #if __has_builtin(__builtin_arm_set_fpscr)
 797:Drivers/CMSIS/Include/cmsis_gcc.h **** // Re-enable using built-in when GCC has been fixed
 798:Drivers/CMSIS/Include/cmsis_gcc.h **** // || (__GNUC__ > 7) || (__GNUC__ == 7 && __GNUC_MINOR__ >= 2)
 799:Drivers/CMSIS/Include/cmsis_gcc.h ****   /* see https://gcc.gnu.org/ml/gcc-patches/2017-04/msg00443.html */
 800:Drivers/CMSIS/Include/cmsis_gcc.h ****   __builtin_arm_set_fpscr(fpscr);
 801:Drivers/CMSIS/Include/cmsis_gcc.h **** #else
 802:Drivers/CMSIS/Include/cmsis_gcc.h ****   __ASM volatile ("VMSR fpscr, %0" : : "r" (fpscr) : "vfpcc", "memory");
 803:Drivers/CMSIS/Include/cmsis_gcc.h **** #endif
 804:Drivers/CMSIS/Include/cmsis_gcc.h **** #else
ARM GAS  /tmp/ccrOzmIp.s 			page 74


 805:Drivers/CMSIS/Include/cmsis_gcc.h ****   (void)fpscr;
 806:Drivers/CMSIS/Include/cmsis_gcc.h **** #endif
 807:Drivers/CMSIS/Include/cmsis_gcc.h **** }
 808:Drivers/CMSIS/Include/cmsis_gcc.h **** 
 809:Drivers/CMSIS/Include/cmsis_gcc.h **** 
 810:Drivers/CMSIS/Include/cmsis_gcc.h **** /*@} end of CMSIS_Core_RegAccFunctions */
 811:Drivers/CMSIS/Include/cmsis_gcc.h **** 
 812:Drivers/CMSIS/Include/cmsis_gcc.h **** 
 813:Drivers/CMSIS/Include/cmsis_gcc.h **** /* ##########################  Core Instruction Access  ######################### */
 814:Drivers/CMSIS/Include/cmsis_gcc.h **** /** \defgroup CMSIS_Core_InstructionInterface CMSIS Core Instruction Interface
 815:Drivers/CMSIS/Include/cmsis_gcc.h ****   Access to dedicated instructions
 816:Drivers/CMSIS/Include/cmsis_gcc.h ****   @{
 817:Drivers/CMSIS/Include/cmsis_gcc.h **** */
 818:Drivers/CMSIS/Include/cmsis_gcc.h **** 
 819:Drivers/CMSIS/Include/cmsis_gcc.h **** /* Define macros for porting to both thumb1 and thumb2.
 820:Drivers/CMSIS/Include/cmsis_gcc.h ****  * For thumb1, use low register (r0-r7), specified by constraint "l"
 821:Drivers/CMSIS/Include/cmsis_gcc.h ****  * Otherwise, use general registers, specified by constraint "r" */
 822:Drivers/CMSIS/Include/cmsis_gcc.h **** #if defined (__thumb__) && !defined (__thumb2__)
 823:Drivers/CMSIS/Include/cmsis_gcc.h **** #define __CMSIS_GCC_OUT_REG(r) "=l" (r)
 824:Drivers/CMSIS/Include/cmsis_gcc.h **** #define __CMSIS_GCC_RW_REG(r) "+l" (r)
 825:Drivers/CMSIS/Include/cmsis_gcc.h **** #define __CMSIS_GCC_USE_REG(r) "l" (r)
 826:Drivers/CMSIS/Include/cmsis_gcc.h **** #else
 827:Drivers/CMSIS/Include/cmsis_gcc.h **** #define __CMSIS_GCC_OUT_REG(r) "=r" (r)
 828:Drivers/CMSIS/Include/cmsis_gcc.h **** #define __CMSIS_GCC_RW_REG(r) "+r" (r)
 829:Drivers/CMSIS/Include/cmsis_gcc.h **** #define __CMSIS_GCC_USE_REG(r) "r" (r)
 830:Drivers/CMSIS/Include/cmsis_gcc.h **** #endif
 831:Drivers/CMSIS/Include/cmsis_gcc.h **** 
 832:Drivers/CMSIS/Include/cmsis_gcc.h **** /**
 833:Drivers/CMSIS/Include/cmsis_gcc.h ****   \brief   No Operation
 834:Drivers/CMSIS/Include/cmsis_gcc.h ****   \details No Operation does nothing. This instruction can be used for code alignment purposes.
 835:Drivers/CMSIS/Include/cmsis_gcc.h ****  */
 836:Drivers/CMSIS/Include/cmsis_gcc.h **** #define __NOP()                             __ASM volatile ("nop")
 837:Drivers/CMSIS/Include/cmsis_gcc.h **** 
 838:Drivers/CMSIS/Include/cmsis_gcc.h **** /**
 839:Drivers/CMSIS/Include/cmsis_gcc.h ****   \brief   Wait For Interrupt
 840:Drivers/CMSIS/Include/cmsis_gcc.h ****   \details Wait For Interrupt is a hint instruction that suspends execution until one of a number o
 841:Drivers/CMSIS/Include/cmsis_gcc.h ****  */
 842:Drivers/CMSIS/Include/cmsis_gcc.h **** #define __WFI()                             __ASM volatile ("wfi")
 843:Drivers/CMSIS/Include/cmsis_gcc.h **** 
 844:Drivers/CMSIS/Include/cmsis_gcc.h **** 
 845:Drivers/CMSIS/Include/cmsis_gcc.h **** /**
 846:Drivers/CMSIS/Include/cmsis_gcc.h ****   \brief   Wait For Event
 847:Drivers/CMSIS/Include/cmsis_gcc.h ****   \details Wait For Event is a hint instruction that permits the processor to enter
 848:Drivers/CMSIS/Include/cmsis_gcc.h ****            a low-power state until one of a number of events occurs.
 849:Drivers/CMSIS/Include/cmsis_gcc.h ****  */
 850:Drivers/CMSIS/Include/cmsis_gcc.h **** #define __WFE()                             __ASM volatile ("wfe")
 851:Drivers/CMSIS/Include/cmsis_gcc.h **** 
 852:Drivers/CMSIS/Include/cmsis_gcc.h **** 
 853:Drivers/CMSIS/Include/cmsis_gcc.h **** /**
 854:Drivers/CMSIS/Include/cmsis_gcc.h ****   \brief   Send Event
 855:Drivers/CMSIS/Include/cmsis_gcc.h ****   \details Send Event is a hint instruction. It causes an event to be signaled to the CPU.
 856:Drivers/CMSIS/Include/cmsis_gcc.h ****  */
 857:Drivers/CMSIS/Include/cmsis_gcc.h **** #define __SEV()                             __ASM volatile ("sev")
 858:Drivers/CMSIS/Include/cmsis_gcc.h **** 
 859:Drivers/CMSIS/Include/cmsis_gcc.h **** 
 860:Drivers/CMSIS/Include/cmsis_gcc.h **** /**
 861:Drivers/CMSIS/Include/cmsis_gcc.h ****   \brief   Instruction Synchronization Barrier
ARM GAS  /tmp/ccrOzmIp.s 			page 75


 862:Drivers/CMSIS/Include/cmsis_gcc.h ****   \details Instruction Synchronization Barrier flushes the pipeline in the processor,
 863:Drivers/CMSIS/Include/cmsis_gcc.h ****            so that all instructions following the ISB are fetched from cache or memory,
 864:Drivers/CMSIS/Include/cmsis_gcc.h ****            after the instruction has been completed.
 865:Drivers/CMSIS/Include/cmsis_gcc.h ****  */
 866:Drivers/CMSIS/Include/cmsis_gcc.h **** __STATIC_FORCEINLINE void __ISB(void)
 867:Drivers/CMSIS/Include/cmsis_gcc.h **** {
 868:Drivers/CMSIS/Include/cmsis_gcc.h ****   __ASM volatile ("isb 0xF":::"memory");
 869:Drivers/CMSIS/Include/cmsis_gcc.h **** }
 870:Drivers/CMSIS/Include/cmsis_gcc.h **** 
 871:Drivers/CMSIS/Include/cmsis_gcc.h **** 
 872:Drivers/CMSIS/Include/cmsis_gcc.h **** /**
 873:Drivers/CMSIS/Include/cmsis_gcc.h ****   \brief   Data Synchronization Barrier
 874:Drivers/CMSIS/Include/cmsis_gcc.h ****   \details Acts as a special kind of Data Memory Barrier.
 875:Drivers/CMSIS/Include/cmsis_gcc.h ****            It completes when all explicit memory accesses before this instruction complete.
 876:Drivers/CMSIS/Include/cmsis_gcc.h ****  */
 877:Drivers/CMSIS/Include/cmsis_gcc.h **** __STATIC_FORCEINLINE void __DSB(void)
 878:Drivers/CMSIS/Include/cmsis_gcc.h **** {
 879:Drivers/CMSIS/Include/cmsis_gcc.h ****   __ASM volatile ("dsb 0xF":::"memory");
 880:Drivers/CMSIS/Include/cmsis_gcc.h **** }
 881:Drivers/CMSIS/Include/cmsis_gcc.h **** 
 882:Drivers/CMSIS/Include/cmsis_gcc.h **** 
 883:Drivers/CMSIS/Include/cmsis_gcc.h **** /**
 884:Drivers/CMSIS/Include/cmsis_gcc.h ****   \brief   Data Memory Barrier
 885:Drivers/CMSIS/Include/cmsis_gcc.h ****   \details Ensures the apparent order of the explicit memory operations before
 886:Drivers/CMSIS/Include/cmsis_gcc.h ****            and after the instruction, without ensuring their completion.
 887:Drivers/CMSIS/Include/cmsis_gcc.h ****  */
 888:Drivers/CMSIS/Include/cmsis_gcc.h **** __STATIC_FORCEINLINE void __DMB(void)
 889:Drivers/CMSIS/Include/cmsis_gcc.h **** {
 890:Drivers/CMSIS/Include/cmsis_gcc.h ****   __ASM volatile ("dmb 0xF":::"memory");
 891:Drivers/CMSIS/Include/cmsis_gcc.h **** }
 892:Drivers/CMSIS/Include/cmsis_gcc.h **** 
 893:Drivers/CMSIS/Include/cmsis_gcc.h **** 
 894:Drivers/CMSIS/Include/cmsis_gcc.h **** /**
 895:Drivers/CMSIS/Include/cmsis_gcc.h ****   \brief   Reverse byte order (32 bit)
 896:Drivers/CMSIS/Include/cmsis_gcc.h ****   \details Reverses the byte order in unsigned integer value. For example, 0x12345678 becomes 0x785
 897:Drivers/CMSIS/Include/cmsis_gcc.h ****   \param [in]    value  Value to reverse
 898:Drivers/CMSIS/Include/cmsis_gcc.h ****   \return               Reversed value
 899:Drivers/CMSIS/Include/cmsis_gcc.h ****  */
 900:Drivers/CMSIS/Include/cmsis_gcc.h **** __STATIC_FORCEINLINE uint32_t __REV(uint32_t value)
 901:Drivers/CMSIS/Include/cmsis_gcc.h **** {
 902:Drivers/CMSIS/Include/cmsis_gcc.h **** #if (__GNUC__ > 4) || (__GNUC__ == 4 && __GNUC_MINOR__ >= 5)
 903:Drivers/CMSIS/Include/cmsis_gcc.h ****   return __builtin_bswap32(value);
 904:Drivers/CMSIS/Include/cmsis_gcc.h **** #else
 905:Drivers/CMSIS/Include/cmsis_gcc.h ****   uint32_t result;
 906:Drivers/CMSIS/Include/cmsis_gcc.h **** 
 907:Drivers/CMSIS/Include/cmsis_gcc.h ****   __ASM volatile ("rev %0, %1" : __CMSIS_GCC_OUT_REG (result) : __CMSIS_GCC_USE_REG (value) );
 908:Drivers/CMSIS/Include/cmsis_gcc.h ****   return result;
 909:Drivers/CMSIS/Include/cmsis_gcc.h **** #endif
 910:Drivers/CMSIS/Include/cmsis_gcc.h **** }
 911:Drivers/CMSIS/Include/cmsis_gcc.h **** 
 912:Drivers/CMSIS/Include/cmsis_gcc.h **** 
 913:Drivers/CMSIS/Include/cmsis_gcc.h **** /**
 914:Drivers/CMSIS/Include/cmsis_gcc.h ****   \brief   Reverse byte order (16 bit)
 915:Drivers/CMSIS/Include/cmsis_gcc.h ****   \details Reverses the byte order within each halfword of a word. For example, 0x12345678 becomes 
 916:Drivers/CMSIS/Include/cmsis_gcc.h ****   \param [in]    value  Value to reverse
 917:Drivers/CMSIS/Include/cmsis_gcc.h ****   \return               Reversed value
 918:Drivers/CMSIS/Include/cmsis_gcc.h ****  */
ARM GAS  /tmp/ccrOzmIp.s 			page 76


 919:Drivers/CMSIS/Include/cmsis_gcc.h **** __STATIC_FORCEINLINE uint32_t __REV16(uint32_t value)
 920:Drivers/CMSIS/Include/cmsis_gcc.h **** {
 921:Drivers/CMSIS/Include/cmsis_gcc.h ****   uint32_t result;
 922:Drivers/CMSIS/Include/cmsis_gcc.h **** 
 923:Drivers/CMSIS/Include/cmsis_gcc.h ****   __ASM volatile ("rev16 %0, %1" : __CMSIS_GCC_OUT_REG (result) : __CMSIS_GCC_USE_REG (value) );
 924:Drivers/CMSIS/Include/cmsis_gcc.h ****   return result;
 925:Drivers/CMSIS/Include/cmsis_gcc.h **** }
 926:Drivers/CMSIS/Include/cmsis_gcc.h **** 
 927:Drivers/CMSIS/Include/cmsis_gcc.h **** 
 928:Drivers/CMSIS/Include/cmsis_gcc.h **** /**
 929:Drivers/CMSIS/Include/cmsis_gcc.h ****   \brief   Reverse byte order (16 bit)
 930:Drivers/CMSIS/Include/cmsis_gcc.h ****   \details Reverses the byte order in a 16-bit value and returns the signed 16-bit result. For exam
 931:Drivers/CMSIS/Include/cmsis_gcc.h ****   \param [in]    value  Value to reverse
 932:Drivers/CMSIS/Include/cmsis_gcc.h ****   \return               Reversed value
 933:Drivers/CMSIS/Include/cmsis_gcc.h ****  */
 934:Drivers/CMSIS/Include/cmsis_gcc.h **** __STATIC_FORCEINLINE int16_t __REVSH(int16_t value)
 935:Drivers/CMSIS/Include/cmsis_gcc.h **** {
 936:Drivers/CMSIS/Include/cmsis_gcc.h **** #if (__GNUC__ > 4) || (__GNUC__ == 4 && __GNUC_MINOR__ >= 8)
 937:Drivers/CMSIS/Include/cmsis_gcc.h ****   return (int16_t)__builtin_bswap16(value);
 938:Drivers/CMSIS/Include/cmsis_gcc.h **** #else
 939:Drivers/CMSIS/Include/cmsis_gcc.h ****   int16_t result;
 940:Drivers/CMSIS/Include/cmsis_gcc.h **** 
 941:Drivers/CMSIS/Include/cmsis_gcc.h ****   __ASM volatile ("revsh %0, %1" : __CMSIS_GCC_OUT_REG (result) : __CMSIS_GCC_USE_REG (value) );
 942:Drivers/CMSIS/Include/cmsis_gcc.h ****   return result;
 943:Drivers/CMSIS/Include/cmsis_gcc.h **** #endif
 944:Drivers/CMSIS/Include/cmsis_gcc.h **** }
 945:Drivers/CMSIS/Include/cmsis_gcc.h **** 
 946:Drivers/CMSIS/Include/cmsis_gcc.h **** 
 947:Drivers/CMSIS/Include/cmsis_gcc.h **** /**
 948:Drivers/CMSIS/Include/cmsis_gcc.h ****   \brief   Rotate Right in unsigned value (32 bit)
 949:Drivers/CMSIS/Include/cmsis_gcc.h ****   \details Rotate Right (immediate) provides the value of the contents of a register rotated by a v
 950:Drivers/CMSIS/Include/cmsis_gcc.h ****   \param [in]    op1  Value to rotate
 951:Drivers/CMSIS/Include/cmsis_gcc.h ****   \param [in]    op2  Number of Bits to rotate
 952:Drivers/CMSIS/Include/cmsis_gcc.h ****   \return               Rotated value
 953:Drivers/CMSIS/Include/cmsis_gcc.h ****  */
 954:Drivers/CMSIS/Include/cmsis_gcc.h **** __STATIC_FORCEINLINE uint32_t __ROR(uint32_t op1, uint32_t op2)
 955:Drivers/CMSIS/Include/cmsis_gcc.h **** {
 956:Drivers/CMSIS/Include/cmsis_gcc.h ****   op2 %= 32U;
 957:Drivers/CMSIS/Include/cmsis_gcc.h ****   if (op2 == 0U)
 958:Drivers/CMSIS/Include/cmsis_gcc.h ****   {
 959:Drivers/CMSIS/Include/cmsis_gcc.h ****     return op1;
 960:Drivers/CMSIS/Include/cmsis_gcc.h ****   }
 961:Drivers/CMSIS/Include/cmsis_gcc.h ****   return (op1 >> op2) | (op1 << (32U - op2));
 962:Drivers/CMSIS/Include/cmsis_gcc.h **** }
 963:Drivers/CMSIS/Include/cmsis_gcc.h **** 
 964:Drivers/CMSIS/Include/cmsis_gcc.h **** 
 965:Drivers/CMSIS/Include/cmsis_gcc.h **** /**
 966:Drivers/CMSIS/Include/cmsis_gcc.h ****   \brief   Breakpoint
 967:Drivers/CMSIS/Include/cmsis_gcc.h ****   \details Causes the processor to enter Debug state.
 968:Drivers/CMSIS/Include/cmsis_gcc.h ****            Debug tools can use this to investigate system state when the instruction at a particula
 969:Drivers/CMSIS/Include/cmsis_gcc.h ****   \param [in]    value  is ignored by the processor.
 970:Drivers/CMSIS/Include/cmsis_gcc.h ****                  If required, a debugger can use it to store additional information about the break
 971:Drivers/CMSIS/Include/cmsis_gcc.h ****  */
 972:Drivers/CMSIS/Include/cmsis_gcc.h **** #define __BKPT(value)                       __ASM volatile ("bkpt "#value)
 973:Drivers/CMSIS/Include/cmsis_gcc.h **** 
 974:Drivers/CMSIS/Include/cmsis_gcc.h **** 
 975:Drivers/CMSIS/Include/cmsis_gcc.h **** /**
ARM GAS  /tmp/ccrOzmIp.s 			page 77


 976:Drivers/CMSIS/Include/cmsis_gcc.h ****   \brief   Reverse bit order of value
 977:Drivers/CMSIS/Include/cmsis_gcc.h ****   \details Reverses the bit order of the given value.
 978:Drivers/CMSIS/Include/cmsis_gcc.h ****   \param [in]    value  Value to reverse
 979:Drivers/CMSIS/Include/cmsis_gcc.h ****   \return               Reversed value
 980:Drivers/CMSIS/Include/cmsis_gcc.h ****  */
 981:Drivers/CMSIS/Include/cmsis_gcc.h **** __STATIC_FORCEINLINE uint32_t __RBIT(uint32_t value)
 1592              		.loc 2 981 31 view .LVU511
 1593              	.LBB5:
 982:Drivers/CMSIS/Include/cmsis_gcc.h **** {
 983:Drivers/CMSIS/Include/cmsis_gcc.h ****   uint32_t result;
 1594              		.loc 2 983 3 view .LVU512
 984:Drivers/CMSIS/Include/cmsis_gcc.h **** 
 985:Drivers/CMSIS/Include/cmsis_gcc.h **** #if ((defined (__ARM_ARCH_7M__      ) && (__ARM_ARCH_7M__      == 1)) || \
 986:Drivers/CMSIS/Include/cmsis_gcc.h ****      (defined (__ARM_ARCH_7EM__     ) && (__ARM_ARCH_7EM__     == 1)) || \
 987:Drivers/CMSIS/Include/cmsis_gcc.h ****      (defined (__ARM_ARCH_8M_MAIN__ ) && (__ARM_ARCH_8M_MAIN__ == 1))    )
 988:Drivers/CMSIS/Include/cmsis_gcc.h ****    __ASM volatile ("rbit %0, %1" : "=r" (result) : "r" (value) );
 1595              		.loc 2 988 4 view .LVU513
 1596              		.syntax unified
 1597              	@ 988 "Drivers/CMSIS/Include/cmsis_gcc.h" 1
 1598 0010 91FAA1F1 		rbit r1, r1
 1599              	@ 0 "" 2
 1600              	.LVL121:
 989:Drivers/CMSIS/Include/cmsis_gcc.h **** #else
 990:Drivers/CMSIS/Include/cmsis_gcc.h ****   uint32_t s = (4U /*sizeof(v)*/ * 8U) - 1U; /* extra shift needed at end */
 991:Drivers/CMSIS/Include/cmsis_gcc.h **** 
 992:Drivers/CMSIS/Include/cmsis_gcc.h ****   result = value;                      /* r will be reversed bits of v; first get LSB of v */
 993:Drivers/CMSIS/Include/cmsis_gcc.h ****   for (value >>= 1U; value != 0U; value >>= 1U)
 994:Drivers/CMSIS/Include/cmsis_gcc.h ****   {
 995:Drivers/CMSIS/Include/cmsis_gcc.h ****     result <<= 1U;
 996:Drivers/CMSIS/Include/cmsis_gcc.h ****     result |= value & 1U;
 997:Drivers/CMSIS/Include/cmsis_gcc.h ****     s--;
 998:Drivers/CMSIS/Include/cmsis_gcc.h ****   }
 999:Drivers/CMSIS/Include/cmsis_gcc.h ****   result <<= s;                        /* shift when v's highest bits are zero */
1000:Drivers/CMSIS/Include/cmsis_gcc.h **** #endif
1001:Drivers/CMSIS/Include/cmsis_gcc.h ****   return result;
 1601              		.loc 2 1001 3 view .LVU514
 1602              		.loc 2 1001 3 is_stmt 0 view .LVU515
 1603              		.thumb
 1604              		.syntax unified
 1605              	.LBE5:
 1606              	.LBE4:
1495:Drivers/STM32F4xx_HAL_Driver/Src/stm32f4xx_hal_can.c **** 
 1607              		.loc 1 1495 21 view .LVU516
 1608 0014 B1FA81F1 		clz	r1, r1
 1609              	.LVL122:
1498:Drivers/STM32F4xx_HAL_Driver/Src/stm32f4xx_hal_can.c ****   }
 1610              		.loc 1 1498 5 is_stmt 1 view .LVU517
1498:Drivers/STM32F4xx_HAL_Driver/Src/stm32f4xx_hal_can.c ****   }
 1611              		.loc 1 1498 22 is_stmt 0 view .LVU518
 1612 0018 0368     		ldr	r3, [r0]
1498:Drivers/STM32F4xx_HAL_Driver/Src/stm32f4xx_hal_can.c ****   }
 1613              		.loc 1 1498 61 view .LVU519
 1614 001a 1831     		adds	r1, r1, #24
 1615              	.LVL123:
1498:Drivers/STM32F4xx_HAL_Driver/Src/stm32f4xx_hal_can.c ****   }
 1616              		.loc 1 1498 61 view .LVU520
 1617 001c 03EB0113 		add	r3, r3, r1, lsl #4
ARM GAS  /tmp/ccrOzmIp.s 			page 78


 1618 0020 5868     		ldr	r0, [r3, #4]
 1619              	.LVL124:
1498:Drivers/STM32F4xx_HAL_Driver/Src/stm32f4xx_hal_can.c ****   }
 1620              		.loc 1 1498 85 view .LVU521
 1621 0022 000C     		lsrs	r0, r0, #16
 1622              	.LVL125:
1498:Drivers/STM32F4xx_HAL_Driver/Src/stm32f4xx_hal_can.c ****   }
 1623              		.loc 1 1498 85 view .LVU522
 1624 0024 7047     		bx	lr
 1625              		.cfi_endproc
 1626              	.LFE230:
 1628              		.section	.text.HAL_CAN_GetRxMessage,"ax",%progbits
 1629              		.align	1
 1630              		.global	HAL_CAN_GetRxMessage
 1631              		.syntax unified
 1632              		.thumb
 1633              		.thumb_func
 1635              	HAL_CAN_GetRxMessage:
 1636              	.LVL126:
 1637              	.LFB231:
1504:Drivers/STM32F4xx_HAL_Driver/Src/stm32f4xx_hal_can.c **** 
1505:Drivers/STM32F4xx_HAL_Driver/Src/stm32f4xx_hal_can.c **** /**
1506:Drivers/STM32F4xx_HAL_Driver/Src/stm32f4xx_hal_can.c ****   * @brief  Get an CAN frame from the Rx FIFO zone into the message RAM.
1507:Drivers/STM32F4xx_HAL_Driver/Src/stm32f4xx_hal_can.c ****   * @param  hcan pointer to an CAN_HandleTypeDef structure that contains
1508:Drivers/STM32F4xx_HAL_Driver/Src/stm32f4xx_hal_can.c ****   *         the configuration information for the specified CAN.
1509:Drivers/STM32F4xx_HAL_Driver/Src/stm32f4xx_hal_can.c ****   * @param  RxFifo Fifo number of the received message to be read.
1510:Drivers/STM32F4xx_HAL_Driver/Src/stm32f4xx_hal_can.c ****   *         This parameter can be a value of @arg CAN_receive_FIFO_number.
1511:Drivers/STM32F4xx_HAL_Driver/Src/stm32f4xx_hal_can.c ****   * @param  pHeader pointer to a CAN_RxHeaderTypeDef structure where the header
1512:Drivers/STM32F4xx_HAL_Driver/Src/stm32f4xx_hal_can.c ****   *         of the Rx frame will be stored.
1513:Drivers/STM32F4xx_HAL_Driver/Src/stm32f4xx_hal_can.c ****   * @param  aData array where the payload of the Rx frame will be stored.
1514:Drivers/STM32F4xx_HAL_Driver/Src/stm32f4xx_hal_can.c ****   * @retval HAL status
1515:Drivers/STM32F4xx_HAL_Driver/Src/stm32f4xx_hal_can.c ****   */
1516:Drivers/STM32F4xx_HAL_Driver/Src/stm32f4xx_hal_can.c **** HAL_StatusTypeDef HAL_CAN_GetRxMessage(CAN_HandleTypeDef *hcan, uint32_t RxFifo, CAN_RxHeaderTypeDe
1517:Drivers/STM32F4xx_HAL_Driver/Src/stm32f4xx_hal_can.c **** {
 1638              		.loc 1 1517 1 is_stmt 1 view -0
 1639              		.cfi_startproc
 1640              		@ args = 0, pretend = 0, frame = 0
 1641              		@ frame_needed = 0, uses_anonymous_args = 0
 1642              		@ link register save eliminated.
1518:Drivers/STM32F4xx_HAL_Driver/Src/stm32f4xx_hal_can.c ****   HAL_CAN_StateTypeDef state = hcan->State;
 1643              		.loc 1 1518 3 view .LVU524
 1644              		.loc 1 1518 24 is_stmt 0 view .LVU525
 1645 0000 90F820C0 		ldrb	ip, [r0, #32]	@ zero_extendqisi2
 1646              	.LVL127:
1519:Drivers/STM32F4xx_HAL_Driver/Src/stm32f4xx_hal_can.c **** 
1520:Drivers/STM32F4xx_HAL_Driver/Src/stm32f4xx_hal_can.c ****   assert_param(IS_CAN_RX_FIFO(RxFifo));
 1647              		.loc 1 1520 3 is_stmt 1 view .LVU526
1521:Drivers/STM32F4xx_HAL_Driver/Src/stm32f4xx_hal_can.c **** 
1522:Drivers/STM32F4xx_HAL_Driver/Src/stm32f4xx_hal_can.c ****   if ((state == HAL_CAN_STATE_READY) ||
 1648              		.loc 1 1522 3 view .LVU527
 1649              		.loc 1 1522 38 is_stmt 0 view .LVU528
 1650 0004 0CF1FF3C 		add	ip, ip, #-1
 1651              	.LVL128:
 1652              		.loc 1 1522 38 view .LVU529
 1653 0008 5FFA8CFC 		uxtb	ip, ip
 1654              		.loc 1 1522 6 view .LVU530
 1655 000c BCF1010F 		cmp	ip, #1
ARM GAS  /tmp/ccrOzmIp.s 			page 79


 1656 0010 00F29580 		bhi	.L135
1517:Drivers/STM32F4xx_HAL_Driver/Src/stm32f4xx_hal_can.c ****   HAL_CAN_StateTypeDef state = hcan->State;
 1657              		.loc 1 1517 1 view .LVU531
 1658 0014 30B4     		push	{r4, r5}
 1659              	.LCFI12:
 1660              		.cfi_def_cfa_offset 8
 1661              		.cfi_offset 4, -8
 1662              		.cfi_offset 5, -4
1523:Drivers/STM32F4xx_HAL_Driver/Src/stm32f4xx_hal_can.c ****       (state == HAL_CAN_STATE_LISTENING))
1524:Drivers/STM32F4xx_HAL_Driver/Src/stm32f4xx_hal_can.c ****   {
1525:Drivers/STM32F4xx_HAL_Driver/Src/stm32f4xx_hal_can.c ****     /* Check the Rx FIFO */
1526:Drivers/STM32F4xx_HAL_Driver/Src/stm32f4xx_hal_can.c ****     if (RxFifo == CAN_RX_FIFO0) /* Rx element is assigned to Rx FIFO 0 */
 1663              		.loc 1 1526 5 is_stmt 1 view .LVU532
 1664              		.loc 1 1526 8 is_stmt 0 view .LVU533
 1665 0016 51B9     		cbnz	r1, .L136
1527:Drivers/STM32F4xx_HAL_Driver/Src/stm32f4xx_hal_can.c ****     {
1528:Drivers/STM32F4xx_HAL_Driver/Src/stm32f4xx_hal_can.c ****       /* Check that the Rx FIFO 0 is not empty */
1529:Drivers/STM32F4xx_HAL_Driver/Src/stm32f4xx_hal_can.c ****       if ((hcan->Instance->RF0R & CAN_RF0R_FMP0) == 0U)
 1666              		.loc 1 1529 7 is_stmt 1 view .LVU534
 1667              		.loc 1 1529 16 is_stmt 0 view .LVU535
 1668 0018 0468     		ldr	r4, [r0]
 1669              		.loc 1 1529 26 view .LVU536
 1670 001a E468     		ldr	r4, [r4, #12]
 1671              		.loc 1 1529 10 view .LVU537
 1672 001c 14F0030F 		tst	r4, #3
 1673 0020 10D1     		bne	.L137
1530:Drivers/STM32F4xx_HAL_Driver/Src/stm32f4xx_hal_can.c ****       {
1531:Drivers/STM32F4xx_HAL_Driver/Src/stm32f4xx_hal_can.c ****         /* Update error code */
1532:Drivers/STM32F4xx_HAL_Driver/Src/stm32f4xx_hal_can.c ****         hcan->ErrorCode |= HAL_CAN_ERROR_PARAM;
 1674              		.loc 1 1532 9 is_stmt 1 view .LVU538
 1675              		.loc 1 1532 25 is_stmt 0 view .LVU539
 1676 0022 436A     		ldr	r3, [r0, #36]
 1677              	.LVL129:
 1678              		.loc 1 1532 25 view .LVU540
 1679 0024 43F40013 		orr	r3, r3, #2097152
 1680 0028 4362     		str	r3, [r0, #36]
1533:Drivers/STM32F4xx_HAL_Driver/Src/stm32f4xx_hal_can.c **** 
1534:Drivers/STM32F4xx_HAL_Driver/Src/stm32f4xx_hal_can.c ****         return HAL_ERROR;
 1681              		.loc 1 1534 9 is_stmt 1 view .LVU541
 1682              		.loc 1 1534 16 is_stmt 0 view .LVU542
 1683 002a 0120     		movs	r0, #1
 1684              	.LVL130:
 1685              		.loc 1 1534 16 view .LVU543
 1686 002c 77E0     		b	.L138
 1687              	.LVL131:
 1688              	.L136:
1535:Drivers/STM32F4xx_HAL_Driver/Src/stm32f4xx_hal_can.c ****       }
1536:Drivers/STM32F4xx_HAL_Driver/Src/stm32f4xx_hal_can.c ****     }
1537:Drivers/STM32F4xx_HAL_Driver/Src/stm32f4xx_hal_can.c ****     else /* Rx element is assigned to Rx FIFO 1 */
1538:Drivers/STM32F4xx_HAL_Driver/Src/stm32f4xx_hal_can.c ****     {
1539:Drivers/STM32F4xx_HAL_Driver/Src/stm32f4xx_hal_can.c ****       /* Check that the Rx FIFO 1 is not empty */
1540:Drivers/STM32F4xx_HAL_Driver/Src/stm32f4xx_hal_can.c ****       if ((hcan->Instance->RF1R & CAN_RF1R_FMP1) == 0U)
 1689              		.loc 1 1540 7 is_stmt 1 view .LVU544
 1690              		.loc 1 1540 16 is_stmt 0 view .LVU545
 1691 002e 0468     		ldr	r4, [r0]
 1692              		.loc 1 1540 26 view .LVU546
 1693 0030 2469     		ldr	r4, [r4, #16]
ARM GAS  /tmp/ccrOzmIp.s 			page 80


 1694              		.loc 1 1540 10 view .LVU547
 1695 0032 14F0030F 		tst	r4, #3
 1696 0036 05D1     		bne	.L137
1541:Drivers/STM32F4xx_HAL_Driver/Src/stm32f4xx_hal_can.c ****       {
1542:Drivers/STM32F4xx_HAL_Driver/Src/stm32f4xx_hal_can.c ****         /* Update error code */
1543:Drivers/STM32F4xx_HAL_Driver/Src/stm32f4xx_hal_can.c ****         hcan->ErrorCode |= HAL_CAN_ERROR_PARAM;
 1697              		.loc 1 1543 9 is_stmt 1 view .LVU548
 1698              		.loc 1 1543 25 is_stmt 0 view .LVU549
 1699 0038 436A     		ldr	r3, [r0, #36]
 1700              	.LVL132:
 1701              		.loc 1 1543 25 view .LVU550
 1702 003a 43F40013 		orr	r3, r3, #2097152
 1703 003e 4362     		str	r3, [r0, #36]
1544:Drivers/STM32F4xx_HAL_Driver/Src/stm32f4xx_hal_can.c **** 
1545:Drivers/STM32F4xx_HAL_Driver/Src/stm32f4xx_hal_can.c ****         return HAL_ERROR;
 1704              		.loc 1 1545 9 is_stmt 1 view .LVU551
 1705              		.loc 1 1545 16 is_stmt 0 view .LVU552
 1706 0040 0120     		movs	r0, #1
 1707              	.LVL133:
 1708              		.loc 1 1545 16 view .LVU553
 1709 0042 6CE0     		b	.L138
 1710              	.LVL134:
 1711              	.L137:
1546:Drivers/STM32F4xx_HAL_Driver/Src/stm32f4xx_hal_can.c ****       }
1547:Drivers/STM32F4xx_HAL_Driver/Src/stm32f4xx_hal_can.c ****     }
1548:Drivers/STM32F4xx_HAL_Driver/Src/stm32f4xx_hal_can.c **** 
1549:Drivers/STM32F4xx_HAL_Driver/Src/stm32f4xx_hal_can.c ****     /* Get the header */
1550:Drivers/STM32F4xx_HAL_Driver/Src/stm32f4xx_hal_can.c ****     pHeader->IDE = CAN_RI0R_IDE & hcan->Instance->sFIFOMailBox[RxFifo].RIR;
 1712              		.loc 1 1550 5 is_stmt 1 view .LVU554
 1713              		.loc 1 1550 71 is_stmt 0 view .LVU555
 1714 0044 01F11B04 		add	r4, r1, #27
 1715 0048 2401     		lsls	r4, r4, #4
 1716 004a 0568     		ldr	r5, [r0]
 1717 004c 2C59     		ldr	r4, [r5, r4]
 1718              		.loc 1 1550 33 view .LVU556
 1719 004e 04F00404 		and	r4, r4, #4
 1720              		.loc 1 1550 18 view .LVU557
 1721 0052 9460     		str	r4, [r2, #8]
1551:Drivers/STM32F4xx_HAL_Driver/Src/stm32f4xx_hal_can.c ****     if (pHeader->IDE == CAN_ID_STD)
 1722              		.loc 1 1551 5 is_stmt 1 view .LVU558
 1723              		.loc 1 1551 8 is_stmt 0 view .LVU559
 1724 0054 002C     		cmp	r4, #0
 1725 0056 64D1     		bne	.L139
1552:Drivers/STM32F4xx_HAL_Driver/Src/stm32f4xx_hal_can.c ****     {
1553:Drivers/STM32F4xx_HAL_Driver/Src/stm32f4xx_hal_can.c ****       pHeader->StdId = (CAN_RI0R_STID & hcan->Instance->sFIFOMailBox[RxFifo].RIR) >> CAN_TI0R_STID_
 1726              		.loc 1 1553 7 is_stmt 1 view .LVU560
 1727              		.loc 1 1553 77 is_stmt 0 view .LVU561
 1728 0058 01F11B04 		add	r4, r1, #27
 1729 005c 2401     		lsls	r4, r4, #4
 1730 005e 0568     		ldr	r5, [r0]
 1731 0060 2C59     		ldr	r4, [r5, r4]
 1732              		.loc 1 1553 83 view .LVU562
 1733 0062 640D     		lsrs	r4, r4, #21
 1734              		.loc 1 1553 22 view .LVU563
 1735 0064 1460     		str	r4, [r2]
 1736              	.L140:
1554:Drivers/STM32F4xx_HAL_Driver/Src/stm32f4xx_hal_can.c ****     }
ARM GAS  /tmp/ccrOzmIp.s 			page 81


1555:Drivers/STM32F4xx_HAL_Driver/Src/stm32f4xx_hal_can.c ****     else
1556:Drivers/STM32F4xx_HAL_Driver/Src/stm32f4xx_hal_can.c ****     {
1557:Drivers/STM32F4xx_HAL_Driver/Src/stm32f4xx_hal_can.c ****       pHeader->ExtId = ((CAN_RI0R_EXID | CAN_RI0R_STID) & hcan->Instance->sFIFOMailBox[RxFifo].RIR)
1558:Drivers/STM32F4xx_HAL_Driver/Src/stm32f4xx_hal_can.c ****     }
1559:Drivers/STM32F4xx_HAL_Driver/Src/stm32f4xx_hal_can.c ****     pHeader->RTR = (CAN_RI0R_RTR & hcan->Instance->sFIFOMailBox[RxFifo].RIR);
 1737              		.loc 1 1559 5 is_stmt 1 view .LVU564
 1738              		.loc 1 1559 40 is_stmt 0 view .LVU565
 1739 0066 0468     		ldr	r4, [r0]
 1740              		.loc 1 1559 72 view .LVU566
 1741 0068 01F11B0C 		add	ip, r1, #27
 1742 006c 4FEA0C1C 		lsl	ip, ip, #4
 1743 0070 54F80C40 		ldr	r4, [r4, ip]
 1744              		.loc 1 1559 34 view .LVU567
 1745 0074 04F00204 		and	r4, r4, #2
 1746              		.loc 1 1559 18 view .LVU568
 1747 0078 D460     		str	r4, [r2, #12]
1560:Drivers/STM32F4xx_HAL_Driver/Src/stm32f4xx_hal_can.c ****     pHeader->DLC = (CAN_RDT0R_DLC & hcan->Instance->sFIFOMailBox[RxFifo].RDTR) >> CAN_RDT0R_DLC_Pos
 1748              		.loc 1 1560 5 is_stmt 1 view .LVU569
 1749              		.loc 1 1560 41 is_stmt 0 view .LVU570
 1750 007a 0468     		ldr	r4, [r0]
 1751              		.loc 1 1560 73 view .LVU571
 1752 007c 6444     		add	r4, r4, ip
 1753 007e 6468     		ldr	r4, [r4, #4]
 1754              		.loc 1 1560 80 view .LVU572
 1755 0080 04F00F04 		and	r4, r4, #15
 1756              		.loc 1 1560 18 view .LVU573
 1757 0084 1461     		str	r4, [r2, #16]
1561:Drivers/STM32F4xx_HAL_Driver/Src/stm32f4xx_hal_can.c ****     pHeader->FilterMatchIndex = (CAN_RDT0R_FMI & hcan->Instance->sFIFOMailBox[RxFifo].RDTR) >> CAN_
 1758              		.loc 1 1561 5 is_stmt 1 view .LVU574
 1759              		.loc 1 1561 54 is_stmt 0 view .LVU575
 1760 0086 0468     		ldr	r4, [r0]
 1761              		.loc 1 1561 86 view .LVU576
 1762 0088 6444     		add	r4, r4, ip
 1763 008a 6468     		ldr	r4, [r4, #4]
 1764              		.loc 1 1561 93 view .LVU577
 1765 008c C4F30724 		ubfx	r4, r4, #8, #8
 1766              		.loc 1 1561 31 view .LVU578
 1767 0090 9461     		str	r4, [r2, #24]
1562:Drivers/STM32F4xx_HAL_Driver/Src/stm32f4xx_hal_can.c ****     pHeader->Timestamp = (CAN_RDT0R_TIME & hcan->Instance->sFIFOMailBox[RxFifo].RDTR) >> CAN_RDT0R_
 1768              		.loc 1 1562 5 is_stmt 1 view .LVU579
 1769              		.loc 1 1562 48 is_stmt 0 view .LVU580
 1770 0092 0468     		ldr	r4, [r0]
 1771              		.loc 1 1562 80 view .LVU581
 1772 0094 6444     		add	r4, r4, ip
 1773 0096 6468     		ldr	r4, [r4, #4]
 1774              		.loc 1 1562 87 view .LVU582
 1775 0098 240C     		lsrs	r4, r4, #16
 1776              		.loc 1 1562 24 view .LVU583
 1777 009a 5461     		str	r4, [r2, #20]
1563:Drivers/STM32F4xx_HAL_Driver/Src/stm32f4xx_hal_can.c **** 
1564:Drivers/STM32F4xx_HAL_Driver/Src/stm32f4xx_hal_can.c ****     /* Get the data */
1565:Drivers/STM32F4xx_HAL_Driver/Src/stm32f4xx_hal_can.c ****     aData[0] = (uint8_t)((CAN_RDL0R_DATA0 & hcan->Instance->sFIFOMailBox[RxFifo].RDLR) >> CAN_RDL0R
 1778              		.loc 1 1565 5 is_stmt 1 view .LVU584
 1779              		.loc 1 1565 49 is_stmt 0 view .LVU585
 1780 009c 0268     		ldr	r2, [r0]
 1781              	.LVL135:
 1782              		.loc 1 1565 81 view .LVU586
ARM GAS  /tmp/ccrOzmIp.s 			page 82


 1783 009e 02EB0112 		add	r2, r2, r1, lsl #4
 1784 00a2 D2F8B821 		ldr	r2, [r2, #440]
 1785              		.loc 1 1565 14 view .LVU587
 1786 00a6 1A70     		strb	r2, [r3]
1566:Drivers/STM32F4xx_HAL_Driver/Src/stm32f4xx_hal_can.c ****     aData[1] = (uint8_t)((CAN_RDL0R_DATA1 & hcan->Instance->sFIFOMailBox[RxFifo].RDLR) >> CAN_RDL0R
 1787              		.loc 1 1566 5 is_stmt 1 view .LVU588
 1788              		.loc 1 1566 49 is_stmt 0 view .LVU589
 1789 00a8 0268     		ldr	r2, [r0]
 1790              		.loc 1 1566 81 view .LVU590
 1791 00aa 02EB0112 		add	r2, r2, r1, lsl #4
 1792 00ae D2F8B821 		ldr	r2, [r2, #440]
 1793              		.loc 1 1566 16 view .LVU591
 1794 00b2 C2F30722 		ubfx	r2, r2, #8, #8
 1795              		.loc 1 1566 14 view .LVU592
 1796 00b6 5A70     		strb	r2, [r3, #1]
1567:Drivers/STM32F4xx_HAL_Driver/Src/stm32f4xx_hal_can.c ****     aData[2] = (uint8_t)((CAN_RDL0R_DATA2 & hcan->Instance->sFIFOMailBox[RxFifo].RDLR) >> CAN_RDL0R
 1797              		.loc 1 1567 5 is_stmt 1 view .LVU593
 1798              		.loc 1 1567 49 is_stmt 0 view .LVU594
 1799 00b8 0268     		ldr	r2, [r0]
 1800              		.loc 1 1567 81 view .LVU595
 1801 00ba 02EB0112 		add	r2, r2, r1, lsl #4
 1802 00be D2F8B821 		ldr	r2, [r2, #440]
 1803              		.loc 1 1567 16 view .LVU596
 1804 00c2 C2F30742 		ubfx	r2, r2, #16, #8
 1805              		.loc 1 1567 14 view .LVU597
 1806 00c6 9A70     		strb	r2, [r3, #2]
1568:Drivers/STM32F4xx_HAL_Driver/Src/stm32f4xx_hal_can.c ****     aData[3] = (uint8_t)((CAN_RDL0R_DATA3 & hcan->Instance->sFIFOMailBox[RxFifo].RDLR) >> CAN_RDL0R
 1807              		.loc 1 1568 5 is_stmt 1 view .LVU598
 1808              		.loc 1 1568 49 is_stmt 0 view .LVU599
 1809 00c8 0268     		ldr	r2, [r0]
 1810              		.loc 1 1568 81 view .LVU600
 1811 00ca 02EB0112 		add	r2, r2, r1, lsl #4
 1812 00ce D2F8B821 		ldr	r2, [r2, #440]
 1813              		.loc 1 1568 16 view .LVU601
 1814 00d2 120E     		lsrs	r2, r2, #24
 1815              		.loc 1 1568 14 view .LVU602
 1816 00d4 DA70     		strb	r2, [r3, #3]
1569:Drivers/STM32F4xx_HAL_Driver/Src/stm32f4xx_hal_can.c ****     aData[4] = (uint8_t)((CAN_RDH0R_DATA4 & hcan->Instance->sFIFOMailBox[RxFifo].RDHR) >> CAN_RDH0R
 1817              		.loc 1 1569 5 is_stmt 1 view .LVU603
 1818              		.loc 1 1569 49 is_stmt 0 view .LVU604
 1819 00d6 0268     		ldr	r2, [r0]
 1820              		.loc 1 1569 81 view .LVU605
 1821 00d8 02EB0112 		add	r2, r2, r1, lsl #4
 1822 00dc D2F8BC21 		ldr	r2, [r2, #444]
 1823              		.loc 1 1569 14 view .LVU606
 1824 00e0 1A71     		strb	r2, [r3, #4]
1570:Drivers/STM32F4xx_HAL_Driver/Src/stm32f4xx_hal_can.c ****     aData[5] = (uint8_t)((CAN_RDH0R_DATA5 & hcan->Instance->sFIFOMailBox[RxFifo].RDHR) >> CAN_RDH0R
 1825              		.loc 1 1570 5 is_stmt 1 view .LVU607
 1826              		.loc 1 1570 49 is_stmt 0 view .LVU608
 1827 00e2 0268     		ldr	r2, [r0]
 1828              		.loc 1 1570 81 view .LVU609
 1829 00e4 02EB0112 		add	r2, r2, r1, lsl #4
 1830 00e8 D2F8BC21 		ldr	r2, [r2, #444]
 1831              		.loc 1 1570 16 view .LVU610
 1832 00ec C2F30722 		ubfx	r2, r2, #8, #8
 1833              		.loc 1 1570 14 view .LVU611
 1834 00f0 5A71     		strb	r2, [r3, #5]
ARM GAS  /tmp/ccrOzmIp.s 			page 83


1571:Drivers/STM32F4xx_HAL_Driver/Src/stm32f4xx_hal_can.c ****     aData[6] = (uint8_t)((CAN_RDH0R_DATA6 & hcan->Instance->sFIFOMailBox[RxFifo].RDHR) >> CAN_RDH0R
 1835              		.loc 1 1571 5 is_stmt 1 view .LVU612
 1836              		.loc 1 1571 49 is_stmt 0 view .LVU613
 1837 00f2 0268     		ldr	r2, [r0]
 1838              		.loc 1 1571 81 view .LVU614
 1839 00f4 02EB0112 		add	r2, r2, r1, lsl #4
 1840 00f8 D2F8BC21 		ldr	r2, [r2, #444]
 1841              		.loc 1 1571 16 view .LVU615
 1842 00fc C2F30742 		ubfx	r2, r2, #16, #8
 1843              		.loc 1 1571 14 view .LVU616
 1844 0100 9A71     		strb	r2, [r3, #6]
1572:Drivers/STM32F4xx_HAL_Driver/Src/stm32f4xx_hal_can.c ****     aData[7] = (uint8_t)((CAN_RDH0R_DATA7 & hcan->Instance->sFIFOMailBox[RxFifo].RDHR) >> CAN_RDH0R
 1845              		.loc 1 1572 5 is_stmt 1 view .LVU617
 1846              		.loc 1 1572 49 is_stmt 0 view .LVU618
 1847 0102 0268     		ldr	r2, [r0]
 1848              		.loc 1 1572 81 view .LVU619
 1849 0104 02EB0112 		add	r2, r2, r1, lsl #4
 1850 0108 D2F8BC21 		ldr	r2, [r2, #444]
 1851              		.loc 1 1572 16 view .LVU620
 1852 010c 120E     		lsrs	r2, r2, #24
 1853              		.loc 1 1572 14 view .LVU621
 1854 010e DA71     		strb	r2, [r3, #7]
1573:Drivers/STM32F4xx_HAL_Driver/Src/stm32f4xx_hal_can.c **** 
1574:Drivers/STM32F4xx_HAL_Driver/Src/stm32f4xx_hal_can.c ****     /* Release the FIFO */
1575:Drivers/STM32F4xx_HAL_Driver/Src/stm32f4xx_hal_can.c ****     if (RxFifo == CAN_RX_FIFO0) /* Rx element is assigned to Rx FIFO 0 */
 1855              		.loc 1 1575 5 is_stmt 1 view .LVU622
 1856              		.loc 1 1575 8 is_stmt 0 view .LVU623
 1857 0110 79B9     		cbnz	r1, .L141
1576:Drivers/STM32F4xx_HAL_Driver/Src/stm32f4xx_hal_can.c ****     {
1577:Drivers/STM32F4xx_HAL_Driver/Src/stm32f4xx_hal_can.c ****       /* Release RX FIFO 0 */
1578:Drivers/STM32F4xx_HAL_Driver/Src/stm32f4xx_hal_can.c ****       SET_BIT(hcan->Instance->RF0R, CAN_RF0R_RFOM0);
 1858              		.loc 1 1578 7 is_stmt 1 view .LVU624
 1859 0112 0268     		ldr	r2, [r0]
 1860 0114 D368     		ldr	r3, [r2, #12]
 1861              	.LVL136:
 1862              		.loc 1 1578 7 is_stmt 0 view .LVU625
 1863 0116 43F02003 		orr	r3, r3, #32
 1864 011a D360     		str	r3, [r2, #12]
 1865              	.L142:
1579:Drivers/STM32F4xx_HAL_Driver/Src/stm32f4xx_hal_can.c ****     }
1580:Drivers/STM32F4xx_HAL_Driver/Src/stm32f4xx_hal_can.c ****     else /* Rx element is assigned to Rx FIFO 1 */
1581:Drivers/STM32F4xx_HAL_Driver/Src/stm32f4xx_hal_can.c ****     {
1582:Drivers/STM32F4xx_HAL_Driver/Src/stm32f4xx_hal_can.c ****       /* Release RX FIFO 1 */
1583:Drivers/STM32F4xx_HAL_Driver/Src/stm32f4xx_hal_can.c ****       SET_BIT(hcan->Instance->RF1R, CAN_RF1R_RFOM1);
1584:Drivers/STM32F4xx_HAL_Driver/Src/stm32f4xx_hal_can.c ****     }
1585:Drivers/STM32F4xx_HAL_Driver/Src/stm32f4xx_hal_can.c **** 
1586:Drivers/STM32F4xx_HAL_Driver/Src/stm32f4xx_hal_can.c ****     /* Return function status */
1587:Drivers/STM32F4xx_HAL_Driver/Src/stm32f4xx_hal_can.c ****     return HAL_OK;
 1866              		.loc 1 1587 5 is_stmt 1 view .LVU626
 1867              		.loc 1 1587 12 is_stmt 0 view .LVU627
 1868 011c 0020     		movs	r0, #0
 1869              	.LVL137:
 1870              	.L138:
1588:Drivers/STM32F4xx_HAL_Driver/Src/stm32f4xx_hal_can.c ****   }
1589:Drivers/STM32F4xx_HAL_Driver/Src/stm32f4xx_hal_can.c ****   else
1590:Drivers/STM32F4xx_HAL_Driver/Src/stm32f4xx_hal_can.c ****   {
1591:Drivers/STM32F4xx_HAL_Driver/Src/stm32f4xx_hal_can.c ****     /* Update error code */
ARM GAS  /tmp/ccrOzmIp.s 			page 84


1592:Drivers/STM32F4xx_HAL_Driver/Src/stm32f4xx_hal_can.c ****     hcan->ErrorCode |= HAL_CAN_ERROR_NOT_INITIALIZED;
1593:Drivers/STM32F4xx_HAL_Driver/Src/stm32f4xx_hal_can.c **** 
1594:Drivers/STM32F4xx_HAL_Driver/Src/stm32f4xx_hal_can.c ****     return HAL_ERROR;
1595:Drivers/STM32F4xx_HAL_Driver/Src/stm32f4xx_hal_can.c ****   }
1596:Drivers/STM32F4xx_HAL_Driver/Src/stm32f4xx_hal_can.c **** }
 1871              		.loc 1 1596 1 view .LVU628
 1872 011e 30BC     		pop	{r4, r5}
 1873              	.LCFI13:
 1874              		.cfi_remember_state
 1875              		.cfi_restore 5
 1876              		.cfi_restore 4
 1877              		.cfi_def_cfa_offset 0
 1878 0120 7047     		bx	lr
 1879              	.LVL138:
 1880              	.L139:
 1881              	.LCFI14:
 1882              		.cfi_restore_state
1557:Drivers/STM32F4xx_HAL_Driver/Src/stm32f4xx_hal_can.c ****     }
 1883              		.loc 1 1557 7 is_stmt 1 view .LVU629
1557:Drivers/STM32F4xx_HAL_Driver/Src/stm32f4xx_hal_can.c ****     }
 1884              		.loc 1 1557 95 is_stmt 0 view .LVU630
 1885 0122 01F11B04 		add	r4, r1, #27
 1886 0126 2401     		lsls	r4, r4, #4
 1887 0128 0568     		ldr	r5, [r0]
 1888 012a 2C59     		ldr	r4, [r5, r4]
1557:Drivers/STM32F4xx_HAL_Driver/Src/stm32f4xx_hal_can.c ****     }
 1889              		.loc 1 1557 101 view .LVU631
 1890 012c E408     		lsrs	r4, r4, #3
1557:Drivers/STM32F4xx_HAL_Driver/Src/stm32f4xx_hal_can.c ****     }
 1891              		.loc 1 1557 22 view .LVU632
 1892 012e 5460     		str	r4, [r2, #4]
 1893 0130 99E7     		b	.L140
 1894              	.LVL139:
 1895              	.L141:
1583:Drivers/STM32F4xx_HAL_Driver/Src/stm32f4xx_hal_can.c ****     }
 1896              		.loc 1 1583 7 is_stmt 1 view .LVU633
 1897 0132 0268     		ldr	r2, [r0]
 1898 0134 1369     		ldr	r3, [r2, #16]
 1899              	.LVL140:
1583:Drivers/STM32F4xx_HAL_Driver/Src/stm32f4xx_hal_can.c ****     }
 1900              		.loc 1 1583 7 is_stmt 0 view .LVU634
 1901 0136 43F02003 		orr	r3, r3, #32
 1902 013a 1361     		str	r3, [r2, #16]
 1903 013c EEE7     		b	.L142
 1904              	.LVL141:
 1905              	.L135:
 1906              	.LCFI15:
 1907              		.cfi_def_cfa_offset 0
 1908              		.cfi_restore 4
 1909              		.cfi_restore 5
1592:Drivers/STM32F4xx_HAL_Driver/Src/stm32f4xx_hal_can.c **** 
 1910              		.loc 1 1592 5 is_stmt 1 view .LVU635
1592:Drivers/STM32F4xx_HAL_Driver/Src/stm32f4xx_hal_can.c **** 
 1911              		.loc 1 1592 21 is_stmt 0 view .LVU636
 1912 013e 436A     		ldr	r3, [r0, #36]
 1913              	.LVL142:
1592:Drivers/STM32F4xx_HAL_Driver/Src/stm32f4xx_hal_can.c **** 
ARM GAS  /tmp/ccrOzmIp.s 			page 85


 1914              		.loc 1 1592 21 view .LVU637
 1915 0140 43F48023 		orr	r3, r3, #262144
 1916 0144 4362     		str	r3, [r0, #36]
1594:Drivers/STM32F4xx_HAL_Driver/Src/stm32f4xx_hal_can.c ****   }
 1917              		.loc 1 1594 5 is_stmt 1 view .LVU638
1594:Drivers/STM32F4xx_HAL_Driver/Src/stm32f4xx_hal_can.c ****   }
 1918              		.loc 1 1594 12 is_stmt 0 view .LVU639
 1919 0146 0120     		movs	r0, #1
 1920              	.LVL143:
 1921              		.loc 1 1596 1 view .LVU640
 1922 0148 7047     		bx	lr
 1923              		.cfi_endproc
 1924              	.LFE231:
 1926              		.section	.text.HAL_CAN_GetRxFifoFillLevel,"ax",%progbits
 1927              		.align	1
 1928              		.global	HAL_CAN_GetRxFifoFillLevel
 1929              		.syntax unified
 1930              		.thumb
 1931              		.thumb_func
 1933              	HAL_CAN_GetRxFifoFillLevel:
 1934              	.LVL144:
 1935              	.LFB232:
1597:Drivers/STM32F4xx_HAL_Driver/Src/stm32f4xx_hal_can.c **** 
1598:Drivers/STM32F4xx_HAL_Driver/Src/stm32f4xx_hal_can.c **** /**
1599:Drivers/STM32F4xx_HAL_Driver/Src/stm32f4xx_hal_can.c ****   * @brief  Return Rx FIFO fill level.
1600:Drivers/STM32F4xx_HAL_Driver/Src/stm32f4xx_hal_can.c ****   * @param  hcan pointer to an CAN_HandleTypeDef structure that contains
1601:Drivers/STM32F4xx_HAL_Driver/Src/stm32f4xx_hal_can.c ****   *         the configuration information for the specified CAN.
1602:Drivers/STM32F4xx_HAL_Driver/Src/stm32f4xx_hal_can.c ****   * @param  RxFifo Rx FIFO.
1603:Drivers/STM32F4xx_HAL_Driver/Src/stm32f4xx_hal_can.c ****   *         This parameter can be a value of @arg CAN_receive_FIFO_number.
1604:Drivers/STM32F4xx_HAL_Driver/Src/stm32f4xx_hal_can.c ****   * @retval Number of messages available in Rx FIFO.
1605:Drivers/STM32F4xx_HAL_Driver/Src/stm32f4xx_hal_can.c ****   */
1606:Drivers/STM32F4xx_HAL_Driver/Src/stm32f4xx_hal_can.c **** uint32_t HAL_CAN_GetRxFifoFillLevel(CAN_HandleTypeDef *hcan, uint32_t RxFifo)
1607:Drivers/STM32F4xx_HAL_Driver/Src/stm32f4xx_hal_can.c **** {
 1936              		.loc 1 1607 1 is_stmt 1 view -0
 1937              		.cfi_startproc
 1938              		@ args = 0, pretend = 0, frame = 0
 1939              		@ frame_needed = 0, uses_anonymous_args = 0
 1940              		@ link register save eliminated.
1608:Drivers/STM32F4xx_HAL_Driver/Src/stm32f4xx_hal_can.c ****   uint32_t filllevel = 0U;
 1941              		.loc 1 1608 3 view .LVU642
1609:Drivers/STM32F4xx_HAL_Driver/Src/stm32f4xx_hal_can.c ****   HAL_CAN_StateTypeDef state = hcan->State;
 1942              		.loc 1 1609 3 view .LVU643
 1943              		.loc 1 1609 24 is_stmt 0 view .LVU644
 1944 0000 90F82030 		ldrb	r3, [r0, #32]	@ zero_extendqisi2
 1945              	.LVL145:
1610:Drivers/STM32F4xx_HAL_Driver/Src/stm32f4xx_hal_can.c **** 
1611:Drivers/STM32F4xx_HAL_Driver/Src/stm32f4xx_hal_can.c ****   /* Check function parameters */
1612:Drivers/STM32F4xx_HAL_Driver/Src/stm32f4xx_hal_can.c ****   assert_param(IS_CAN_RX_FIFO(RxFifo));
 1946              		.loc 1 1612 3 is_stmt 1 view .LVU645
1613:Drivers/STM32F4xx_HAL_Driver/Src/stm32f4xx_hal_can.c **** 
1614:Drivers/STM32F4xx_HAL_Driver/Src/stm32f4xx_hal_can.c ****   if ((state == HAL_CAN_STATE_READY) ||
 1947              		.loc 1 1614 3 view .LVU646
 1948              		.loc 1 1614 38 is_stmt 0 view .LVU647
 1949 0004 013B     		subs	r3, r3, #1
 1950              	.LVL146:
 1951              		.loc 1 1614 38 view .LVU648
 1952 0006 DBB2     		uxtb	r3, r3
ARM GAS  /tmp/ccrOzmIp.s 			page 86


 1953              		.loc 1 1614 6 view .LVU649
 1954 0008 012B     		cmp	r3, #1
 1955 000a 01D9     		bls	.L151
1608:Drivers/STM32F4xx_HAL_Driver/Src/stm32f4xx_hal_can.c ****   HAL_CAN_StateTypeDef state = hcan->State;
 1956              		.loc 1 1608 12 view .LVU650
 1957 000c 0020     		movs	r0, #0
 1958              	.LVL147:
1615:Drivers/STM32F4xx_HAL_Driver/Src/stm32f4xx_hal_can.c ****       (state == HAL_CAN_STATE_LISTENING))
1616:Drivers/STM32F4xx_HAL_Driver/Src/stm32f4xx_hal_can.c ****   {
1617:Drivers/STM32F4xx_HAL_Driver/Src/stm32f4xx_hal_can.c ****     if (RxFifo == CAN_RX_FIFO0)
1618:Drivers/STM32F4xx_HAL_Driver/Src/stm32f4xx_hal_can.c ****     {
1619:Drivers/STM32F4xx_HAL_Driver/Src/stm32f4xx_hal_can.c ****       filllevel = hcan->Instance->RF0R & CAN_RF0R_FMP0;
1620:Drivers/STM32F4xx_HAL_Driver/Src/stm32f4xx_hal_can.c ****     }
1621:Drivers/STM32F4xx_HAL_Driver/Src/stm32f4xx_hal_can.c ****     else /* RxFifo == CAN_RX_FIFO1 */
1622:Drivers/STM32F4xx_HAL_Driver/Src/stm32f4xx_hal_can.c ****     {
1623:Drivers/STM32F4xx_HAL_Driver/Src/stm32f4xx_hal_can.c ****       filllevel = hcan->Instance->RF1R & CAN_RF1R_FMP1;
1624:Drivers/STM32F4xx_HAL_Driver/Src/stm32f4xx_hal_can.c ****     }
1625:Drivers/STM32F4xx_HAL_Driver/Src/stm32f4xx_hal_can.c ****   }
1626:Drivers/STM32F4xx_HAL_Driver/Src/stm32f4xx_hal_can.c **** 
1627:Drivers/STM32F4xx_HAL_Driver/Src/stm32f4xx_hal_can.c ****   /* Return Rx FIFO fill level */
1628:Drivers/STM32F4xx_HAL_Driver/Src/stm32f4xx_hal_can.c ****   return filllevel;
 1959              		.loc 1 1628 3 is_stmt 1 view .LVU651
1629:Drivers/STM32F4xx_HAL_Driver/Src/stm32f4xx_hal_can.c **** }
 1960              		.loc 1 1629 1 is_stmt 0 view .LVU652
 1961 000e 7047     		bx	lr
 1962              	.LVL148:
 1963              	.L151:
1617:Drivers/STM32F4xx_HAL_Driver/Src/stm32f4xx_hal_can.c ****     {
 1964              		.loc 1 1617 5 is_stmt 1 view .LVU653
1617:Drivers/STM32F4xx_HAL_Driver/Src/stm32f4xx_hal_can.c ****     {
 1965              		.loc 1 1617 8 is_stmt 0 view .LVU654
 1966 0010 21B9     		cbnz	r1, .L149
1619:Drivers/STM32F4xx_HAL_Driver/Src/stm32f4xx_hal_can.c ****     }
 1967              		.loc 1 1619 7 is_stmt 1 view .LVU655
1619:Drivers/STM32F4xx_HAL_Driver/Src/stm32f4xx_hal_can.c ****     }
 1968              		.loc 1 1619 23 is_stmt 0 view .LVU656
 1969 0012 0368     		ldr	r3, [r0]
1619:Drivers/STM32F4xx_HAL_Driver/Src/stm32f4xx_hal_can.c ****     }
 1970              		.loc 1 1619 33 view .LVU657
 1971 0014 D868     		ldr	r0, [r3, #12]
 1972              	.LVL149:
1619:Drivers/STM32F4xx_HAL_Driver/Src/stm32f4xx_hal_can.c ****     }
 1973              		.loc 1 1619 17 view .LVU658
 1974 0016 00F00300 		and	r0, r0, #3
 1975              	.LVL150:
1619:Drivers/STM32F4xx_HAL_Driver/Src/stm32f4xx_hal_can.c ****     }
 1976              		.loc 1 1619 17 view .LVU659
 1977 001a 7047     		bx	lr
 1978              	.LVL151:
 1979              	.L149:
1623:Drivers/STM32F4xx_HAL_Driver/Src/stm32f4xx_hal_can.c ****     }
 1980              		.loc 1 1623 7 is_stmt 1 view .LVU660
1623:Drivers/STM32F4xx_HAL_Driver/Src/stm32f4xx_hal_can.c ****     }
 1981              		.loc 1 1623 23 is_stmt 0 view .LVU661
 1982 001c 0368     		ldr	r3, [r0]
1623:Drivers/STM32F4xx_HAL_Driver/Src/stm32f4xx_hal_can.c ****     }
 1983              		.loc 1 1623 33 view .LVU662
ARM GAS  /tmp/ccrOzmIp.s 			page 87


 1984 001e 1869     		ldr	r0, [r3, #16]
 1985              	.LVL152:
1623:Drivers/STM32F4xx_HAL_Driver/Src/stm32f4xx_hal_can.c ****     }
 1986              		.loc 1 1623 17 view .LVU663
 1987 0020 00F00300 		and	r0, r0, #3
 1988              	.LVL153:
1623:Drivers/STM32F4xx_HAL_Driver/Src/stm32f4xx_hal_can.c ****     }
 1989              		.loc 1 1623 17 view .LVU664
 1990 0024 7047     		bx	lr
 1991              		.cfi_endproc
 1992              	.LFE232:
 1994              		.section	.text.HAL_CAN_ActivateNotification,"ax",%progbits
 1995              		.align	1
 1996              		.global	HAL_CAN_ActivateNotification
 1997              		.syntax unified
 1998              		.thumb
 1999              		.thumb_func
 2001              	HAL_CAN_ActivateNotification:
 2002              	.LVL154:
 2003              	.LFB233:
1630:Drivers/STM32F4xx_HAL_Driver/Src/stm32f4xx_hal_can.c **** 
1631:Drivers/STM32F4xx_HAL_Driver/Src/stm32f4xx_hal_can.c **** /**
1632:Drivers/STM32F4xx_HAL_Driver/Src/stm32f4xx_hal_can.c ****   * @}
1633:Drivers/STM32F4xx_HAL_Driver/Src/stm32f4xx_hal_can.c ****   */
1634:Drivers/STM32F4xx_HAL_Driver/Src/stm32f4xx_hal_can.c **** 
1635:Drivers/STM32F4xx_HAL_Driver/Src/stm32f4xx_hal_can.c **** /** @defgroup CAN_Exported_Functions_Group4 Interrupts management
1636:Drivers/STM32F4xx_HAL_Driver/Src/stm32f4xx_hal_can.c ****  *  @brief    Interrupts management
1637:Drivers/STM32F4xx_HAL_Driver/Src/stm32f4xx_hal_can.c ****  *
1638:Drivers/STM32F4xx_HAL_Driver/Src/stm32f4xx_hal_can.c **** @verbatim
1639:Drivers/STM32F4xx_HAL_Driver/Src/stm32f4xx_hal_can.c ****   ==============================================================================
1640:Drivers/STM32F4xx_HAL_Driver/Src/stm32f4xx_hal_can.c ****                        ##### Interrupts management #####
1641:Drivers/STM32F4xx_HAL_Driver/Src/stm32f4xx_hal_can.c ****   ==============================================================================
1642:Drivers/STM32F4xx_HAL_Driver/Src/stm32f4xx_hal_can.c ****     [..]  This section provides functions allowing to:
1643:Drivers/STM32F4xx_HAL_Driver/Src/stm32f4xx_hal_can.c ****       (+) HAL_CAN_ActivateNotification      : Enable interrupts
1644:Drivers/STM32F4xx_HAL_Driver/Src/stm32f4xx_hal_can.c ****       (+) HAL_CAN_DeactivateNotification    : Disable interrupts
1645:Drivers/STM32F4xx_HAL_Driver/Src/stm32f4xx_hal_can.c ****       (+) HAL_CAN_IRQHandler                : Handles CAN interrupt request
1646:Drivers/STM32F4xx_HAL_Driver/Src/stm32f4xx_hal_can.c **** 
1647:Drivers/STM32F4xx_HAL_Driver/Src/stm32f4xx_hal_can.c **** @endverbatim
1648:Drivers/STM32F4xx_HAL_Driver/Src/stm32f4xx_hal_can.c ****   * @{
1649:Drivers/STM32F4xx_HAL_Driver/Src/stm32f4xx_hal_can.c ****   */
1650:Drivers/STM32F4xx_HAL_Driver/Src/stm32f4xx_hal_can.c **** 
1651:Drivers/STM32F4xx_HAL_Driver/Src/stm32f4xx_hal_can.c **** /**
1652:Drivers/STM32F4xx_HAL_Driver/Src/stm32f4xx_hal_can.c ****   * @brief  Enable interrupts.
1653:Drivers/STM32F4xx_HAL_Driver/Src/stm32f4xx_hal_can.c ****   * @param  hcan pointer to an CAN_HandleTypeDef structure that contains
1654:Drivers/STM32F4xx_HAL_Driver/Src/stm32f4xx_hal_can.c ****   *         the configuration information for the specified CAN.
1655:Drivers/STM32F4xx_HAL_Driver/Src/stm32f4xx_hal_can.c ****   * @param  ActiveITs indicates which interrupts will be enabled.
1656:Drivers/STM32F4xx_HAL_Driver/Src/stm32f4xx_hal_can.c ****   *         This parameter can be any combination of @arg CAN_Interrupts.
1657:Drivers/STM32F4xx_HAL_Driver/Src/stm32f4xx_hal_can.c ****   * @retval HAL status
1658:Drivers/STM32F4xx_HAL_Driver/Src/stm32f4xx_hal_can.c ****   */
1659:Drivers/STM32F4xx_HAL_Driver/Src/stm32f4xx_hal_can.c **** HAL_StatusTypeDef HAL_CAN_ActivateNotification(CAN_HandleTypeDef *hcan, uint32_t ActiveITs)
1660:Drivers/STM32F4xx_HAL_Driver/Src/stm32f4xx_hal_can.c **** {
 2004              		.loc 1 1660 1 is_stmt 1 view -0
 2005              		.cfi_startproc
 2006              		@ args = 0, pretend = 0, frame = 0
 2007              		@ frame_needed = 0, uses_anonymous_args = 0
 2008              		@ link register save eliminated.
1661:Drivers/STM32F4xx_HAL_Driver/Src/stm32f4xx_hal_can.c ****   HAL_CAN_StateTypeDef state = hcan->State;
ARM GAS  /tmp/ccrOzmIp.s 			page 88


 2009              		.loc 1 1661 3 view .LVU666
 2010              		.loc 1 1661 24 is_stmt 0 view .LVU667
 2011 0000 90F82030 		ldrb	r3, [r0, #32]	@ zero_extendqisi2
 2012              	.LVL155:
1662:Drivers/STM32F4xx_HAL_Driver/Src/stm32f4xx_hal_can.c **** 
1663:Drivers/STM32F4xx_HAL_Driver/Src/stm32f4xx_hal_can.c ****   /* Check function parameters */
1664:Drivers/STM32F4xx_HAL_Driver/Src/stm32f4xx_hal_can.c ****   assert_param(IS_CAN_IT(ActiveITs));
 2013              		.loc 1 1664 3 is_stmt 1 view .LVU668
1665:Drivers/STM32F4xx_HAL_Driver/Src/stm32f4xx_hal_can.c **** 
1666:Drivers/STM32F4xx_HAL_Driver/Src/stm32f4xx_hal_can.c ****   if ((state == HAL_CAN_STATE_READY) ||
 2014              		.loc 1 1666 3 view .LVU669
 2015              		.loc 1 1666 38 is_stmt 0 view .LVU670
 2016 0004 013B     		subs	r3, r3, #1
 2017              	.LVL156:
 2018              		.loc 1 1666 38 view .LVU671
 2019 0006 DBB2     		uxtb	r3, r3
 2020              		.loc 1 1666 6 view .LVU672
 2021 0008 012B     		cmp	r3, #1
 2022 000a 05D9     		bls	.L155
1667:Drivers/STM32F4xx_HAL_Driver/Src/stm32f4xx_hal_can.c ****       (state == HAL_CAN_STATE_LISTENING))
1668:Drivers/STM32F4xx_HAL_Driver/Src/stm32f4xx_hal_can.c ****   {
1669:Drivers/STM32F4xx_HAL_Driver/Src/stm32f4xx_hal_can.c ****     /* Enable the selected interrupts */
1670:Drivers/STM32F4xx_HAL_Driver/Src/stm32f4xx_hal_can.c ****     __HAL_CAN_ENABLE_IT(hcan, ActiveITs);
1671:Drivers/STM32F4xx_HAL_Driver/Src/stm32f4xx_hal_can.c **** 
1672:Drivers/STM32F4xx_HAL_Driver/Src/stm32f4xx_hal_can.c ****     /* Return function status */
1673:Drivers/STM32F4xx_HAL_Driver/Src/stm32f4xx_hal_can.c ****     return HAL_OK;
1674:Drivers/STM32F4xx_HAL_Driver/Src/stm32f4xx_hal_can.c ****   }
1675:Drivers/STM32F4xx_HAL_Driver/Src/stm32f4xx_hal_can.c ****   else
1676:Drivers/STM32F4xx_HAL_Driver/Src/stm32f4xx_hal_can.c ****   {
1677:Drivers/STM32F4xx_HAL_Driver/Src/stm32f4xx_hal_can.c ****     /* Update error code */
1678:Drivers/STM32F4xx_HAL_Driver/Src/stm32f4xx_hal_can.c ****     hcan->ErrorCode |= HAL_CAN_ERROR_NOT_INITIALIZED;
 2023              		.loc 1 1678 5 is_stmt 1 view .LVU673
 2024              		.loc 1 1678 21 is_stmt 0 view .LVU674
 2025 000c 436A     		ldr	r3, [r0, #36]
 2026 000e 43F48023 		orr	r3, r3, #262144
 2027 0012 4362     		str	r3, [r0, #36]
1679:Drivers/STM32F4xx_HAL_Driver/Src/stm32f4xx_hal_can.c **** 
1680:Drivers/STM32F4xx_HAL_Driver/Src/stm32f4xx_hal_can.c ****     return HAL_ERROR;
 2028              		.loc 1 1680 5 is_stmt 1 view .LVU675
 2029              		.loc 1 1680 12 is_stmt 0 view .LVU676
 2030 0014 0120     		movs	r0, #1
 2031              	.LVL157:
1681:Drivers/STM32F4xx_HAL_Driver/Src/stm32f4xx_hal_can.c ****   }
1682:Drivers/STM32F4xx_HAL_Driver/Src/stm32f4xx_hal_can.c **** }
 2032              		.loc 1 1682 1 view .LVU677
 2033 0016 7047     		bx	lr
 2034              	.LVL158:
 2035              	.L155:
1670:Drivers/STM32F4xx_HAL_Driver/Src/stm32f4xx_hal_can.c **** 
 2036              		.loc 1 1670 5 is_stmt 1 view .LVU678
 2037 0018 0268     		ldr	r2, [r0]
 2038 001a 5369     		ldr	r3, [r2, #20]
 2039 001c 0B43     		orrs	r3, r3, r1
 2040 001e 5361     		str	r3, [r2, #20]
1673:Drivers/STM32F4xx_HAL_Driver/Src/stm32f4xx_hal_can.c ****   }
 2041              		.loc 1 1673 5 view .LVU679
1673:Drivers/STM32F4xx_HAL_Driver/Src/stm32f4xx_hal_can.c ****   }
ARM GAS  /tmp/ccrOzmIp.s 			page 89


 2042              		.loc 1 1673 12 is_stmt 0 view .LVU680
 2043 0020 0020     		movs	r0, #0
 2044              	.LVL159:
1673:Drivers/STM32F4xx_HAL_Driver/Src/stm32f4xx_hal_can.c ****   }
 2045              		.loc 1 1673 12 view .LVU681
 2046 0022 7047     		bx	lr
 2047              		.cfi_endproc
 2048              	.LFE233:
 2050              		.section	.text.HAL_CAN_DeactivateNotification,"ax",%progbits
 2051              		.align	1
 2052              		.global	HAL_CAN_DeactivateNotification
 2053              		.syntax unified
 2054              		.thumb
 2055              		.thumb_func
 2057              	HAL_CAN_DeactivateNotification:
 2058              	.LVL160:
 2059              	.LFB234:
1683:Drivers/STM32F4xx_HAL_Driver/Src/stm32f4xx_hal_can.c **** 
1684:Drivers/STM32F4xx_HAL_Driver/Src/stm32f4xx_hal_can.c **** /**
1685:Drivers/STM32F4xx_HAL_Driver/Src/stm32f4xx_hal_can.c ****   * @brief  Disable interrupts.
1686:Drivers/STM32F4xx_HAL_Driver/Src/stm32f4xx_hal_can.c ****   * @param  hcan pointer to an CAN_HandleTypeDef structure that contains
1687:Drivers/STM32F4xx_HAL_Driver/Src/stm32f4xx_hal_can.c ****   *         the configuration information for the specified CAN.
1688:Drivers/STM32F4xx_HAL_Driver/Src/stm32f4xx_hal_can.c ****   * @param  InactiveITs indicates which interrupts will be disabled.
1689:Drivers/STM32F4xx_HAL_Driver/Src/stm32f4xx_hal_can.c ****   *         This parameter can be any combination of @arg CAN_Interrupts.
1690:Drivers/STM32F4xx_HAL_Driver/Src/stm32f4xx_hal_can.c ****   * @retval HAL status
1691:Drivers/STM32F4xx_HAL_Driver/Src/stm32f4xx_hal_can.c ****   */
1692:Drivers/STM32F4xx_HAL_Driver/Src/stm32f4xx_hal_can.c **** HAL_StatusTypeDef HAL_CAN_DeactivateNotification(CAN_HandleTypeDef *hcan, uint32_t InactiveITs)
1693:Drivers/STM32F4xx_HAL_Driver/Src/stm32f4xx_hal_can.c **** {
 2060              		.loc 1 1693 1 is_stmt 1 view -0
 2061              		.cfi_startproc
 2062              		@ args = 0, pretend = 0, frame = 0
 2063              		@ frame_needed = 0, uses_anonymous_args = 0
 2064              		@ link register save eliminated.
1694:Drivers/STM32F4xx_HAL_Driver/Src/stm32f4xx_hal_can.c ****   HAL_CAN_StateTypeDef state = hcan->State;
 2065              		.loc 1 1694 3 view .LVU683
 2066              		.loc 1 1694 24 is_stmt 0 view .LVU684
 2067 0000 90F82030 		ldrb	r3, [r0, #32]	@ zero_extendqisi2
 2068              	.LVL161:
1695:Drivers/STM32F4xx_HAL_Driver/Src/stm32f4xx_hal_can.c **** 
1696:Drivers/STM32F4xx_HAL_Driver/Src/stm32f4xx_hal_can.c ****   /* Check function parameters */
1697:Drivers/STM32F4xx_HAL_Driver/Src/stm32f4xx_hal_can.c ****   assert_param(IS_CAN_IT(InactiveITs));
 2069              		.loc 1 1697 3 is_stmt 1 view .LVU685
1698:Drivers/STM32F4xx_HAL_Driver/Src/stm32f4xx_hal_can.c **** 
1699:Drivers/STM32F4xx_HAL_Driver/Src/stm32f4xx_hal_can.c ****   if ((state == HAL_CAN_STATE_READY) ||
 2070              		.loc 1 1699 3 view .LVU686
 2071              		.loc 1 1699 38 is_stmt 0 view .LVU687
 2072 0004 013B     		subs	r3, r3, #1
 2073              	.LVL162:
 2074              		.loc 1 1699 38 view .LVU688
 2075 0006 DBB2     		uxtb	r3, r3
 2076              		.loc 1 1699 6 view .LVU689
 2077 0008 012B     		cmp	r3, #1
 2078 000a 05D9     		bls	.L159
1700:Drivers/STM32F4xx_HAL_Driver/Src/stm32f4xx_hal_can.c ****       (state == HAL_CAN_STATE_LISTENING))
1701:Drivers/STM32F4xx_HAL_Driver/Src/stm32f4xx_hal_can.c ****   {
1702:Drivers/STM32F4xx_HAL_Driver/Src/stm32f4xx_hal_can.c ****     /* Disable the selected interrupts */
1703:Drivers/STM32F4xx_HAL_Driver/Src/stm32f4xx_hal_can.c ****     __HAL_CAN_DISABLE_IT(hcan, InactiveITs);
ARM GAS  /tmp/ccrOzmIp.s 			page 90


1704:Drivers/STM32F4xx_HAL_Driver/Src/stm32f4xx_hal_can.c **** 
1705:Drivers/STM32F4xx_HAL_Driver/Src/stm32f4xx_hal_can.c ****     /* Return function status */
1706:Drivers/STM32F4xx_HAL_Driver/Src/stm32f4xx_hal_can.c ****     return HAL_OK;
1707:Drivers/STM32F4xx_HAL_Driver/Src/stm32f4xx_hal_can.c ****   }
1708:Drivers/STM32F4xx_HAL_Driver/Src/stm32f4xx_hal_can.c ****   else
1709:Drivers/STM32F4xx_HAL_Driver/Src/stm32f4xx_hal_can.c ****   {
1710:Drivers/STM32F4xx_HAL_Driver/Src/stm32f4xx_hal_can.c ****     /* Update error code */
1711:Drivers/STM32F4xx_HAL_Driver/Src/stm32f4xx_hal_can.c ****     hcan->ErrorCode |= HAL_CAN_ERROR_NOT_INITIALIZED;
 2079              		.loc 1 1711 5 is_stmt 1 view .LVU690
 2080              		.loc 1 1711 21 is_stmt 0 view .LVU691
 2081 000c 436A     		ldr	r3, [r0, #36]
 2082 000e 43F48023 		orr	r3, r3, #262144
 2083 0012 4362     		str	r3, [r0, #36]
1712:Drivers/STM32F4xx_HAL_Driver/Src/stm32f4xx_hal_can.c **** 
1713:Drivers/STM32F4xx_HAL_Driver/Src/stm32f4xx_hal_can.c ****     return HAL_ERROR;
 2084              		.loc 1 1713 5 is_stmt 1 view .LVU692
 2085              		.loc 1 1713 12 is_stmt 0 view .LVU693
 2086 0014 0120     		movs	r0, #1
 2087              	.LVL163:
1714:Drivers/STM32F4xx_HAL_Driver/Src/stm32f4xx_hal_can.c ****   }
1715:Drivers/STM32F4xx_HAL_Driver/Src/stm32f4xx_hal_can.c **** }
 2088              		.loc 1 1715 1 view .LVU694
 2089 0016 7047     		bx	lr
 2090              	.LVL164:
 2091              	.L159:
1703:Drivers/STM32F4xx_HAL_Driver/Src/stm32f4xx_hal_can.c **** 
 2092              		.loc 1 1703 5 is_stmt 1 view .LVU695
 2093 0018 0268     		ldr	r2, [r0]
 2094 001a 5369     		ldr	r3, [r2, #20]
 2095 001c 23EA0103 		bic	r3, r3, r1
 2096 0020 5361     		str	r3, [r2, #20]
1706:Drivers/STM32F4xx_HAL_Driver/Src/stm32f4xx_hal_can.c ****   }
 2097              		.loc 1 1706 5 view .LVU696
1706:Drivers/STM32F4xx_HAL_Driver/Src/stm32f4xx_hal_can.c ****   }
 2098              		.loc 1 1706 12 is_stmt 0 view .LVU697
 2099 0022 0020     		movs	r0, #0
 2100              	.LVL165:
1706:Drivers/STM32F4xx_HAL_Driver/Src/stm32f4xx_hal_can.c ****   }
 2101              		.loc 1 1706 12 view .LVU698
 2102 0024 7047     		bx	lr
 2103              		.cfi_endproc
 2104              	.LFE234:
 2106              		.section	.text.HAL_CAN_TxMailbox0CompleteCallback,"ax",%progbits
 2107              		.align	1
 2108              		.weak	HAL_CAN_TxMailbox0CompleteCallback
 2109              		.syntax unified
 2110              		.thumb
 2111              		.thumb_func
 2113              	HAL_CAN_TxMailbox0CompleteCallback:
 2114              	.LVL166:
 2115              	.LFB236:
1716:Drivers/STM32F4xx_HAL_Driver/Src/stm32f4xx_hal_can.c **** 
1717:Drivers/STM32F4xx_HAL_Driver/Src/stm32f4xx_hal_can.c **** /**
1718:Drivers/STM32F4xx_HAL_Driver/Src/stm32f4xx_hal_can.c ****   * @brief  Handles CAN interrupt request
1719:Drivers/STM32F4xx_HAL_Driver/Src/stm32f4xx_hal_can.c ****   * @param  hcan pointer to a CAN_HandleTypeDef structure that contains
1720:Drivers/STM32F4xx_HAL_Driver/Src/stm32f4xx_hal_can.c ****   *         the configuration information for the specified CAN.
1721:Drivers/STM32F4xx_HAL_Driver/Src/stm32f4xx_hal_can.c ****   * @retval None
ARM GAS  /tmp/ccrOzmIp.s 			page 91


1722:Drivers/STM32F4xx_HAL_Driver/Src/stm32f4xx_hal_can.c ****   */
1723:Drivers/STM32F4xx_HAL_Driver/Src/stm32f4xx_hal_can.c **** void HAL_CAN_IRQHandler(CAN_HandleTypeDef *hcan)
1724:Drivers/STM32F4xx_HAL_Driver/Src/stm32f4xx_hal_can.c **** {
1725:Drivers/STM32F4xx_HAL_Driver/Src/stm32f4xx_hal_can.c ****   uint32_t errorcode = HAL_CAN_ERROR_NONE;
1726:Drivers/STM32F4xx_HAL_Driver/Src/stm32f4xx_hal_can.c ****   uint32_t interrupts = READ_REG(hcan->Instance->IER);
1727:Drivers/STM32F4xx_HAL_Driver/Src/stm32f4xx_hal_can.c ****   uint32_t msrflags = READ_REG(hcan->Instance->MSR);
1728:Drivers/STM32F4xx_HAL_Driver/Src/stm32f4xx_hal_can.c ****   uint32_t tsrflags = READ_REG(hcan->Instance->TSR);
1729:Drivers/STM32F4xx_HAL_Driver/Src/stm32f4xx_hal_can.c ****   uint32_t rf0rflags = READ_REG(hcan->Instance->RF0R);
1730:Drivers/STM32F4xx_HAL_Driver/Src/stm32f4xx_hal_can.c ****   uint32_t rf1rflags = READ_REG(hcan->Instance->RF1R);
1731:Drivers/STM32F4xx_HAL_Driver/Src/stm32f4xx_hal_can.c ****   uint32_t esrflags = READ_REG(hcan->Instance->ESR);
1732:Drivers/STM32F4xx_HAL_Driver/Src/stm32f4xx_hal_can.c **** 
1733:Drivers/STM32F4xx_HAL_Driver/Src/stm32f4xx_hal_can.c ****   /* Transmit Mailbox empty interrupt management *****************************/
1734:Drivers/STM32F4xx_HAL_Driver/Src/stm32f4xx_hal_can.c ****   if ((interrupts & CAN_IT_TX_MAILBOX_EMPTY) != 0U)
1735:Drivers/STM32F4xx_HAL_Driver/Src/stm32f4xx_hal_can.c ****   {
1736:Drivers/STM32F4xx_HAL_Driver/Src/stm32f4xx_hal_can.c ****     /* Transmit Mailbox 0 management *****************************************/
1737:Drivers/STM32F4xx_HAL_Driver/Src/stm32f4xx_hal_can.c ****     if ((tsrflags & CAN_TSR_RQCP0) != 0U)
1738:Drivers/STM32F4xx_HAL_Driver/Src/stm32f4xx_hal_can.c ****     {
1739:Drivers/STM32F4xx_HAL_Driver/Src/stm32f4xx_hal_can.c ****       /* Clear the Transmission Complete flag (and TXOK0,ALST0,TERR0 bits) */
1740:Drivers/STM32F4xx_HAL_Driver/Src/stm32f4xx_hal_can.c ****       __HAL_CAN_CLEAR_FLAG(hcan, CAN_FLAG_RQCP0);
1741:Drivers/STM32F4xx_HAL_Driver/Src/stm32f4xx_hal_can.c **** 
1742:Drivers/STM32F4xx_HAL_Driver/Src/stm32f4xx_hal_can.c ****       if ((tsrflags & CAN_TSR_TXOK0) != 0U)
1743:Drivers/STM32F4xx_HAL_Driver/Src/stm32f4xx_hal_can.c ****       {
1744:Drivers/STM32F4xx_HAL_Driver/Src/stm32f4xx_hal_can.c ****         /* Transmission Mailbox 0 complete callback */
1745:Drivers/STM32F4xx_HAL_Driver/Src/stm32f4xx_hal_can.c **** #if USE_HAL_CAN_REGISTER_CALLBACKS == 1
1746:Drivers/STM32F4xx_HAL_Driver/Src/stm32f4xx_hal_can.c ****         /* Call registered callback*/
1747:Drivers/STM32F4xx_HAL_Driver/Src/stm32f4xx_hal_can.c ****         hcan->TxMailbox0CompleteCallback(hcan);
1748:Drivers/STM32F4xx_HAL_Driver/Src/stm32f4xx_hal_can.c **** #else
1749:Drivers/STM32F4xx_HAL_Driver/Src/stm32f4xx_hal_can.c ****         /* Call weak (surcharged) callback */
1750:Drivers/STM32F4xx_HAL_Driver/Src/stm32f4xx_hal_can.c ****         HAL_CAN_TxMailbox0CompleteCallback(hcan);
1751:Drivers/STM32F4xx_HAL_Driver/Src/stm32f4xx_hal_can.c **** #endif /* USE_HAL_CAN_REGISTER_CALLBACKS */
1752:Drivers/STM32F4xx_HAL_Driver/Src/stm32f4xx_hal_can.c ****       }
1753:Drivers/STM32F4xx_HAL_Driver/Src/stm32f4xx_hal_can.c ****       else
1754:Drivers/STM32F4xx_HAL_Driver/Src/stm32f4xx_hal_can.c ****       {
1755:Drivers/STM32F4xx_HAL_Driver/Src/stm32f4xx_hal_can.c ****         if ((tsrflags & CAN_TSR_ALST0) != 0U)
1756:Drivers/STM32F4xx_HAL_Driver/Src/stm32f4xx_hal_can.c ****         {
1757:Drivers/STM32F4xx_HAL_Driver/Src/stm32f4xx_hal_can.c ****           /* Update error code */
1758:Drivers/STM32F4xx_HAL_Driver/Src/stm32f4xx_hal_can.c ****           errorcode |= HAL_CAN_ERROR_TX_ALST0;
1759:Drivers/STM32F4xx_HAL_Driver/Src/stm32f4xx_hal_can.c ****         }
1760:Drivers/STM32F4xx_HAL_Driver/Src/stm32f4xx_hal_can.c ****         else if ((tsrflags & CAN_TSR_TERR0) != 0U)
1761:Drivers/STM32F4xx_HAL_Driver/Src/stm32f4xx_hal_can.c ****         {
1762:Drivers/STM32F4xx_HAL_Driver/Src/stm32f4xx_hal_can.c ****           /* Update error code */
1763:Drivers/STM32F4xx_HAL_Driver/Src/stm32f4xx_hal_can.c ****           errorcode |= HAL_CAN_ERROR_TX_TERR0;
1764:Drivers/STM32F4xx_HAL_Driver/Src/stm32f4xx_hal_can.c ****         }
1765:Drivers/STM32F4xx_HAL_Driver/Src/stm32f4xx_hal_can.c ****         else
1766:Drivers/STM32F4xx_HAL_Driver/Src/stm32f4xx_hal_can.c ****         {
1767:Drivers/STM32F4xx_HAL_Driver/Src/stm32f4xx_hal_can.c ****           /* Transmission Mailbox 0 abort callback */
1768:Drivers/STM32F4xx_HAL_Driver/Src/stm32f4xx_hal_can.c **** #if USE_HAL_CAN_REGISTER_CALLBACKS == 1
1769:Drivers/STM32F4xx_HAL_Driver/Src/stm32f4xx_hal_can.c ****           /* Call registered callback*/
1770:Drivers/STM32F4xx_HAL_Driver/Src/stm32f4xx_hal_can.c ****           hcan->TxMailbox0AbortCallback(hcan);
1771:Drivers/STM32F4xx_HAL_Driver/Src/stm32f4xx_hal_can.c **** #else
1772:Drivers/STM32F4xx_HAL_Driver/Src/stm32f4xx_hal_can.c ****           /* Call weak (surcharged) callback */
1773:Drivers/STM32F4xx_HAL_Driver/Src/stm32f4xx_hal_can.c ****           HAL_CAN_TxMailbox0AbortCallback(hcan);
1774:Drivers/STM32F4xx_HAL_Driver/Src/stm32f4xx_hal_can.c **** #endif /* USE_HAL_CAN_REGISTER_CALLBACKS */
1775:Drivers/STM32F4xx_HAL_Driver/Src/stm32f4xx_hal_can.c ****         }
1776:Drivers/STM32F4xx_HAL_Driver/Src/stm32f4xx_hal_can.c ****       }
1777:Drivers/STM32F4xx_HAL_Driver/Src/stm32f4xx_hal_can.c ****     }
1778:Drivers/STM32F4xx_HAL_Driver/Src/stm32f4xx_hal_can.c **** 
ARM GAS  /tmp/ccrOzmIp.s 			page 92


1779:Drivers/STM32F4xx_HAL_Driver/Src/stm32f4xx_hal_can.c ****     /* Transmit Mailbox 1 management *****************************************/
1780:Drivers/STM32F4xx_HAL_Driver/Src/stm32f4xx_hal_can.c ****     if ((tsrflags & CAN_TSR_RQCP1) != 0U)
1781:Drivers/STM32F4xx_HAL_Driver/Src/stm32f4xx_hal_can.c ****     {
1782:Drivers/STM32F4xx_HAL_Driver/Src/stm32f4xx_hal_can.c ****       /* Clear the Transmission Complete flag (and TXOK1,ALST1,TERR1 bits) */
1783:Drivers/STM32F4xx_HAL_Driver/Src/stm32f4xx_hal_can.c ****       __HAL_CAN_CLEAR_FLAG(hcan, CAN_FLAG_RQCP1);
1784:Drivers/STM32F4xx_HAL_Driver/Src/stm32f4xx_hal_can.c **** 
1785:Drivers/STM32F4xx_HAL_Driver/Src/stm32f4xx_hal_can.c ****       if ((tsrflags & CAN_TSR_TXOK1) != 0U)
1786:Drivers/STM32F4xx_HAL_Driver/Src/stm32f4xx_hal_can.c ****       {
1787:Drivers/STM32F4xx_HAL_Driver/Src/stm32f4xx_hal_can.c ****         /* Transmission Mailbox 1 complete callback */
1788:Drivers/STM32F4xx_HAL_Driver/Src/stm32f4xx_hal_can.c **** #if USE_HAL_CAN_REGISTER_CALLBACKS == 1
1789:Drivers/STM32F4xx_HAL_Driver/Src/stm32f4xx_hal_can.c ****         /* Call registered callback*/
1790:Drivers/STM32F4xx_HAL_Driver/Src/stm32f4xx_hal_can.c ****         hcan->TxMailbox1CompleteCallback(hcan);
1791:Drivers/STM32F4xx_HAL_Driver/Src/stm32f4xx_hal_can.c **** #else
1792:Drivers/STM32F4xx_HAL_Driver/Src/stm32f4xx_hal_can.c ****         /* Call weak (surcharged) callback */
1793:Drivers/STM32F4xx_HAL_Driver/Src/stm32f4xx_hal_can.c ****         HAL_CAN_TxMailbox1CompleteCallback(hcan);
1794:Drivers/STM32F4xx_HAL_Driver/Src/stm32f4xx_hal_can.c **** #endif /* USE_HAL_CAN_REGISTER_CALLBACKS */
1795:Drivers/STM32F4xx_HAL_Driver/Src/stm32f4xx_hal_can.c ****       }
1796:Drivers/STM32F4xx_HAL_Driver/Src/stm32f4xx_hal_can.c ****       else
1797:Drivers/STM32F4xx_HAL_Driver/Src/stm32f4xx_hal_can.c ****       {
1798:Drivers/STM32F4xx_HAL_Driver/Src/stm32f4xx_hal_can.c ****         if ((tsrflags & CAN_TSR_ALST1) != 0U)
1799:Drivers/STM32F4xx_HAL_Driver/Src/stm32f4xx_hal_can.c ****         {
1800:Drivers/STM32F4xx_HAL_Driver/Src/stm32f4xx_hal_can.c ****           /* Update error code */
1801:Drivers/STM32F4xx_HAL_Driver/Src/stm32f4xx_hal_can.c ****           errorcode |= HAL_CAN_ERROR_TX_ALST1;
1802:Drivers/STM32F4xx_HAL_Driver/Src/stm32f4xx_hal_can.c ****         }
1803:Drivers/STM32F4xx_HAL_Driver/Src/stm32f4xx_hal_can.c ****         else if ((tsrflags & CAN_TSR_TERR1) != 0U)
1804:Drivers/STM32F4xx_HAL_Driver/Src/stm32f4xx_hal_can.c ****         {
1805:Drivers/STM32F4xx_HAL_Driver/Src/stm32f4xx_hal_can.c ****           /* Update error code */
1806:Drivers/STM32F4xx_HAL_Driver/Src/stm32f4xx_hal_can.c ****           errorcode |= HAL_CAN_ERROR_TX_TERR1;
1807:Drivers/STM32F4xx_HAL_Driver/Src/stm32f4xx_hal_can.c ****         }
1808:Drivers/STM32F4xx_HAL_Driver/Src/stm32f4xx_hal_can.c ****         else
1809:Drivers/STM32F4xx_HAL_Driver/Src/stm32f4xx_hal_can.c ****         {
1810:Drivers/STM32F4xx_HAL_Driver/Src/stm32f4xx_hal_can.c ****           /* Transmission Mailbox 1 abort callback */
1811:Drivers/STM32F4xx_HAL_Driver/Src/stm32f4xx_hal_can.c **** #if USE_HAL_CAN_REGISTER_CALLBACKS == 1
1812:Drivers/STM32F4xx_HAL_Driver/Src/stm32f4xx_hal_can.c ****           /* Call registered callback*/
1813:Drivers/STM32F4xx_HAL_Driver/Src/stm32f4xx_hal_can.c ****           hcan->TxMailbox1AbortCallback(hcan);
1814:Drivers/STM32F4xx_HAL_Driver/Src/stm32f4xx_hal_can.c **** #else
1815:Drivers/STM32F4xx_HAL_Driver/Src/stm32f4xx_hal_can.c ****           /* Call weak (surcharged) callback */
1816:Drivers/STM32F4xx_HAL_Driver/Src/stm32f4xx_hal_can.c ****           HAL_CAN_TxMailbox1AbortCallback(hcan);
1817:Drivers/STM32F4xx_HAL_Driver/Src/stm32f4xx_hal_can.c **** #endif /* USE_HAL_CAN_REGISTER_CALLBACKS */
1818:Drivers/STM32F4xx_HAL_Driver/Src/stm32f4xx_hal_can.c ****         }
1819:Drivers/STM32F4xx_HAL_Driver/Src/stm32f4xx_hal_can.c ****       }
1820:Drivers/STM32F4xx_HAL_Driver/Src/stm32f4xx_hal_can.c ****     }
1821:Drivers/STM32F4xx_HAL_Driver/Src/stm32f4xx_hal_can.c **** 
1822:Drivers/STM32F4xx_HAL_Driver/Src/stm32f4xx_hal_can.c ****     /* Transmit Mailbox 2 management *****************************************/
1823:Drivers/STM32F4xx_HAL_Driver/Src/stm32f4xx_hal_can.c ****     if ((tsrflags & CAN_TSR_RQCP2) != 0U)
1824:Drivers/STM32F4xx_HAL_Driver/Src/stm32f4xx_hal_can.c ****     {
1825:Drivers/STM32F4xx_HAL_Driver/Src/stm32f4xx_hal_can.c ****       /* Clear the Transmission Complete flag (and TXOK2,ALST2,TERR2 bits) */
1826:Drivers/STM32F4xx_HAL_Driver/Src/stm32f4xx_hal_can.c ****       __HAL_CAN_CLEAR_FLAG(hcan, CAN_FLAG_RQCP2);
1827:Drivers/STM32F4xx_HAL_Driver/Src/stm32f4xx_hal_can.c **** 
1828:Drivers/STM32F4xx_HAL_Driver/Src/stm32f4xx_hal_can.c ****       if ((tsrflags & CAN_TSR_TXOK2) != 0U)
1829:Drivers/STM32F4xx_HAL_Driver/Src/stm32f4xx_hal_can.c ****       {
1830:Drivers/STM32F4xx_HAL_Driver/Src/stm32f4xx_hal_can.c ****         /* Transmission Mailbox 2 complete callback */
1831:Drivers/STM32F4xx_HAL_Driver/Src/stm32f4xx_hal_can.c **** #if USE_HAL_CAN_REGISTER_CALLBACKS == 1
1832:Drivers/STM32F4xx_HAL_Driver/Src/stm32f4xx_hal_can.c ****         /* Call registered callback*/
1833:Drivers/STM32F4xx_HAL_Driver/Src/stm32f4xx_hal_can.c ****         hcan->TxMailbox2CompleteCallback(hcan);
1834:Drivers/STM32F4xx_HAL_Driver/Src/stm32f4xx_hal_can.c **** #else
1835:Drivers/STM32F4xx_HAL_Driver/Src/stm32f4xx_hal_can.c ****         /* Call weak (surcharged) callback */
ARM GAS  /tmp/ccrOzmIp.s 			page 93


1836:Drivers/STM32F4xx_HAL_Driver/Src/stm32f4xx_hal_can.c ****         HAL_CAN_TxMailbox2CompleteCallback(hcan);
1837:Drivers/STM32F4xx_HAL_Driver/Src/stm32f4xx_hal_can.c **** #endif /* USE_HAL_CAN_REGISTER_CALLBACKS */
1838:Drivers/STM32F4xx_HAL_Driver/Src/stm32f4xx_hal_can.c ****       }
1839:Drivers/STM32F4xx_HAL_Driver/Src/stm32f4xx_hal_can.c ****       else
1840:Drivers/STM32F4xx_HAL_Driver/Src/stm32f4xx_hal_can.c ****       {
1841:Drivers/STM32F4xx_HAL_Driver/Src/stm32f4xx_hal_can.c ****         if ((tsrflags & CAN_TSR_ALST2) != 0U)
1842:Drivers/STM32F4xx_HAL_Driver/Src/stm32f4xx_hal_can.c ****         {
1843:Drivers/STM32F4xx_HAL_Driver/Src/stm32f4xx_hal_can.c ****           /* Update error code */
1844:Drivers/STM32F4xx_HAL_Driver/Src/stm32f4xx_hal_can.c ****           errorcode |= HAL_CAN_ERROR_TX_ALST2;
1845:Drivers/STM32F4xx_HAL_Driver/Src/stm32f4xx_hal_can.c ****         }
1846:Drivers/STM32F4xx_HAL_Driver/Src/stm32f4xx_hal_can.c ****         else if ((tsrflags & CAN_TSR_TERR2) != 0U)
1847:Drivers/STM32F4xx_HAL_Driver/Src/stm32f4xx_hal_can.c ****         {
1848:Drivers/STM32F4xx_HAL_Driver/Src/stm32f4xx_hal_can.c ****           /* Update error code */
1849:Drivers/STM32F4xx_HAL_Driver/Src/stm32f4xx_hal_can.c ****           errorcode |= HAL_CAN_ERROR_TX_TERR2;
1850:Drivers/STM32F4xx_HAL_Driver/Src/stm32f4xx_hal_can.c ****         }
1851:Drivers/STM32F4xx_HAL_Driver/Src/stm32f4xx_hal_can.c ****         else
1852:Drivers/STM32F4xx_HAL_Driver/Src/stm32f4xx_hal_can.c ****         {
1853:Drivers/STM32F4xx_HAL_Driver/Src/stm32f4xx_hal_can.c ****           /* Transmission Mailbox 2 abort callback */
1854:Drivers/STM32F4xx_HAL_Driver/Src/stm32f4xx_hal_can.c **** #if USE_HAL_CAN_REGISTER_CALLBACKS == 1
1855:Drivers/STM32F4xx_HAL_Driver/Src/stm32f4xx_hal_can.c ****           /* Call registered callback*/
1856:Drivers/STM32F4xx_HAL_Driver/Src/stm32f4xx_hal_can.c ****           hcan->TxMailbox2AbortCallback(hcan);
1857:Drivers/STM32F4xx_HAL_Driver/Src/stm32f4xx_hal_can.c **** #else
1858:Drivers/STM32F4xx_HAL_Driver/Src/stm32f4xx_hal_can.c ****           /* Call weak (surcharged) callback */
1859:Drivers/STM32F4xx_HAL_Driver/Src/stm32f4xx_hal_can.c ****           HAL_CAN_TxMailbox2AbortCallback(hcan);
1860:Drivers/STM32F4xx_HAL_Driver/Src/stm32f4xx_hal_can.c **** #endif /* USE_HAL_CAN_REGISTER_CALLBACKS */
1861:Drivers/STM32F4xx_HAL_Driver/Src/stm32f4xx_hal_can.c ****         }
1862:Drivers/STM32F4xx_HAL_Driver/Src/stm32f4xx_hal_can.c ****       }
1863:Drivers/STM32F4xx_HAL_Driver/Src/stm32f4xx_hal_can.c ****     }
1864:Drivers/STM32F4xx_HAL_Driver/Src/stm32f4xx_hal_can.c ****   }
1865:Drivers/STM32F4xx_HAL_Driver/Src/stm32f4xx_hal_can.c **** 
1866:Drivers/STM32F4xx_HAL_Driver/Src/stm32f4xx_hal_can.c ****   /* Receive FIFO 0 overrun interrupt management *****************************/
1867:Drivers/STM32F4xx_HAL_Driver/Src/stm32f4xx_hal_can.c ****   if ((interrupts & CAN_IT_RX_FIFO0_OVERRUN) != 0U)
1868:Drivers/STM32F4xx_HAL_Driver/Src/stm32f4xx_hal_can.c ****   {
1869:Drivers/STM32F4xx_HAL_Driver/Src/stm32f4xx_hal_can.c ****     if ((rf0rflags & CAN_RF0R_FOVR0) != 0U)
1870:Drivers/STM32F4xx_HAL_Driver/Src/stm32f4xx_hal_can.c ****     {
1871:Drivers/STM32F4xx_HAL_Driver/Src/stm32f4xx_hal_can.c ****       /* Set CAN error code to Rx Fifo 0 overrun error */
1872:Drivers/STM32F4xx_HAL_Driver/Src/stm32f4xx_hal_can.c ****       errorcode |= HAL_CAN_ERROR_RX_FOV0;
1873:Drivers/STM32F4xx_HAL_Driver/Src/stm32f4xx_hal_can.c **** 
1874:Drivers/STM32F4xx_HAL_Driver/Src/stm32f4xx_hal_can.c ****       /* Clear FIFO0 Overrun Flag */
1875:Drivers/STM32F4xx_HAL_Driver/Src/stm32f4xx_hal_can.c ****       __HAL_CAN_CLEAR_FLAG(hcan, CAN_FLAG_FOV0);
1876:Drivers/STM32F4xx_HAL_Driver/Src/stm32f4xx_hal_can.c ****     }
1877:Drivers/STM32F4xx_HAL_Driver/Src/stm32f4xx_hal_can.c ****   }
1878:Drivers/STM32F4xx_HAL_Driver/Src/stm32f4xx_hal_can.c **** 
1879:Drivers/STM32F4xx_HAL_Driver/Src/stm32f4xx_hal_can.c ****   /* Receive FIFO 0 full interrupt management ********************************/
1880:Drivers/STM32F4xx_HAL_Driver/Src/stm32f4xx_hal_can.c ****   if ((interrupts & CAN_IT_RX_FIFO0_FULL) != 0U)
1881:Drivers/STM32F4xx_HAL_Driver/Src/stm32f4xx_hal_can.c ****   {
1882:Drivers/STM32F4xx_HAL_Driver/Src/stm32f4xx_hal_can.c ****     if ((rf0rflags & CAN_RF0R_FULL0) != 0U)
1883:Drivers/STM32F4xx_HAL_Driver/Src/stm32f4xx_hal_can.c ****     {
1884:Drivers/STM32F4xx_HAL_Driver/Src/stm32f4xx_hal_can.c ****       /* Clear FIFO 0 full Flag */
1885:Drivers/STM32F4xx_HAL_Driver/Src/stm32f4xx_hal_can.c ****       __HAL_CAN_CLEAR_FLAG(hcan, CAN_FLAG_FF0);
1886:Drivers/STM32F4xx_HAL_Driver/Src/stm32f4xx_hal_can.c **** 
1887:Drivers/STM32F4xx_HAL_Driver/Src/stm32f4xx_hal_can.c ****       /* Receive FIFO 0 full Callback */
1888:Drivers/STM32F4xx_HAL_Driver/Src/stm32f4xx_hal_can.c **** #if USE_HAL_CAN_REGISTER_CALLBACKS == 1
1889:Drivers/STM32F4xx_HAL_Driver/Src/stm32f4xx_hal_can.c ****       /* Call registered callback*/
1890:Drivers/STM32F4xx_HAL_Driver/Src/stm32f4xx_hal_can.c ****       hcan->RxFifo0FullCallback(hcan);
1891:Drivers/STM32F4xx_HAL_Driver/Src/stm32f4xx_hal_can.c **** #else
1892:Drivers/STM32F4xx_HAL_Driver/Src/stm32f4xx_hal_can.c ****       /* Call weak (surcharged) callback */
ARM GAS  /tmp/ccrOzmIp.s 			page 94


1893:Drivers/STM32F4xx_HAL_Driver/Src/stm32f4xx_hal_can.c ****       HAL_CAN_RxFifo0FullCallback(hcan);
1894:Drivers/STM32F4xx_HAL_Driver/Src/stm32f4xx_hal_can.c **** #endif /* USE_HAL_CAN_REGISTER_CALLBACKS */
1895:Drivers/STM32F4xx_HAL_Driver/Src/stm32f4xx_hal_can.c ****     }
1896:Drivers/STM32F4xx_HAL_Driver/Src/stm32f4xx_hal_can.c ****   }
1897:Drivers/STM32F4xx_HAL_Driver/Src/stm32f4xx_hal_can.c **** 
1898:Drivers/STM32F4xx_HAL_Driver/Src/stm32f4xx_hal_can.c ****   /* Receive FIFO 0 message pending interrupt management *********************/
1899:Drivers/STM32F4xx_HAL_Driver/Src/stm32f4xx_hal_can.c ****   if ((interrupts & CAN_IT_RX_FIFO0_MSG_PENDING) != 0U)
1900:Drivers/STM32F4xx_HAL_Driver/Src/stm32f4xx_hal_can.c ****   {
1901:Drivers/STM32F4xx_HAL_Driver/Src/stm32f4xx_hal_can.c ****     /* Check if message is still pending */
1902:Drivers/STM32F4xx_HAL_Driver/Src/stm32f4xx_hal_can.c ****     if ((hcan->Instance->RF0R & CAN_RF0R_FMP0) != 0U)
1903:Drivers/STM32F4xx_HAL_Driver/Src/stm32f4xx_hal_can.c ****     {
1904:Drivers/STM32F4xx_HAL_Driver/Src/stm32f4xx_hal_can.c ****       /* Receive FIFO 0 message pending Callback */
1905:Drivers/STM32F4xx_HAL_Driver/Src/stm32f4xx_hal_can.c **** #if USE_HAL_CAN_REGISTER_CALLBACKS == 1
1906:Drivers/STM32F4xx_HAL_Driver/Src/stm32f4xx_hal_can.c ****       /* Call registered callback*/
1907:Drivers/STM32F4xx_HAL_Driver/Src/stm32f4xx_hal_can.c ****       hcan->RxFifo0MsgPendingCallback(hcan);
1908:Drivers/STM32F4xx_HAL_Driver/Src/stm32f4xx_hal_can.c **** #else
1909:Drivers/STM32F4xx_HAL_Driver/Src/stm32f4xx_hal_can.c ****       /* Call weak (surcharged) callback */
1910:Drivers/STM32F4xx_HAL_Driver/Src/stm32f4xx_hal_can.c ****       HAL_CAN_RxFifo0MsgPendingCallback(hcan);
1911:Drivers/STM32F4xx_HAL_Driver/Src/stm32f4xx_hal_can.c **** #endif /* USE_HAL_CAN_REGISTER_CALLBACKS */
1912:Drivers/STM32F4xx_HAL_Driver/Src/stm32f4xx_hal_can.c ****     }
1913:Drivers/STM32F4xx_HAL_Driver/Src/stm32f4xx_hal_can.c ****   }
1914:Drivers/STM32F4xx_HAL_Driver/Src/stm32f4xx_hal_can.c **** 
1915:Drivers/STM32F4xx_HAL_Driver/Src/stm32f4xx_hal_can.c ****   /* Receive FIFO 1 overrun interrupt management *****************************/
1916:Drivers/STM32F4xx_HAL_Driver/Src/stm32f4xx_hal_can.c ****   if ((interrupts & CAN_IT_RX_FIFO1_OVERRUN) != 0U)
1917:Drivers/STM32F4xx_HAL_Driver/Src/stm32f4xx_hal_can.c ****   {
1918:Drivers/STM32F4xx_HAL_Driver/Src/stm32f4xx_hal_can.c ****     if ((rf1rflags & CAN_RF1R_FOVR1) != 0U)
1919:Drivers/STM32F4xx_HAL_Driver/Src/stm32f4xx_hal_can.c ****     {
1920:Drivers/STM32F4xx_HAL_Driver/Src/stm32f4xx_hal_can.c ****       /* Set CAN error code to Rx Fifo 1 overrun error */
1921:Drivers/STM32F4xx_HAL_Driver/Src/stm32f4xx_hal_can.c ****       errorcode |= HAL_CAN_ERROR_RX_FOV1;
1922:Drivers/STM32F4xx_HAL_Driver/Src/stm32f4xx_hal_can.c **** 
1923:Drivers/STM32F4xx_HAL_Driver/Src/stm32f4xx_hal_can.c ****       /* Clear FIFO1 Overrun Flag */
1924:Drivers/STM32F4xx_HAL_Driver/Src/stm32f4xx_hal_can.c ****       __HAL_CAN_CLEAR_FLAG(hcan, CAN_FLAG_FOV1);
1925:Drivers/STM32F4xx_HAL_Driver/Src/stm32f4xx_hal_can.c ****     }
1926:Drivers/STM32F4xx_HAL_Driver/Src/stm32f4xx_hal_can.c ****   }
1927:Drivers/STM32F4xx_HAL_Driver/Src/stm32f4xx_hal_can.c **** 
1928:Drivers/STM32F4xx_HAL_Driver/Src/stm32f4xx_hal_can.c ****   /* Receive FIFO 1 full interrupt management ********************************/
1929:Drivers/STM32F4xx_HAL_Driver/Src/stm32f4xx_hal_can.c ****   if ((interrupts & CAN_IT_RX_FIFO1_FULL) != 0U)
1930:Drivers/STM32F4xx_HAL_Driver/Src/stm32f4xx_hal_can.c ****   {
1931:Drivers/STM32F4xx_HAL_Driver/Src/stm32f4xx_hal_can.c ****     if ((rf1rflags & CAN_RF1R_FULL1) != 0U)
1932:Drivers/STM32F4xx_HAL_Driver/Src/stm32f4xx_hal_can.c ****     {
1933:Drivers/STM32F4xx_HAL_Driver/Src/stm32f4xx_hal_can.c ****       /* Clear FIFO 1 full Flag */
1934:Drivers/STM32F4xx_HAL_Driver/Src/stm32f4xx_hal_can.c ****       __HAL_CAN_CLEAR_FLAG(hcan, CAN_FLAG_FF1);
1935:Drivers/STM32F4xx_HAL_Driver/Src/stm32f4xx_hal_can.c **** 
1936:Drivers/STM32F4xx_HAL_Driver/Src/stm32f4xx_hal_can.c ****       /* Receive FIFO 1 full Callback */
1937:Drivers/STM32F4xx_HAL_Driver/Src/stm32f4xx_hal_can.c **** #if USE_HAL_CAN_REGISTER_CALLBACKS == 1
1938:Drivers/STM32F4xx_HAL_Driver/Src/stm32f4xx_hal_can.c ****       /* Call registered callback*/
1939:Drivers/STM32F4xx_HAL_Driver/Src/stm32f4xx_hal_can.c ****       hcan->RxFifo1FullCallback(hcan);
1940:Drivers/STM32F4xx_HAL_Driver/Src/stm32f4xx_hal_can.c **** #else
1941:Drivers/STM32F4xx_HAL_Driver/Src/stm32f4xx_hal_can.c ****       /* Call weak (surcharged) callback */
1942:Drivers/STM32F4xx_HAL_Driver/Src/stm32f4xx_hal_can.c ****       HAL_CAN_RxFifo1FullCallback(hcan);
1943:Drivers/STM32F4xx_HAL_Driver/Src/stm32f4xx_hal_can.c **** #endif /* USE_HAL_CAN_REGISTER_CALLBACKS */
1944:Drivers/STM32F4xx_HAL_Driver/Src/stm32f4xx_hal_can.c ****     }
1945:Drivers/STM32F4xx_HAL_Driver/Src/stm32f4xx_hal_can.c ****   }
1946:Drivers/STM32F4xx_HAL_Driver/Src/stm32f4xx_hal_can.c **** 
1947:Drivers/STM32F4xx_HAL_Driver/Src/stm32f4xx_hal_can.c ****   /* Receive FIFO 1 message pending interrupt management *********************/
1948:Drivers/STM32F4xx_HAL_Driver/Src/stm32f4xx_hal_can.c ****   if ((interrupts & CAN_IT_RX_FIFO1_MSG_PENDING) != 0U)
1949:Drivers/STM32F4xx_HAL_Driver/Src/stm32f4xx_hal_can.c ****   {
ARM GAS  /tmp/ccrOzmIp.s 			page 95


1950:Drivers/STM32F4xx_HAL_Driver/Src/stm32f4xx_hal_can.c ****     /* Check if message is still pending */
1951:Drivers/STM32F4xx_HAL_Driver/Src/stm32f4xx_hal_can.c ****     if ((hcan->Instance->RF1R & CAN_RF1R_FMP1) != 0U)
1952:Drivers/STM32F4xx_HAL_Driver/Src/stm32f4xx_hal_can.c ****     {
1953:Drivers/STM32F4xx_HAL_Driver/Src/stm32f4xx_hal_can.c ****       /* Receive FIFO 1 message pending Callback */
1954:Drivers/STM32F4xx_HAL_Driver/Src/stm32f4xx_hal_can.c **** #if USE_HAL_CAN_REGISTER_CALLBACKS == 1
1955:Drivers/STM32F4xx_HAL_Driver/Src/stm32f4xx_hal_can.c ****       /* Call registered callback*/
1956:Drivers/STM32F4xx_HAL_Driver/Src/stm32f4xx_hal_can.c ****       hcan->RxFifo1MsgPendingCallback(hcan);
1957:Drivers/STM32F4xx_HAL_Driver/Src/stm32f4xx_hal_can.c **** #else
1958:Drivers/STM32F4xx_HAL_Driver/Src/stm32f4xx_hal_can.c ****       /* Call weak (surcharged) callback */
1959:Drivers/STM32F4xx_HAL_Driver/Src/stm32f4xx_hal_can.c ****       HAL_CAN_RxFifo1MsgPendingCallback(hcan);
1960:Drivers/STM32F4xx_HAL_Driver/Src/stm32f4xx_hal_can.c **** #endif /* USE_HAL_CAN_REGISTER_CALLBACKS */
1961:Drivers/STM32F4xx_HAL_Driver/Src/stm32f4xx_hal_can.c ****     }
1962:Drivers/STM32F4xx_HAL_Driver/Src/stm32f4xx_hal_can.c ****   }
1963:Drivers/STM32F4xx_HAL_Driver/Src/stm32f4xx_hal_can.c **** 
1964:Drivers/STM32F4xx_HAL_Driver/Src/stm32f4xx_hal_can.c ****   /* Sleep interrupt management *********************************************/
1965:Drivers/STM32F4xx_HAL_Driver/Src/stm32f4xx_hal_can.c ****   if ((interrupts & CAN_IT_SLEEP_ACK) != 0U)
1966:Drivers/STM32F4xx_HAL_Driver/Src/stm32f4xx_hal_can.c ****   {
1967:Drivers/STM32F4xx_HAL_Driver/Src/stm32f4xx_hal_can.c ****     if ((msrflags & CAN_MSR_SLAKI) != 0U)
1968:Drivers/STM32F4xx_HAL_Driver/Src/stm32f4xx_hal_can.c ****     {
1969:Drivers/STM32F4xx_HAL_Driver/Src/stm32f4xx_hal_can.c ****       /* Clear Sleep interrupt Flag */
1970:Drivers/STM32F4xx_HAL_Driver/Src/stm32f4xx_hal_can.c ****       __HAL_CAN_CLEAR_FLAG(hcan, CAN_FLAG_SLAKI);
1971:Drivers/STM32F4xx_HAL_Driver/Src/stm32f4xx_hal_can.c **** 
1972:Drivers/STM32F4xx_HAL_Driver/Src/stm32f4xx_hal_can.c ****       /* Sleep Callback */
1973:Drivers/STM32F4xx_HAL_Driver/Src/stm32f4xx_hal_can.c **** #if USE_HAL_CAN_REGISTER_CALLBACKS == 1
1974:Drivers/STM32F4xx_HAL_Driver/Src/stm32f4xx_hal_can.c ****       /* Call registered callback*/
1975:Drivers/STM32F4xx_HAL_Driver/Src/stm32f4xx_hal_can.c ****       hcan->SleepCallback(hcan);
1976:Drivers/STM32F4xx_HAL_Driver/Src/stm32f4xx_hal_can.c **** #else
1977:Drivers/STM32F4xx_HAL_Driver/Src/stm32f4xx_hal_can.c ****       /* Call weak (surcharged) callback */
1978:Drivers/STM32F4xx_HAL_Driver/Src/stm32f4xx_hal_can.c ****       HAL_CAN_SleepCallback(hcan);
1979:Drivers/STM32F4xx_HAL_Driver/Src/stm32f4xx_hal_can.c **** #endif /* USE_HAL_CAN_REGISTER_CALLBACKS */
1980:Drivers/STM32F4xx_HAL_Driver/Src/stm32f4xx_hal_can.c ****     }
1981:Drivers/STM32F4xx_HAL_Driver/Src/stm32f4xx_hal_can.c ****   }
1982:Drivers/STM32F4xx_HAL_Driver/Src/stm32f4xx_hal_can.c **** 
1983:Drivers/STM32F4xx_HAL_Driver/Src/stm32f4xx_hal_can.c ****   /* WakeUp interrupt management *********************************************/
1984:Drivers/STM32F4xx_HAL_Driver/Src/stm32f4xx_hal_can.c ****   if ((interrupts & CAN_IT_WAKEUP) != 0U)
1985:Drivers/STM32F4xx_HAL_Driver/Src/stm32f4xx_hal_can.c ****   {
1986:Drivers/STM32F4xx_HAL_Driver/Src/stm32f4xx_hal_can.c ****     if ((msrflags & CAN_MSR_WKUI) != 0U)
1987:Drivers/STM32F4xx_HAL_Driver/Src/stm32f4xx_hal_can.c ****     {
1988:Drivers/STM32F4xx_HAL_Driver/Src/stm32f4xx_hal_can.c ****       /* Clear WakeUp Flag */
1989:Drivers/STM32F4xx_HAL_Driver/Src/stm32f4xx_hal_can.c ****       __HAL_CAN_CLEAR_FLAG(hcan, CAN_FLAG_WKU);
1990:Drivers/STM32F4xx_HAL_Driver/Src/stm32f4xx_hal_can.c **** 
1991:Drivers/STM32F4xx_HAL_Driver/Src/stm32f4xx_hal_can.c ****       /* WakeUp Callback */
1992:Drivers/STM32F4xx_HAL_Driver/Src/stm32f4xx_hal_can.c **** #if USE_HAL_CAN_REGISTER_CALLBACKS == 1
1993:Drivers/STM32F4xx_HAL_Driver/Src/stm32f4xx_hal_can.c ****       /* Call registered callback*/
1994:Drivers/STM32F4xx_HAL_Driver/Src/stm32f4xx_hal_can.c ****       hcan->WakeUpFromRxMsgCallback(hcan);
1995:Drivers/STM32F4xx_HAL_Driver/Src/stm32f4xx_hal_can.c **** #else
1996:Drivers/STM32F4xx_HAL_Driver/Src/stm32f4xx_hal_can.c ****       /* Call weak (surcharged) callback */
1997:Drivers/STM32F4xx_HAL_Driver/Src/stm32f4xx_hal_can.c ****       HAL_CAN_WakeUpFromRxMsgCallback(hcan);
1998:Drivers/STM32F4xx_HAL_Driver/Src/stm32f4xx_hal_can.c **** #endif /* USE_HAL_CAN_REGISTER_CALLBACKS */
1999:Drivers/STM32F4xx_HAL_Driver/Src/stm32f4xx_hal_can.c ****     }
2000:Drivers/STM32F4xx_HAL_Driver/Src/stm32f4xx_hal_can.c ****   }
2001:Drivers/STM32F4xx_HAL_Driver/Src/stm32f4xx_hal_can.c **** 
2002:Drivers/STM32F4xx_HAL_Driver/Src/stm32f4xx_hal_can.c ****   /* Error interrupts management *********************************************/
2003:Drivers/STM32F4xx_HAL_Driver/Src/stm32f4xx_hal_can.c ****   if ((interrupts & CAN_IT_ERROR) != 0U)
2004:Drivers/STM32F4xx_HAL_Driver/Src/stm32f4xx_hal_can.c ****   {
2005:Drivers/STM32F4xx_HAL_Driver/Src/stm32f4xx_hal_can.c ****     if ((msrflags & CAN_MSR_ERRI) != 0U)
2006:Drivers/STM32F4xx_HAL_Driver/Src/stm32f4xx_hal_can.c ****     {
ARM GAS  /tmp/ccrOzmIp.s 			page 96


2007:Drivers/STM32F4xx_HAL_Driver/Src/stm32f4xx_hal_can.c ****       /* Check Error Warning Flag */
2008:Drivers/STM32F4xx_HAL_Driver/Src/stm32f4xx_hal_can.c ****       if (((interrupts & CAN_IT_ERROR_WARNING) != 0U) &&
2009:Drivers/STM32F4xx_HAL_Driver/Src/stm32f4xx_hal_can.c ****           ((esrflags & CAN_ESR_EWGF) != 0U))
2010:Drivers/STM32F4xx_HAL_Driver/Src/stm32f4xx_hal_can.c ****       {
2011:Drivers/STM32F4xx_HAL_Driver/Src/stm32f4xx_hal_can.c ****         /* Set CAN error code to Error Warning */
2012:Drivers/STM32F4xx_HAL_Driver/Src/stm32f4xx_hal_can.c ****         errorcode |= HAL_CAN_ERROR_EWG;
2013:Drivers/STM32F4xx_HAL_Driver/Src/stm32f4xx_hal_can.c **** 
2014:Drivers/STM32F4xx_HAL_Driver/Src/stm32f4xx_hal_can.c ****         /* No need for clear of Error Warning Flag as read-only */
2015:Drivers/STM32F4xx_HAL_Driver/Src/stm32f4xx_hal_can.c ****       }
2016:Drivers/STM32F4xx_HAL_Driver/Src/stm32f4xx_hal_can.c **** 
2017:Drivers/STM32F4xx_HAL_Driver/Src/stm32f4xx_hal_can.c ****       /* Check Error Passive Flag */
2018:Drivers/STM32F4xx_HAL_Driver/Src/stm32f4xx_hal_can.c ****       if (((interrupts & CAN_IT_ERROR_PASSIVE) != 0U) &&
2019:Drivers/STM32F4xx_HAL_Driver/Src/stm32f4xx_hal_can.c ****           ((esrflags & CAN_ESR_EPVF) != 0U))
2020:Drivers/STM32F4xx_HAL_Driver/Src/stm32f4xx_hal_can.c ****       {
2021:Drivers/STM32F4xx_HAL_Driver/Src/stm32f4xx_hal_can.c ****         /* Set CAN error code to Error Passive */
2022:Drivers/STM32F4xx_HAL_Driver/Src/stm32f4xx_hal_can.c ****         errorcode |= HAL_CAN_ERROR_EPV;
2023:Drivers/STM32F4xx_HAL_Driver/Src/stm32f4xx_hal_can.c **** 
2024:Drivers/STM32F4xx_HAL_Driver/Src/stm32f4xx_hal_can.c ****         /* No need for clear of Error Passive Flag as read-only */
2025:Drivers/STM32F4xx_HAL_Driver/Src/stm32f4xx_hal_can.c ****       }
2026:Drivers/STM32F4xx_HAL_Driver/Src/stm32f4xx_hal_can.c **** 
2027:Drivers/STM32F4xx_HAL_Driver/Src/stm32f4xx_hal_can.c ****       /* Check Bus-off Flag */
2028:Drivers/STM32F4xx_HAL_Driver/Src/stm32f4xx_hal_can.c ****       if (((interrupts & CAN_IT_BUSOFF) != 0U) &&
2029:Drivers/STM32F4xx_HAL_Driver/Src/stm32f4xx_hal_can.c ****           ((esrflags & CAN_ESR_BOFF) != 0U))
2030:Drivers/STM32F4xx_HAL_Driver/Src/stm32f4xx_hal_can.c ****       {
2031:Drivers/STM32F4xx_HAL_Driver/Src/stm32f4xx_hal_can.c ****         /* Set CAN error code to Bus-Off */
2032:Drivers/STM32F4xx_HAL_Driver/Src/stm32f4xx_hal_can.c ****         errorcode |= HAL_CAN_ERROR_BOF;
2033:Drivers/STM32F4xx_HAL_Driver/Src/stm32f4xx_hal_can.c **** 
2034:Drivers/STM32F4xx_HAL_Driver/Src/stm32f4xx_hal_can.c ****         /* No need for clear of Error Bus-Off as read-only */
2035:Drivers/STM32F4xx_HAL_Driver/Src/stm32f4xx_hal_can.c ****       }
2036:Drivers/STM32F4xx_HAL_Driver/Src/stm32f4xx_hal_can.c **** 
2037:Drivers/STM32F4xx_HAL_Driver/Src/stm32f4xx_hal_can.c ****       /* Check Last Error Code Flag */
2038:Drivers/STM32F4xx_HAL_Driver/Src/stm32f4xx_hal_can.c ****       if (((interrupts & CAN_IT_LAST_ERROR_CODE) != 0U) &&
2039:Drivers/STM32F4xx_HAL_Driver/Src/stm32f4xx_hal_can.c ****           ((esrflags & CAN_ESR_LEC) != 0U))
2040:Drivers/STM32F4xx_HAL_Driver/Src/stm32f4xx_hal_can.c ****       {
2041:Drivers/STM32F4xx_HAL_Driver/Src/stm32f4xx_hal_can.c ****         switch (esrflags & CAN_ESR_LEC)
2042:Drivers/STM32F4xx_HAL_Driver/Src/stm32f4xx_hal_can.c ****         {
2043:Drivers/STM32F4xx_HAL_Driver/Src/stm32f4xx_hal_can.c ****           case (CAN_ESR_LEC_0):
2044:Drivers/STM32F4xx_HAL_Driver/Src/stm32f4xx_hal_can.c ****             /* Set CAN error code to Stuff error */
2045:Drivers/STM32F4xx_HAL_Driver/Src/stm32f4xx_hal_can.c ****             errorcode |= HAL_CAN_ERROR_STF;
2046:Drivers/STM32F4xx_HAL_Driver/Src/stm32f4xx_hal_can.c ****             break;
2047:Drivers/STM32F4xx_HAL_Driver/Src/stm32f4xx_hal_can.c ****           case (CAN_ESR_LEC_1):
2048:Drivers/STM32F4xx_HAL_Driver/Src/stm32f4xx_hal_can.c ****             /* Set CAN error code to Form error */
2049:Drivers/STM32F4xx_HAL_Driver/Src/stm32f4xx_hal_can.c ****             errorcode |= HAL_CAN_ERROR_FOR;
2050:Drivers/STM32F4xx_HAL_Driver/Src/stm32f4xx_hal_can.c ****             break;
2051:Drivers/STM32F4xx_HAL_Driver/Src/stm32f4xx_hal_can.c ****           case (CAN_ESR_LEC_1 | CAN_ESR_LEC_0):
2052:Drivers/STM32F4xx_HAL_Driver/Src/stm32f4xx_hal_can.c ****             /* Set CAN error code to Acknowledgement error */
2053:Drivers/STM32F4xx_HAL_Driver/Src/stm32f4xx_hal_can.c ****             errorcode |= HAL_CAN_ERROR_ACK;
2054:Drivers/STM32F4xx_HAL_Driver/Src/stm32f4xx_hal_can.c ****             break;
2055:Drivers/STM32F4xx_HAL_Driver/Src/stm32f4xx_hal_can.c ****           case (CAN_ESR_LEC_2):
2056:Drivers/STM32F4xx_HAL_Driver/Src/stm32f4xx_hal_can.c ****             /* Set CAN error code to Bit recessive error */
2057:Drivers/STM32F4xx_HAL_Driver/Src/stm32f4xx_hal_can.c ****             errorcode |= HAL_CAN_ERROR_BR;
2058:Drivers/STM32F4xx_HAL_Driver/Src/stm32f4xx_hal_can.c ****             break;
2059:Drivers/STM32F4xx_HAL_Driver/Src/stm32f4xx_hal_can.c ****           case (CAN_ESR_LEC_2 | CAN_ESR_LEC_0):
2060:Drivers/STM32F4xx_HAL_Driver/Src/stm32f4xx_hal_can.c ****             /* Set CAN error code to Bit Dominant error */
2061:Drivers/STM32F4xx_HAL_Driver/Src/stm32f4xx_hal_can.c ****             errorcode |= HAL_CAN_ERROR_BD;
2062:Drivers/STM32F4xx_HAL_Driver/Src/stm32f4xx_hal_can.c ****             break;
2063:Drivers/STM32F4xx_HAL_Driver/Src/stm32f4xx_hal_can.c ****           case (CAN_ESR_LEC_2 | CAN_ESR_LEC_1):
ARM GAS  /tmp/ccrOzmIp.s 			page 97


2064:Drivers/STM32F4xx_HAL_Driver/Src/stm32f4xx_hal_can.c ****             /* Set CAN error code to CRC error */
2065:Drivers/STM32F4xx_HAL_Driver/Src/stm32f4xx_hal_can.c ****             errorcode |= HAL_CAN_ERROR_CRC;
2066:Drivers/STM32F4xx_HAL_Driver/Src/stm32f4xx_hal_can.c ****             break;
2067:Drivers/STM32F4xx_HAL_Driver/Src/stm32f4xx_hal_can.c ****           default:
2068:Drivers/STM32F4xx_HAL_Driver/Src/stm32f4xx_hal_can.c ****             break;
2069:Drivers/STM32F4xx_HAL_Driver/Src/stm32f4xx_hal_can.c ****         }
2070:Drivers/STM32F4xx_HAL_Driver/Src/stm32f4xx_hal_can.c **** 
2071:Drivers/STM32F4xx_HAL_Driver/Src/stm32f4xx_hal_can.c ****         /* Clear Last error code Flag */
2072:Drivers/STM32F4xx_HAL_Driver/Src/stm32f4xx_hal_can.c ****         CLEAR_BIT(hcan->Instance->ESR, CAN_ESR_LEC);
2073:Drivers/STM32F4xx_HAL_Driver/Src/stm32f4xx_hal_can.c ****       }
2074:Drivers/STM32F4xx_HAL_Driver/Src/stm32f4xx_hal_can.c ****     }
2075:Drivers/STM32F4xx_HAL_Driver/Src/stm32f4xx_hal_can.c **** 
2076:Drivers/STM32F4xx_HAL_Driver/Src/stm32f4xx_hal_can.c ****     /* Clear ERRI Flag */
2077:Drivers/STM32F4xx_HAL_Driver/Src/stm32f4xx_hal_can.c ****     __HAL_CAN_CLEAR_FLAG(hcan, CAN_FLAG_ERRI);
2078:Drivers/STM32F4xx_HAL_Driver/Src/stm32f4xx_hal_can.c ****   }
2079:Drivers/STM32F4xx_HAL_Driver/Src/stm32f4xx_hal_can.c **** 
2080:Drivers/STM32F4xx_HAL_Driver/Src/stm32f4xx_hal_can.c ****   /* Call the Error call Back in case of Errors */
2081:Drivers/STM32F4xx_HAL_Driver/Src/stm32f4xx_hal_can.c ****   if (errorcode != HAL_CAN_ERROR_NONE)
2082:Drivers/STM32F4xx_HAL_Driver/Src/stm32f4xx_hal_can.c ****   {
2083:Drivers/STM32F4xx_HAL_Driver/Src/stm32f4xx_hal_can.c ****     /* Update error code in handle */
2084:Drivers/STM32F4xx_HAL_Driver/Src/stm32f4xx_hal_can.c ****     hcan->ErrorCode |= errorcode;
2085:Drivers/STM32F4xx_HAL_Driver/Src/stm32f4xx_hal_can.c **** 
2086:Drivers/STM32F4xx_HAL_Driver/Src/stm32f4xx_hal_can.c ****     /* Call Error callback function */
2087:Drivers/STM32F4xx_HAL_Driver/Src/stm32f4xx_hal_can.c **** #if USE_HAL_CAN_REGISTER_CALLBACKS == 1
2088:Drivers/STM32F4xx_HAL_Driver/Src/stm32f4xx_hal_can.c ****     /* Call registered callback*/
2089:Drivers/STM32F4xx_HAL_Driver/Src/stm32f4xx_hal_can.c ****     hcan->ErrorCallback(hcan);
2090:Drivers/STM32F4xx_HAL_Driver/Src/stm32f4xx_hal_can.c **** #else
2091:Drivers/STM32F4xx_HAL_Driver/Src/stm32f4xx_hal_can.c ****     /* Call weak (surcharged) callback */
2092:Drivers/STM32F4xx_HAL_Driver/Src/stm32f4xx_hal_can.c ****     HAL_CAN_ErrorCallback(hcan);
2093:Drivers/STM32F4xx_HAL_Driver/Src/stm32f4xx_hal_can.c **** #endif /* USE_HAL_CAN_REGISTER_CALLBACKS */
2094:Drivers/STM32F4xx_HAL_Driver/Src/stm32f4xx_hal_can.c ****   }
2095:Drivers/STM32F4xx_HAL_Driver/Src/stm32f4xx_hal_can.c **** }
2096:Drivers/STM32F4xx_HAL_Driver/Src/stm32f4xx_hal_can.c **** 
2097:Drivers/STM32F4xx_HAL_Driver/Src/stm32f4xx_hal_can.c **** /**
2098:Drivers/STM32F4xx_HAL_Driver/Src/stm32f4xx_hal_can.c ****   * @}
2099:Drivers/STM32F4xx_HAL_Driver/Src/stm32f4xx_hal_can.c ****   */
2100:Drivers/STM32F4xx_HAL_Driver/Src/stm32f4xx_hal_can.c **** 
2101:Drivers/STM32F4xx_HAL_Driver/Src/stm32f4xx_hal_can.c **** /** @defgroup CAN_Exported_Functions_Group5 Callback functions
2102:Drivers/STM32F4xx_HAL_Driver/Src/stm32f4xx_hal_can.c ****  *  @brief   CAN Callback functions
2103:Drivers/STM32F4xx_HAL_Driver/Src/stm32f4xx_hal_can.c ****  *
2104:Drivers/STM32F4xx_HAL_Driver/Src/stm32f4xx_hal_can.c **** @verbatim
2105:Drivers/STM32F4xx_HAL_Driver/Src/stm32f4xx_hal_can.c ****   ==============================================================================
2106:Drivers/STM32F4xx_HAL_Driver/Src/stm32f4xx_hal_can.c ****                           ##### Callback functions #####
2107:Drivers/STM32F4xx_HAL_Driver/Src/stm32f4xx_hal_can.c ****   ==============================================================================
2108:Drivers/STM32F4xx_HAL_Driver/Src/stm32f4xx_hal_can.c ****     [..]
2109:Drivers/STM32F4xx_HAL_Driver/Src/stm32f4xx_hal_can.c ****     This subsection provides the following callback functions:
2110:Drivers/STM32F4xx_HAL_Driver/Src/stm32f4xx_hal_can.c ****       (+) HAL_CAN_TxMailbox0CompleteCallback
2111:Drivers/STM32F4xx_HAL_Driver/Src/stm32f4xx_hal_can.c ****       (+) HAL_CAN_TxMailbox1CompleteCallback
2112:Drivers/STM32F4xx_HAL_Driver/Src/stm32f4xx_hal_can.c ****       (+) HAL_CAN_TxMailbox2CompleteCallback
2113:Drivers/STM32F4xx_HAL_Driver/Src/stm32f4xx_hal_can.c ****       (+) HAL_CAN_TxMailbox0AbortCallback
2114:Drivers/STM32F4xx_HAL_Driver/Src/stm32f4xx_hal_can.c ****       (+) HAL_CAN_TxMailbox1AbortCallback
2115:Drivers/STM32F4xx_HAL_Driver/Src/stm32f4xx_hal_can.c ****       (+) HAL_CAN_TxMailbox2AbortCallback
2116:Drivers/STM32F4xx_HAL_Driver/Src/stm32f4xx_hal_can.c ****       (+) HAL_CAN_RxFifo0MsgPendingCallback
2117:Drivers/STM32F4xx_HAL_Driver/Src/stm32f4xx_hal_can.c ****       (+) HAL_CAN_RxFifo0FullCallback
2118:Drivers/STM32F4xx_HAL_Driver/Src/stm32f4xx_hal_can.c ****       (+) HAL_CAN_RxFifo1MsgPendingCallback
2119:Drivers/STM32F4xx_HAL_Driver/Src/stm32f4xx_hal_can.c ****       (+) HAL_CAN_RxFifo1FullCallback
2120:Drivers/STM32F4xx_HAL_Driver/Src/stm32f4xx_hal_can.c ****       (+) HAL_CAN_SleepCallback
ARM GAS  /tmp/ccrOzmIp.s 			page 98


2121:Drivers/STM32F4xx_HAL_Driver/Src/stm32f4xx_hal_can.c ****       (+) HAL_CAN_WakeUpFromRxMsgCallback
2122:Drivers/STM32F4xx_HAL_Driver/Src/stm32f4xx_hal_can.c ****       (+) HAL_CAN_ErrorCallback
2123:Drivers/STM32F4xx_HAL_Driver/Src/stm32f4xx_hal_can.c **** 
2124:Drivers/STM32F4xx_HAL_Driver/Src/stm32f4xx_hal_can.c **** @endverbatim
2125:Drivers/STM32F4xx_HAL_Driver/Src/stm32f4xx_hal_can.c ****   * @{
2126:Drivers/STM32F4xx_HAL_Driver/Src/stm32f4xx_hal_can.c ****   */
2127:Drivers/STM32F4xx_HAL_Driver/Src/stm32f4xx_hal_can.c **** 
2128:Drivers/STM32F4xx_HAL_Driver/Src/stm32f4xx_hal_can.c **** /**
2129:Drivers/STM32F4xx_HAL_Driver/Src/stm32f4xx_hal_can.c ****   * @brief  Transmission Mailbox 0 complete callback.
2130:Drivers/STM32F4xx_HAL_Driver/Src/stm32f4xx_hal_can.c ****   * @param  hcan pointer to a CAN_HandleTypeDef structure that contains
2131:Drivers/STM32F4xx_HAL_Driver/Src/stm32f4xx_hal_can.c ****   *         the configuration information for the specified CAN.
2132:Drivers/STM32F4xx_HAL_Driver/Src/stm32f4xx_hal_can.c ****   * @retval None
2133:Drivers/STM32F4xx_HAL_Driver/Src/stm32f4xx_hal_can.c ****   */
2134:Drivers/STM32F4xx_HAL_Driver/Src/stm32f4xx_hal_can.c **** __weak void HAL_CAN_TxMailbox0CompleteCallback(CAN_HandleTypeDef *hcan)
2135:Drivers/STM32F4xx_HAL_Driver/Src/stm32f4xx_hal_can.c **** {
 2116              		.loc 1 2135 1 is_stmt 1 view -0
 2117              		.cfi_startproc
 2118              		@ args = 0, pretend = 0, frame = 0
 2119              		@ frame_needed = 0, uses_anonymous_args = 0
 2120              		@ link register save eliminated.
2136:Drivers/STM32F4xx_HAL_Driver/Src/stm32f4xx_hal_can.c ****   /* Prevent unused argument(s) compilation warning */
2137:Drivers/STM32F4xx_HAL_Driver/Src/stm32f4xx_hal_can.c ****   UNUSED(hcan);
 2121              		.loc 1 2137 3 view .LVU700
2138:Drivers/STM32F4xx_HAL_Driver/Src/stm32f4xx_hal_can.c **** 
2139:Drivers/STM32F4xx_HAL_Driver/Src/stm32f4xx_hal_can.c ****   /* NOTE : This function Should not be modified, when the callback is needed,
2140:Drivers/STM32F4xx_HAL_Driver/Src/stm32f4xx_hal_can.c ****             the HAL_CAN_TxMailbox0CompleteCallback could be implemented in the
2141:Drivers/STM32F4xx_HAL_Driver/Src/stm32f4xx_hal_can.c ****             user file
2142:Drivers/STM32F4xx_HAL_Driver/Src/stm32f4xx_hal_can.c ****    */
2143:Drivers/STM32F4xx_HAL_Driver/Src/stm32f4xx_hal_can.c **** }
 2122              		.loc 1 2143 1 is_stmt 0 view .LVU701
 2123 0000 7047     		bx	lr
 2124              		.cfi_endproc
 2125              	.LFE236:
 2127              		.section	.text.HAL_CAN_TxMailbox1CompleteCallback,"ax",%progbits
 2128              		.align	1
 2129              		.weak	HAL_CAN_TxMailbox1CompleteCallback
 2130              		.syntax unified
 2131              		.thumb
 2132              		.thumb_func
 2134              	HAL_CAN_TxMailbox1CompleteCallback:
 2135              	.LVL167:
 2136              	.LFB237:
2144:Drivers/STM32F4xx_HAL_Driver/Src/stm32f4xx_hal_can.c **** 
2145:Drivers/STM32F4xx_HAL_Driver/Src/stm32f4xx_hal_can.c **** /**
2146:Drivers/STM32F4xx_HAL_Driver/Src/stm32f4xx_hal_can.c ****   * @brief  Transmission Mailbox 1 complete callback.
2147:Drivers/STM32F4xx_HAL_Driver/Src/stm32f4xx_hal_can.c ****   * @param  hcan pointer to a CAN_HandleTypeDef structure that contains
2148:Drivers/STM32F4xx_HAL_Driver/Src/stm32f4xx_hal_can.c ****   *         the configuration information for the specified CAN.
2149:Drivers/STM32F4xx_HAL_Driver/Src/stm32f4xx_hal_can.c ****   * @retval None
2150:Drivers/STM32F4xx_HAL_Driver/Src/stm32f4xx_hal_can.c ****   */
2151:Drivers/STM32F4xx_HAL_Driver/Src/stm32f4xx_hal_can.c **** __weak void HAL_CAN_TxMailbox1CompleteCallback(CAN_HandleTypeDef *hcan)
2152:Drivers/STM32F4xx_HAL_Driver/Src/stm32f4xx_hal_can.c **** {
 2137              		.loc 1 2152 1 is_stmt 1 view -0
 2138              		.cfi_startproc
 2139              		@ args = 0, pretend = 0, frame = 0
 2140              		@ frame_needed = 0, uses_anonymous_args = 0
 2141              		@ link register save eliminated.
2153:Drivers/STM32F4xx_HAL_Driver/Src/stm32f4xx_hal_can.c ****   /* Prevent unused argument(s) compilation warning */
ARM GAS  /tmp/ccrOzmIp.s 			page 99


2154:Drivers/STM32F4xx_HAL_Driver/Src/stm32f4xx_hal_can.c ****   UNUSED(hcan);
 2142              		.loc 1 2154 3 view .LVU703
2155:Drivers/STM32F4xx_HAL_Driver/Src/stm32f4xx_hal_can.c **** 
2156:Drivers/STM32F4xx_HAL_Driver/Src/stm32f4xx_hal_can.c ****   /* NOTE : This function Should not be modified, when the callback is needed,
2157:Drivers/STM32F4xx_HAL_Driver/Src/stm32f4xx_hal_can.c ****             the HAL_CAN_TxMailbox1CompleteCallback could be implemented in the
2158:Drivers/STM32F4xx_HAL_Driver/Src/stm32f4xx_hal_can.c ****             user file
2159:Drivers/STM32F4xx_HAL_Driver/Src/stm32f4xx_hal_can.c ****    */
2160:Drivers/STM32F4xx_HAL_Driver/Src/stm32f4xx_hal_can.c **** }
 2143              		.loc 1 2160 1 is_stmt 0 view .LVU704
 2144 0000 7047     		bx	lr
 2145              		.cfi_endproc
 2146              	.LFE237:
 2148              		.section	.text.HAL_CAN_TxMailbox2CompleteCallback,"ax",%progbits
 2149              		.align	1
 2150              		.weak	HAL_CAN_TxMailbox2CompleteCallback
 2151              		.syntax unified
 2152              		.thumb
 2153              		.thumb_func
 2155              	HAL_CAN_TxMailbox2CompleteCallback:
 2156              	.LVL168:
 2157              	.LFB238:
2161:Drivers/STM32F4xx_HAL_Driver/Src/stm32f4xx_hal_can.c **** 
2162:Drivers/STM32F4xx_HAL_Driver/Src/stm32f4xx_hal_can.c **** /**
2163:Drivers/STM32F4xx_HAL_Driver/Src/stm32f4xx_hal_can.c ****   * @brief  Transmission Mailbox 2 complete callback.
2164:Drivers/STM32F4xx_HAL_Driver/Src/stm32f4xx_hal_can.c ****   * @param  hcan pointer to a CAN_HandleTypeDef structure that contains
2165:Drivers/STM32F4xx_HAL_Driver/Src/stm32f4xx_hal_can.c ****   *         the configuration information for the specified CAN.
2166:Drivers/STM32F4xx_HAL_Driver/Src/stm32f4xx_hal_can.c ****   * @retval None
2167:Drivers/STM32F4xx_HAL_Driver/Src/stm32f4xx_hal_can.c ****   */
2168:Drivers/STM32F4xx_HAL_Driver/Src/stm32f4xx_hal_can.c **** __weak void HAL_CAN_TxMailbox2CompleteCallback(CAN_HandleTypeDef *hcan)
2169:Drivers/STM32F4xx_HAL_Driver/Src/stm32f4xx_hal_can.c **** {
 2158              		.loc 1 2169 1 is_stmt 1 view -0
 2159              		.cfi_startproc
 2160              		@ args = 0, pretend = 0, frame = 0
 2161              		@ frame_needed = 0, uses_anonymous_args = 0
 2162              		@ link register save eliminated.
2170:Drivers/STM32F4xx_HAL_Driver/Src/stm32f4xx_hal_can.c ****   /* Prevent unused argument(s) compilation warning */
2171:Drivers/STM32F4xx_HAL_Driver/Src/stm32f4xx_hal_can.c ****   UNUSED(hcan);
 2163              		.loc 1 2171 3 view .LVU706
2172:Drivers/STM32F4xx_HAL_Driver/Src/stm32f4xx_hal_can.c **** 
2173:Drivers/STM32F4xx_HAL_Driver/Src/stm32f4xx_hal_can.c ****   /* NOTE : This function Should not be modified, when the callback is needed,
2174:Drivers/STM32F4xx_HAL_Driver/Src/stm32f4xx_hal_can.c ****             the HAL_CAN_TxMailbox2CompleteCallback could be implemented in the
2175:Drivers/STM32F4xx_HAL_Driver/Src/stm32f4xx_hal_can.c ****             user file
2176:Drivers/STM32F4xx_HAL_Driver/Src/stm32f4xx_hal_can.c ****    */
2177:Drivers/STM32F4xx_HAL_Driver/Src/stm32f4xx_hal_can.c **** }
 2164              		.loc 1 2177 1 is_stmt 0 view .LVU707
 2165 0000 7047     		bx	lr
 2166              		.cfi_endproc
 2167              	.LFE238:
 2169              		.section	.text.HAL_CAN_TxMailbox0AbortCallback,"ax",%progbits
 2170              		.align	1
 2171              		.weak	HAL_CAN_TxMailbox0AbortCallback
 2172              		.syntax unified
 2173              		.thumb
 2174              		.thumb_func
 2176              	HAL_CAN_TxMailbox0AbortCallback:
 2177              	.LVL169:
 2178              	.LFB239:
ARM GAS  /tmp/ccrOzmIp.s 			page 100


2178:Drivers/STM32F4xx_HAL_Driver/Src/stm32f4xx_hal_can.c **** 
2179:Drivers/STM32F4xx_HAL_Driver/Src/stm32f4xx_hal_can.c **** /**
2180:Drivers/STM32F4xx_HAL_Driver/Src/stm32f4xx_hal_can.c ****   * @brief  Transmission Mailbox 0 Cancellation callback.
2181:Drivers/STM32F4xx_HAL_Driver/Src/stm32f4xx_hal_can.c ****   * @param  hcan pointer to an CAN_HandleTypeDef structure that contains
2182:Drivers/STM32F4xx_HAL_Driver/Src/stm32f4xx_hal_can.c ****   *         the configuration information for the specified CAN.
2183:Drivers/STM32F4xx_HAL_Driver/Src/stm32f4xx_hal_can.c ****   * @retval None
2184:Drivers/STM32F4xx_HAL_Driver/Src/stm32f4xx_hal_can.c ****   */
2185:Drivers/STM32F4xx_HAL_Driver/Src/stm32f4xx_hal_can.c **** __weak void HAL_CAN_TxMailbox0AbortCallback(CAN_HandleTypeDef *hcan)
2186:Drivers/STM32F4xx_HAL_Driver/Src/stm32f4xx_hal_can.c **** {
 2179              		.loc 1 2186 1 is_stmt 1 view -0
 2180              		.cfi_startproc
 2181              		@ args = 0, pretend = 0, frame = 0
 2182              		@ frame_needed = 0, uses_anonymous_args = 0
 2183              		@ link register save eliminated.
2187:Drivers/STM32F4xx_HAL_Driver/Src/stm32f4xx_hal_can.c ****   /* Prevent unused argument(s) compilation warning */
2188:Drivers/STM32F4xx_HAL_Driver/Src/stm32f4xx_hal_can.c ****   UNUSED(hcan);
 2184              		.loc 1 2188 3 view .LVU709
2189:Drivers/STM32F4xx_HAL_Driver/Src/stm32f4xx_hal_can.c **** 
2190:Drivers/STM32F4xx_HAL_Driver/Src/stm32f4xx_hal_can.c ****   /* NOTE : This function Should not be modified, when the callback is needed,
2191:Drivers/STM32F4xx_HAL_Driver/Src/stm32f4xx_hal_can.c ****             the HAL_CAN_TxMailbox0AbortCallback could be implemented in the
2192:Drivers/STM32F4xx_HAL_Driver/Src/stm32f4xx_hal_can.c ****             user file
2193:Drivers/STM32F4xx_HAL_Driver/Src/stm32f4xx_hal_can.c ****    */
2194:Drivers/STM32F4xx_HAL_Driver/Src/stm32f4xx_hal_can.c **** }
 2185              		.loc 1 2194 1 is_stmt 0 view .LVU710
 2186 0000 7047     		bx	lr
 2187              		.cfi_endproc
 2188              	.LFE239:
 2190              		.section	.text.HAL_CAN_TxMailbox1AbortCallback,"ax",%progbits
 2191              		.align	1
 2192              		.weak	HAL_CAN_TxMailbox1AbortCallback
 2193              		.syntax unified
 2194              		.thumb
 2195              		.thumb_func
 2197              	HAL_CAN_TxMailbox1AbortCallback:
 2198              	.LVL170:
 2199              	.LFB240:
2195:Drivers/STM32F4xx_HAL_Driver/Src/stm32f4xx_hal_can.c **** 
2196:Drivers/STM32F4xx_HAL_Driver/Src/stm32f4xx_hal_can.c **** /**
2197:Drivers/STM32F4xx_HAL_Driver/Src/stm32f4xx_hal_can.c ****   * @brief  Transmission Mailbox 1 Cancellation callback.
2198:Drivers/STM32F4xx_HAL_Driver/Src/stm32f4xx_hal_can.c ****   * @param  hcan pointer to an CAN_HandleTypeDef structure that contains
2199:Drivers/STM32F4xx_HAL_Driver/Src/stm32f4xx_hal_can.c ****   *         the configuration information for the specified CAN.
2200:Drivers/STM32F4xx_HAL_Driver/Src/stm32f4xx_hal_can.c ****   * @retval None
2201:Drivers/STM32F4xx_HAL_Driver/Src/stm32f4xx_hal_can.c ****   */
2202:Drivers/STM32F4xx_HAL_Driver/Src/stm32f4xx_hal_can.c **** __weak void HAL_CAN_TxMailbox1AbortCallback(CAN_HandleTypeDef *hcan)
2203:Drivers/STM32F4xx_HAL_Driver/Src/stm32f4xx_hal_can.c **** {
 2200              		.loc 1 2203 1 is_stmt 1 view -0
 2201              		.cfi_startproc
 2202              		@ args = 0, pretend = 0, frame = 0
 2203              		@ frame_needed = 0, uses_anonymous_args = 0
 2204              		@ link register save eliminated.
2204:Drivers/STM32F4xx_HAL_Driver/Src/stm32f4xx_hal_can.c ****   /* Prevent unused argument(s) compilation warning */
2205:Drivers/STM32F4xx_HAL_Driver/Src/stm32f4xx_hal_can.c ****   UNUSED(hcan);
 2205              		.loc 1 2205 3 view .LVU712
2206:Drivers/STM32F4xx_HAL_Driver/Src/stm32f4xx_hal_can.c **** 
2207:Drivers/STM32F4xx_HAL_Driver/Src/stm32f4xx_hal_can.c ****   /* NOTE : This function Should not be modified, when the callback is needed,
2208:Drivers/STM32F4xx_HAL_Driver/Src/stm32f4xx_hal_can.c ****             the HAL_CAN_TxMailbox1AbortCallback could be implemented in the
2209:Drivers/STM32F4xx_HAL_Driver/Src/stm32f4xx_hal_can.c ****             user file
ARM GAS  /tmp/ccrOzmIp.s 			page 101


2210:Drivers/STM32F4xx_HAL_Driver/Src/stm32f4xx_hal_can.c ****    */
2211:Drivers/STM32F4xx_HAL_Driver/Src/stm32f4xx_hal_can.c **** }
 2206              		.loc 1 2211 1 is_stmt 0 view .LVU713
 2207 0000 7047     		bx	lr
 2208              		.cfi_endproc
 2209              	.LFE240:
 2211              		.section	.text.HAL_CAN_TxMailbox2AbortCallback,"ax",%progbits
 2212              		.align	1
 2213              		.weak	HAL_CAN_TxMailbox2AbortCallback
 2214              		.syntax unified
 2215              		.thumb
 2216              		.thumb_func
 2218              	HAL_CAN_TxMailbox2AbortCallback:
 2219              	.LVL171:
 2220              	.LFB241:
2212:Drivers/STM32F4xx_HAL_Driver/Src/stm32f4xx_hal_can.c **** 
2213:Drivers/STM32F4xx_HAL_Driver/Src/stm32f4xx_hal_can.c **** /**
2214:Drivers/STM32F4xx_HAL_Driver/Src/stm32f4xx_hal_can.c ****   * @brief  Transmission Mailbox 2 Cancellation callback.
2215:Drivers/STM32F4xx_HAL_Driver/Src/stm32f4xx_hal_can.c ****   * @param  hcan pointer to an CAN_HandleTypeDef structure that contains
2216:Drivers/STM32F4xx_HAL_Driver/Src/stm32f4xx_hal_can.c ****   *         the configuration information for the specified CAN.
2217:Drivers/STM32F4xx_HAL_Driver/Src/stm32f4xx_hal_can.c ****   * @retval None
2218:Drivers/STM32F4xx_HAL_Driver/Src/stm32f4xx_hal_can.c ****   */
2219:Drivers/STM32F4xx_HAL_Driver/Src/stm32f4xx_hal_can.c **** __weak void HAL_CAN_TxMailbox2AbortCallback(CAN_HandleTypeDef *hcan)
2220:Drivers/STM32F4xx_HAL_Driver/Src/stm32f4xx_hal_can.c **** {
 2221              		.loc 1 2220 1 is_stmt 1 view -0
 2222              		.cfi_startproc
 2223              		@ args = 0, pretend = 0, frame = 0
 2224              		@ frame_needed = 0, uses_anonymous_args = 0
 2225              		@ link register save eliminated.
2221:Drivers/STM32F4xx_HAL_Driver/Src/stm32f4xx_hal_can.c ****   /* Prevent unused argument(s) compilation warning */
2222:Drivers/STM32F4xx_HAL_Driver/Src/stm32f4xx_hal_can.c ****   UNUSED(hcan);
 2226              		.loc 1 2222 3 view .LVU715
2223:Drivers/STM32F4xx_HAL_Driver/Src/stm32f4xx_hal_can.c **** 
2224:Drivers/STM32F4xx_HAL_Driver/Src/stm32f4xx_hal_can.c ****   /* NOTE : This function Should not be modified, when the callback is needed,
2225:Drivers/STM32F4xx_HAL_Driver/Src/stm32f4xx_hal_can.c ****             the HAL_CAN_TxMailbox2AbortCallback could be implemented in the
2226:Drivers/STM32F4xx_HAL_Driver/Src/stm32f4xx_hal_can.c ****             user file
2227:Drivers/STM32F4xx_HAL_Driver/Src/stm32f4xx_hal_can.c ****    */
2228:Drivers/STM32F4xx_HAL_Driver/Src/stm32f4xx_hal_can.c **** }
 2227              		.loc 1 2228 1 is_stmt 0 view .LVU716
 2228 0000 7047     		bx	lr
 2229              		.cfi_endproc
 2230              	.LFE241:
 2232              		.section	.text.HAL_CAN_RxFifo0MsgPendingCallback,"ax",%progbits
 2233              		.align	1
 2234              		.weak	HAL_CAN_RxFifo0MsgPendingCallback
 2235              		.syntax unified
 2236              		.thumb
 2237              		.thumb_func
 2239              	HAL_CAN_RxFifo0MsgPendingCallback:
 2240              	.LVL172:
 2241              	.LFB242:
2229:Drivers/STM32F4xx_HAL_Driver/Src/stm32f4xx_hal_can.c **** 
2230:Drivers/STM32F4xx_HAL_Driver/Src/stm32f4xx_hal_can.c **** /**
2231:Drivers/STM32F4xx_HAL_Driver/Src/stm32f4xx_hal_can.c ****   * @brief  Rx FIFO 0 message pending callback.
2232:Drivers/STM32F4xx_HAL_Driver/Src/stm32f4xx_hal_can.c ****   * @param  hcan pointer to a CAN_HandleTypeDef structure that contains
2233:Drivers/STM32F4xx_HAL_Driver/Src/stm32f4xx_hal_can.c ****   *         the configuration information for the specified CAN.
2234:Drivers/STM32F4xx_HAL_Driver/Src/stm32f4xx_hal_can.c ****   * @retval None
ARM GAS  /tmp/ccrOzmIp.s 			page 102


2235:Drivers/STM32F4xx_HAL_Driver/Src/stm32f4xx_hal_can.c ****   */
2236:Drivers/STM32F4xx_HAL_Driver/Src/stm32f4xx_hal_can.c **** __weak void HAL_CAN_RxFifo0MsgPendingCallback(CAN_HandleTypeDef *hcan)
2237:Drivers/STM32F4xx_HAL_Driver/Src/stm32f4xx_hal_can.c **** {
 2242              		.loc 1 2237 1 is_stmt 1 view -0
 2243              		.cfi_startproc
 2244              		@ args = 0, pretend = 0, frame = 0
 2245              		@ frame_needed = 0, uses_anonymous_args = 0
 2246              		@ link register save eliminated.
2238:Drivers/STM32F4xx_HAL_Driver/Src/stm32f4xx_hal_can.c ****   /* Prevent unused argument(s) compilation warning */
2239:Drivers/STM32F4xx_HAL_Driver/Src/stm32f4xx_hal_can.c ****   UNUSED(hcan);
 2247              		.loc 1 2239 3 view .LVU718
2240:Drivers/STM32F4xx_HAL_Driver/Src/stm32f4xx_hal_can.c **** 
2241:Drivers/STM32F4xx_HAL_Driver/Src/stm32f4xx_hal_can.c ****   /* NOTE : This function Should not be modified, when the callback is needed,
2242:Drivers/STM32F4xx_HAL_Driver/Src/stm32f4xx_hal_can.c ****             the HAL_CAN_RxFifo0MsgPendingCallback could be implemented in the
2243:Drivers/STM32F4xx_HAL_Driver/Src/stm32f4xx_hal_can.c ****             user file
2244:Drivers/STM32F4xx_HAL_Driver/Src/stm32f4xx_hal_can.c ****    */
2245:Drivers/STM32F4xx_HAL_Driver/Src/stm32f4xx_hal_can.c **** }
 2248              		.loc 1 2245 1 is_stmt 0 view .LVU719
 2249 0000 7047     		bx	lr
 2250              		.cfi_endproc
 2251              	.LFE242:
 2253              		.section	.text.HAL_CAN_RxFifo0FullCallback,"ax",%progbits
 2254              		.align	1
 2255              		.weak	HAL_CAN_RxFifo0FullCallback
 2256              		.syntax unified
 2257              		.thumb
 2258              		.thumb_func
 2260              	HAL_CAN_RxFifo0FullCallback:
 2261              	.LVL173:
 2262              	.LFB243:
2246:Drivers/STM32F4xx_HAL_Driver/Src/stm32f4xx_hal_can.c **** 
2247:Drivers/STM32F4xx_HAL_Driver/Src/stm32f4xx_hal_can.c **** /**
2248:Drivers/STM32F4xx_HAL_Driver/Src/stm32f4xx_hal_can.c ****   * @brief  Rx FIFO 0 full callback.
2249:Drivers/STM32F4xx_HAL_Driver/Src/stm32f4xx_hal_can.c ****   * @param  hcan pointer to a CAN_HandleTypeDef structure that contains
2250:Drivers/STM32F4xx_HAL_Driver/Src/stm32f4xx_hal_can.c ****   *         the configuration information for the specified CAN.
2251:Drivers/STM32F4xx_HAL_Driver/Src/stm32f4xx_hal_can.c ****   * @retval None
2252:Drivers/STM32F4xx_HAL_Driver/Src/stm32f4xx_hal_can.c ****   */
2253:Drivers/STM32F4xx_HAL_Driver/Src/stm32f4xx_hal_can.c **** __weak void HAL_CAN_RxFifo0FullCallback(CAN_HandleTypeDef *hcan)
2254:Drivers/STM32F4xx_HAL_Driver/Src/stm32f4xx_hal_can.c **** {
 2263              		.loc 1 2254 1 is_stmt 1 view -0
 2264              		.cfi_startproc
 2265              		@ args = 0, pretend = 0, frame = 0
 2266              		@ frame_needed = 0, uses_anonymous_args = 0
 2267              		@ link register save eliminated.
2255:Drivers/STM32F4xx_HAL_Driver/Src/stm32f4xx_hal_can.c ****   /* Prevent unused argument(s) compilation warning */
2256:Drivers/STM32F4xx_HAL_Driver/Src/stm32f4xx_hal_can.c ****   UNUSED(hcan);
 2268              		.loc 1 2256 3 view .LVU721
2257:Drivers/STM32F4xx_HAL_Driver/Src/stm32f4xx_hal_can.c **** 
2258:Drivers/STM32F4xx_HAL_Driver/Src/stm32f4xx_hal_can.c ****   /* NOTE : This function Should not be modified, when the callback is needed,
2259:Drivers/STM32F4xx_HAL_Driver/Src/stm32f4xx_hal_can.c ****             the HAL_CAN_RxFifo0FullCallback could be implemented in the user
2260:Drivers/STM32F4xx_HAL_Driver/Src/stm32f4xx_hal_can.c ****             file
2261:Drivers/STM32F4xx_HAL_Driver/Src/stm32f4xx_hal_can.c ****    */
2262:Drivers/STM32F4xx_HAL_Driver/Src/stm32f4xx_hal_can.c **** }
 2269              		.loc 1 2262 1 is_stmt 0 view .LVU722
 2270 0000 7047     		bx	lr
 2271              		.cfi_endproc
 2272              	.LFE243:
ARM GAS  /tmp/ccrOzmIp.s 			page 103


 2274              		.section	.text.HAL_CAN_RxFifo1MsgPendingCallback,"ax",%progbits
 2275              		.align	1
 2276              		.weak	HAL_CAN_RxFifo1MsgPendingCallback
 2277              		.syntax unified
 2278              		.thumb
 2279              		.thumb_func
 2281              	HAL_CAN_RxFifo1MsgPendingCallback:
 2282              	.LVL174:
 2283              	.LFB244:
2263:Drivers/STM32F4xx_HAL_Driver/Src/stm32f4xx_hal_can.c **** 
2264:Drivers/STM32F4xx_HAL_Driver/Src/stm32f4xx_hal_can.c **** /**
2265:Drivers/STM32F4xx_HAL_Driver/Src/stm32f4xx_hal_can.c ****   * @brief  Rx FIFO 1 message pending callback.
2266:Drivers/STM32F4xx_HAL_Driver/Src/stm32f4xx_hal_can.c ****   * @param  hcan pointer to a CAN_HandleTypeDef structure that contains
2267:Drivers/STM32F4xx_HAL_Driver/Src/stm32f4xx_hal_can.c ****   *         the configuration information for the specified CAN.
2268:Drivers/STM32F4xx_HAL_Driver/Src/stm32f4xx_hal_can.c ****   * @retval None
2269:Drivers/STM32F4xx_HAL_Driver/Src/stm32f4xx_hal_can.c ****   */
2270:Drivers/STM32F4xx_HAL_Driver/Src/stm32f4xx_hal_can.c **** __weak void HAL_CAN_RxFifo1MsgPendingCallback(CAN_HandleTypeDef *hcan)
2271:Drivers/STM32F4xx_HAL_Driver/Src/stm32f4xx_hal_can.c **** {
 2284              		.loc 1 2271 1 is_stmt 1 view -0
 2285              		.cfi_startproc
 2286              		@ args = 0, pretend = 0, frame = 0
 2287              		@ frame_needed = 0, uses_anonymous_args = 0
 2288              		@ link register save eliminated.
2272:Drivers/STM32F4xx_HAL_Driver/Src/stm32f4xx_hal_can.c ****   /* Prevent unused argument(s) compilation warning */
2273:Drivers/STM32F4xx_HAL_Driver/Src/stm32f4xx_hal_can.c ****   UNUSED(hcan);
 2289              		.loc 1 2273 3 view .LVU724
2274:Drivers/STM32F4xx_HAL_Driver/Src/stm32f4xx_hal_can.c **** 
2275:Drivers/STM32F4xx_HAL_Driver/Src/stm32f4xx_hal_can.c ****   /* NOTE : This function Should not be modified, when the callback is needed,
2276:Drivers/STM32F4xx_HAL_Driver/Src/stm32f4xx_hal_can.c ****             the HAL_CAN_RxFifo1MsgPendingCallback could be implemented in the
2277:Drivers/STM32F4xx_HAL_Driver/Src/stm32f4xx_hal_can.c ****             user file
2278:Drivers/STM32F4xx_HAL_Driver/Src/stm32f4xx_hal_can.c ****    */
2279:Drivers/STM32F4xx_HAL_Driver/Src/stm32f4xx_hal_can.c **** }
 2290              		.loc 1 2279 1 is_stmt 0 view .LVU725
 2291 0000 7047     		bx	lr
 2292              		.cfi_endproc
 2293              	.LFE244:
 2295              		.section	.text.HAL_CAN_RxFifo1FullCallback,"ax",%progbits
 2296              		.align	1
 2297              		.weak	HAL_CAN_RxFifo1FullCallback
 2298              		.syntax unified
 2299              		.thumb
 2300              		.thumb_func
 2302              	HAL_CAN_RxFifo1FullCallback:
 2303              	.LVL175:
 2304              	.LFB245:
2280:Drivers/STM32F4xx_HAL_Driver/Src/stm32f4xx_hal_can.c **** 
2281:Drivers/STM32F4xx_HAL_Driver/Src/stm32f4xx_hal_can.c **** /**
2282:Drivers/STM32F4xx_HAL_Driver/Src/stm32f4xx_hal_can.c ****   * @brief  Rx FIFO 1 full callback.
2283:Drivers/STM32F4xx_HAL_Driver/Src/stm32f4xx_hal_can.c ****   * @param  hcan pointer to a CAN_HandleTypeDef structure that contains
2284:Drivers/STM32F4xx_HAL_Driver/Src/stm32f4xx_hal_can.c ****   *         the configuration information for the specified CAN.
2285:Drivers/STM32F4xx_HAL_Driver/Src/stm32f4xx_hal_can.c ****   * @retval None
2286:Drivers/STM32F4xx_HAL_Driver/Src/stm32f4xx_hal_can.c ****   */
2287:Drivers/STM32F4xx_HAL_Driver/Src/stm32f4xx_hal_can.c **** __weak void HAL_CAN_RxFifo1FullCallback(CAN_HandleTypeDef *hcan)
2288:Drivers/STM32F4xx_HAL_Driver/Src/stm32f4xx_hal_can.c **** {
 2305              		.loc 1 2288 1 is_stmt 1 view -0
 2306              		.cfi_startproc
 2307              		@ args = 0, pretend = 0, frame = 0
ARM GAS  /tmp/ccrOzmIp.s 			page 104


 2308              		@ frame_needed = 0, uses_anonymous_args = 0
 2309              		@ link register save eliminated.
2289:Drivers/STM32F4xx_HAL_Driver/Src/stm32f4xx_hal_can.c ****   /* Prevent unused argument(s) compilation warning */
2290:Drivers/STM32F4xx_HAL_Driver/Src/stm32f4xx_hal_can.c ****   UNUSED(hcan);
 2310              		.loc 1 2290 3 view .LVU727
2291:Drivers/STM32F4xx_HAL_Driver/Src/stm32f4xx_hal_can.c **** 
2292:Drivers/STM32F4xx_HAL_Driver/Src/stm32f4xx_hal_can.c ****   /* NOTE : This function Should not be modified, when the callback is needed,
2293:Drivers/STM32F4xx_HAL_Driver/Src/stm32f4xx_hal_can.c ****             the HAL_CAN_RxFifo1FullCallback could be implemented in the user
2294:Drivers/STM32F4xx_HAL_Driver/Src/stm32f4xx_hal_can.c ****             file
2295:Drivers/STM32F4xx_HAL_Driver/Src/stm32f4xx_hal_can.c ****    */
2296:Drivers/STM32F4xx_HAL_Driver/Src/stm32f4xx_hal_can.c **** }
 2311              		.loc 1 2296 1 is_stmt 0 view .LVU728
 2312 0000 7047     		bx	lr
 2313              		.cfi_endproc
 2314              	.LFE245:
 2316              		.section	.text.HAL_CAN_SleepCallback,"ax",%progbits
 2317              		.align	1
 2318              		.weak	HAL_CAN_SleepCallback
 2319              		.syntax unified
 2320              		.thumb
 2321              		.thumb_func
 2323              	HAL_CAN_SleepCallback:
 2324              	.LVL176:
 2325              	.LFB246:
2297:Drivers/STM32F4xx_HAL_Driver/Src/stm32f4xx_hal_can.c **** 
2298:Drivers/STM32F4xx_HAL_Driver/Src/stm32f4xx_hal_can.c **** /**
2299:Drivers/STM32F4xx_HAL_Driver/Src/stm32f4xx_hal_can.c ****   * @brief  Sleep callback.
2300:Drivers/STM32F4xx_HAL_Driver/Src/stm32f4xx_hal_can.c ****   * @param  hcan pointer to a CAN_HandleTypeDef structure that contains
2301:Drivers/STM32F4xx_HAL_Driver/Src/stm32f4xx_hal_can.c ****   *         the configuration information for the specified CAN.
2302:Drivers/STM32F4xx_HAL_Driver/Src/stm32f4xx_hal_can.c ****   * @retval None
2303:Drivers/STM32F4xx_HAL_Driver/Src/stm32f4xx_hal_can.c ****   */
2304:Drivers/STM32F4xx_HAL_Driver/Src/stm32f4xx_hal_can.c **** __weak void HAL_CAN_SleepCallback(CAN_HandleTypeDef *hcan)
2305:Drivers/STM32F4xx_HAL_Driver/Src/stm32f4xx_hal_can.c **** {
 2326              		.loc 1 2305 1 is_stmt 1 view -0
 2327              		.cfi_startproc
 2328              		@ args = 0, pretend = 0, frame = 0
 2329              		@ frame_needed = 0, uses_anonymous_args = 0
 2330              		@ link register save eliminated.
2306:Drivers/STM32F4xx_HAL_Driver/Src/stm32f4xx_hal_can.c ****   /* Prevent unused argument(s) compilation warning */
2307:Drivers/STM32F4xx_HAL_Driver/Src/stm32f4xx_hal_can.c ****   UNUSED(hcan);
 2331              		.loc 1 2307 3 view .LVU730
2308:Drivers/STM32F4xx_HAL_Driver/Src/stm32f4xx_hal_can.c **** 
2309:Drivers/STM32F4xx_HAL_Driver/Src/stm32f4xx_hal_can.c ****   /* NOTE : This function Should not be modified, when the callback is needed,
2310:Drivers/STM32F4xx_HAL_Driver/Src/stm32f4xx_hal_can.c ****             the HAL_CAN_SleepCallback could be implemented in the user file
2311:Drivers/STM32F4xx_HAL_Driver/Src/stm32f4xx_hal_can.c ****    */
2312:Drivers/STM32F4xx_HAL_Driver/Src/stm32f4xx_hal_can.c **** }
 2332              		.loc 1 2312 1 is_stmt 0 view .LVU731
 2333 0000 7047     		bx	lr
 2334              		.cfi_endproc
 2335              	.LFE246:
 2337              		.section	.text.HAL_CAN_WakeUpFromRxMsgCallback,"ax",%progbits
 2338              		.align	1
 2339              		.weak	HAL_CAN_WakeUpFromRxMsgCallback
 2340              		.syntax unified
 2341              		.thumb
 2342              		.thumb_func
 2344              	HAL_CAN_WakeUpFromRxMsgCallback:
ARM GAS  /tmp/ccrOzmIp.s 			page 105


 2345              	.LVL177:
 2346              	.LFB247:
2313:Drivers/STM32F4xx_HAL_Driver/Src/stm32f4xx_hal_can.c **** 
2314:Drivers/STM32F4xx_HAL_Driver/Src/stm32f4xx_hal_can.c **** /**
2315:Drivers/STM32F4xx_HAL_Driver/Src/stm32f4xx_hal_can.c ****   * @brief  WakeUp from Rx message callback.
2316:Drivers/STM32F4xx_HAL_Driver/Src/stm32f4xx_hal_can.c ****   * @param  hcan pointer to a CAN_HandleTypeDef structure that contains
2317:Drivers/STM32F4xx_HAL_Driver/Src/stm32f4xx_hal_can.c ****   *         the configuration information for the specified CAN.
2318:Drivers/STM32F4xx_HAL_Driver/Src/stm32f4xx_hal_can.c ****   * @retval None
2319:Drivers/STM32F4xx_HAL_Driver/Src/stm32f4xx_hal_can.c ****   */
2320:Drivers/STM32F4xx_HAL_Driver/Src/stm32f4xx_hal_can.c **** __weak void HAL_CAN_WakeUpFromRxMsgCallback(CAN_HandleTypeDef *hcan)
2321:Drivers/STM32F4xx_HAL_Driver/Src/stm32f4xx_hal_can.c **** {
 2347              		.loc 1 2321 1 is_stmt 1 view -0
 2348              		.cfi_startproc
 2349              		@ args = 0, pretend = 0, frame = 0
 2350              		@ frame_needed = 0, uses_anonymous_args = 0
 2351              		@ link register save eliminated.
2322:Drivers/STM32F4xx_HAL_Driver/Src/stm32f4xx_hal_can.c ****   /* Prevent unused argument(s) compilation warning */
2323:Drivers/STM32F4xx_HAL_Driver/Src/stm32f4xx_hal_can.c ****   UNUSED(hcan);
 2352              		.loc 1 2323 3 view .LVU733
2324:Drivers/STM32F4xx_HAL_Driver/Src/stm32f4xx_hal_can.c **** 
2325:Drivers/STM32F4xx_HAL_Driver/Src/stm32f4xx_hal_can.c ****   /* NOTE : This function Should not be modified, when the callback is needed,
2326:Drivers/STM32F4xx_HAL_Driver/Src/stm32f4xx_hal_can.c ****             the HAL_CAN_WakeUpFromRxMsgCallback could be implemented in the
2327:Drivers/STM32F4xx_HAL_Driver/Src/stm32f4xx_hal_can.c ****             user file
2328:Drivers/STM32F4xx_HAL_Driver/Src/stm32f4xx_hal_can.c ****    */
2329:Drivers/STM32F4xx_HAL_Driver/Src/stm32f4xx_hal_can.c **** }
 2353              		.loc 1 2329 1 is_stmt 0 view .LVU734
 2354 0000 7047     		bx	lr
 2355              		.cfi_endproc
 2356              	.LFE247:
 2358              		.section	.text.HAL_CAN_ErrorCallback,"ax",%progbits
 2359              		.align	1
 2360              		.weak	HAL_CAN_ErrorCallback
 2361              		.syntax unified
 2362              		.thumb
 2363              		.thumb_func
 2365              	HAL_CAN_ErrorCallback:
 2366              	.LVL178:
 2367              	.LFB248:
2330:Drivers/STM32F4xx_HAL_Driver/Src/stm32f4xx_hal_can.c **** 
2331:Drivers/STM32F4xx_HAL_Driver/Src/stm32f4xx_hal_can.c **** /**
2332:Drivers/STM32F4xx_HAL_Driver/Src/stm32f4xx_hal_can.c ****   * @brief  Error CAN callback.
2333:Drivers/STM32F4xx_HAL_Driver/Src/stm32f4xx_hal_can.c ****   * @param  hcan pointer to a CAN_HandleTypeDef structure that contains
2334:Drivers/STM32F4xx_HAL_Driver/Src/stm32f4xx_hal_can.c ****   *         the configuration information for the specified CAN.
2335:Drivers/STM32F4xx_HAL_Driver/Src/stm32f4xx_hal_can.c ****   * @retval None
2336:Drivers/STM32F4xx_HAL_Driver/Src/stm32f4xx_hal_can.c ****   */
2337:Drivers/STM32F4xx_HAL_Driver/Src/stm32f4xx_hal_can.c **** __weak void HAL_CAN_ErrorCallback(CAN_HandleTypeDef *hcan)
2338:Drivers/STM32F4xx_HAL_Driver/Src/stm32f4xx_hal_can.c **** {
 2368              		.loc 1 2338 1 is_stmt 1 view -0
 2369              		.cfi_startproc
 2370              		@ args = 0, pretend = 0, frame = 0
 2371              		@ frame_needed = 0, uses_anonymous_args = 0
 2372              		@ link register save eliminated.
2339:Drivers/STM32F4xx_HAL_Driver/Src/stm32f4xx_hal_can.c ****   /* Prevent unused argument(s) compilation warning */
2340:Drivers/STM32F4xx_HAL_Driver/Src/stm32f4xx_hal_can.c ****   UNUSED(hcan);
 2373              		.loc 1 2340 3 view .LVU736
2341:Drivers/STM32F4xx_HAL_Driver/Src/stm32f4xx_hal_can.c **** 
2342:Drivers/STM32F4xx_HAL_Driver/Src/stm32f4xx_hal_can.c ****   /* NOTE : This function Should not be modified, when the callback is needed,
ARM GAS  /tmp/ccrOzmIp.s 			page 106


2343:Drivers/STM32F4xx_HAL_Driver/Src/stm32f4xx_hal_can.c ****             the HAL_CAN_ErrorCallback could be implemented in the user file
2344:Drivers/STM32F4xx_HAL_Driver/Src/stm32f4xx_hal_can.c ****    */
2345:Drivers/STM32F4xx_HAL_Driver/Src/stm32f4xx_hal_can.c **** }
 2374              		.loc 1 2345 1 is_stmt 0 view .LVU737
 2375 0000 7047     		bx	lr
 2376              		.cfi_endproc
 2377              	.LFE248:
 2379              		.section	.text.HAL_CAN_IRQHandler,"ax",%progbits
 2380              		.align	1
 2381              		.global	HAL_CAN_IRQHandler
 2382              		.syntax unified
 2383              		.thumb
 2384              		.thumb_func
 2386              	HAL_CAN_IRQHandler:
 2387              	.LVL179:
 2388              	.LFB235:
1724:Drivers/STM32F4xx_HAL_Driver/Src/stm32f4xx_hal_can.c ****   uint32_t errorcode = HAL_CAN_ERROR_NONE;
 2389              		.loc 1 1724 1 is_stmt 1 view -0
 2390              		.cfi_startproc
 2391              		@ args = 0, pretend = 0, frame = 0
 2392              		@ frame_needed = 0, uses_anonymous_args = 0
1724:Drivers/STM32F4xx_HAL_Driver/Src/stm32f4xx_hal_can.c ****   uint32_t errorcode = HAL_CAN_ERROR_NONE;
 2393              		.loc 1 1724 1 is_stmt 0 view .LVU739
 2394 0000 2DE9F84F 		push	{r3, r4, r5, r6, r7, r8, r9, r10, fp, lr}
 2395              	.LCFI16:
 2396              		.cfi_def_cfa_offset 40
 2397              		.cfi_offset 3, -40
 2398              		.cfi_offset 4, -36
 2399              		.cfi_offset 5, -32
 2400              		.cfi_offset 6, -28
 2401              		.cfi_offset 7, -24
 2402              		.cfi_offset 8, -20
 2403              		.cfi_offset 9, -16
 2404              		.cfi_offset 10, -12
 2405              		.cfi_offset 11, -8
 2406              		.cfi_offset 14, -4
 2407 0004 0546     		mov	r5, r0
1725:Drivers/STM32F4xx_HAL_Driver/Src/stm32f4xx_hal_can.c ****   uint32_t interrupts = READ_REG(hcan->Instance->IER);
 2408              		.loc 1 1725 3 is_stmt 1 view .LVU740
 2409              	.LVL180:
1726:Drivers/STM32F4xx_HAL_Driver/Src/stm32f4xx_hal_can.c ****   uint32_t msrflags = READ_REG(hcan->Instance->MSR);
 2410              		.loc 1 1726 3 view .LVU741
1726:Drivers/STM32F4xx_HAL_Driver/Src/stm32f4xx_hal_can.c ****   uint32_t msrflags = READ_REG(hcan->Instance->MSR);
 2411              		.loc 1 1726 25 is_stmt 0 view .LVU742
 2412 0006 0368     		ldr	r3, [r0]
1726:Drivers/STM32F4xx_HAL_Driver/Src/stm32f4xx_hal_can.c ****   uint32_t msrflags = READ_REG(hcan->Instance->MSR);
 2413              		.loc 1 1726 12 view .LVU743
 2414 0008 5C69     		ldr	r4, [r3, #20]
 2415              	.LVL181:
1727:Drivers/STM32F4xx_HAL_Driver/Src/stm32f4xx_hal_can.c ****   uint32_t tsrflags = READ_REG(hcan->Instance->TSR);
 2416              		.loc 1 1727 3 is_stmt 1 view .LVU744
1727:Drivers/STM32F4xx_HAL_Driver/Src/stm32f4xx_hal_can.c ****   uint32_t tsrflags = READ_REG(hcan->Instance->TSR);
 2417              		.loc 1 1727 12 is_stmt 0 view .LVU745
 2418 000a D3F80480 		ldr	r8, [r3, #4]
 2419              	.LVL182:
1728:Drivers/STM32F4xx_HAL_Driver/Src/stm32f4xx_hal_can.c ****   uint32_t rf0rflags = READ_REG(hcan->Instance->RF0R);
 2420              		.loc 1 1728 3 is_stmt 1 view .LVU746
ARM GAS  /tmp/ccrOzmIp.s 			page 107


1728:Drivers/STM32F4xx_HAL_Driver/Src/stm32f4xx_hal_can.c ****   uint32_t rf0rflags = READ_REG(hcan->Instance->RF0R);
 2421              		.loc 1 1728 12 is_stmt 0 view .LVU747
 2422 000e 9F68     		ldr	r7, [r3, #8]
 2423              	.LVL183:
1729:Drivers/STM32F4xx_HAL_Driver/Src/stm32f4xx_hal_can.c ****   uint32_t rf1rflags = READ_REG(hcan->Instance->RF1R);
 2424              		.loc 1 1729 3 is_stmt 1 view .LVU748
1729:Drivers/STM32F4xx_HAL_Driver/Src/stm32f4xx_hal_can.c ****   uint32_t rf1rflags = READ_REG(hcan->Instance->RF1R);
 2425              		.loc 1 1729 12 is_stmt 0 view .LVU749
 2426 0010 D3F80CB0 		ldr	fp, [r3, #12]
 2427              	.LVL184:
1730:Drivers/STM32F4xx_HAL_Driver/Src/stm32f4xx_hal_can.c ****   uint32_t esrflags = READ_REG(hcan->Instance->ESR);
 2428              		.loc 1 1730 3 is_stmt 1 view .LVU750
1730:Drivers/STM32F4xx_HAL_Driver/Src/stm32f4xx_hal_can.c ****   uint32_t esrflags = READ_REG(hcan->Instance->ESR);
 2429              		.loc 1 1730 12 is_stmt 0 view .LVU751
 2430 0014 D3F810A0 		ldr	r10, [r3, #16]
 2431              	.LVL185:
1731:Drivers/STM32F4xx_HAL_Driver/Src/stm32f4xx_hal_can.c **** 
 2432              		.loc 1 1731 3 is_stmt 1 view .LVU752
1731:Drivers/STM32F4xx_HAL_Driver/Src/stm32f4xx_hal_can.c **** 
 2433              		.loc 1 1731 12 is_stmt 0 view .LVU753
 2434 0018 D3F81890 		ldr	r9, [r3, #24]
 2435              	.LVL186:
1734:Drivers/STM32F4xx_HAL_Driver/Src/stm32f4xx_hal_can.c ****   {
 2436              		.loc 1 1734 3 is_stmt 1 view .LVU754
1734:Drivers/STM32F4xx_HAL_Driver/Src/stm32f4xx_hal_can.c ****   {
 2437              		.loc 1 1734 6 is_stmt 0 view .LVU755
 2438 001c 14F00106 		ands	r6, r4, #1
 2439 0020 3BD0     		beq	.L174
1737:Drivers/STM32F4xx_HAL_Driver/Src/stm32f4xx_hal_can.c ****     {
 2440              		.loc 1 1737 5 is_stmt 1 view .LVU756
1737:Drivers/STM32F4xx_HAL_Driver/Src/stm32f4xx_hal_can.c ****     {
 2441              		.loc 1 1737 8 is_stmt 0 view .LVU757
 2442 0022 17F00106 		ands	r6, r7, #1
 2443 0026 16D0     		beq	.L175
1740:Drivers/STM32F4xx_HAL_Driver/Src/stm32f4xx_hal_can.c **** 
 2444              		.loc 1 1740 7 is_stmt 1 view .LVU758
 2445 0028 0122     		movs	r2, #1
 2446 002a 9A60     		str	r2, [r3, #8]
1742:Drivers/STM32F4xx_HAL_Driver/Src/stm32f4xx_hal_can.c ****       {
 2447              		.loc 1 1742 7 view .LVU759
1742:Drivers/STM32F4xx_HAL_Driver/Src/stm32f4xx_hal_can.c ****       {
 2448              		.loc 1 1742 10 is_stmt 0 view .LVU760
 2449 002c 17F0020F 		tst	r7, #2
 2450 0030 08D1     		bne	.L209
1755:Drivers/STM32F4xx_HAL_Driver/Src/stm32f4xx_hal_can.c ****         {
 2451              		.loc 1 1755 9 is_stmt 1 view .LVU761
1755:Drivers/STM32F4xx_HAL_Driver/Src/stm32f4xx_hal_can.c ****         {
 2452              		.loc 1 1755 12 is_stmt 0 view .LVU762
 2453 0032 17F0040F 		tst	r7, #4
 2454 0036 0CD1     		bne	.L206
1760:Drivers/STM32F4xx_HAL_Driver/Src/stm32f4xx_hal_can.c ****         {
 2455              		.loc 1 1760 14 is_stmt 1 view .LVU763
1760:Drivers/STM32F4xx_HAL_Driver/Src/stm32f4xx_hal_can.c ****         {
 2456              		.loc 1 1760 17 is_stmt 0 view .LVU764
 2457 0038 17F00806 		ands	r6, r7, #8
 2458 003c 06D0     		beq	.L210
1763:Drivers/STM32F4xx_HAL_Driver/Src/stm32f4xx_hal_can.c ****         }
ARM GAS  /tmp/ccrOzmIp.s 			page 108


 2459              		.loc 1 1763 21 view .LVU765
 2460 003e 4FF48056 		mov	r6, #4096
 2461 0042 08E0     		b	.L175
 2462              	.L209:
1750:Drivers/STM32F4xx_HAL_Driver/Src/stm32f4xx_hal_can.c **** #endif /* USE_HAL_CAN_REGISTER_CALLBACKS */
 2463              		.loc 1 1750 9 is_stmt 1 view .LVU766
 2464 0044 FFF7FEFF 		bl	HAL_CAN_TxMailbox0CompleteCallback
 2465              	.LVL187:
1725:Drivers/STM32F4xx_HAL_Driver/Src/stm32f4xx_hal_can.c ****   uint32_t interrupts = READ_REG(hcan->Instance->IER);
 2466              		.loc 1 1725 12 is_stmt 0 view .LVU767
 2467 0048 0026     		movs	r6, #0
 2468 004a 04E0     		b	.L175
 2469              	.LVL188:
 2470              	.L210:
1773:Drivers/STM32F4xx_HAL_Driver/Src/stm32f4xx_hal_can.c **** #endif /* USE_HAL_CAN_REGISTER_CALLBACKS */
 2471              		.loc 1 1773 11 is_stmt 1 view .LVU768
 2472 004c FFF7FEFF 		bl	HAL_CAN_TxMailbox0AbortCallback
 2473              	.LVL189:
1773:Drivers/STM32F4xx_HAL_Driver/Src/stm32f4xx_hal_can.c **** #endif /* USE_HAL_CAN_REGISTER_CALLBACKS */
 2474              		.loc 1 1773 11 is_stmt 0 view .LVU769
 2475 0050 01E0     		b	.L175
 2476              	.LVL190:
 2477              	.L206:
1758:Drivers/STM32F4xx_HAL_Driver/Src/stm32f4xx_hal_can.c ****         }
 2478              		.loc 1 1758 21 view .LVU770
 2479 0052 4FF40066 		mov	r6, #2048
 2480              	.LVL191:
 2481              	.L175:
1780:Drivers/STM32F4xx_HAL_Driver/Src/stm32f4xx_hal_can.c ****     {
 2482              		.loc 1 1780 5 is_stmt 1 view .LVU771
1780:Drivers/STM32F4xx_HAL_Driver/Src/stm32f4xx_hal_can.c ****     {
 2483              		.loc 1 1780 8 is_stmt 0 view .LVU772
 2484 0056 17F4807F 		tst	r7, #256
 2485 005a 0DD0     		beq	.L177
1783:Drivers/STM32F4xx_HAL_Driver/Src/stm32f4xx_hal_can.c **** 
 2486              		.loc 1 1783 7 is_stmt 1 view .LVU773
 2487 005c 2B68     		ldr	r3, [r5]
 2488 005e 4FF48072 		mov	r2, #256
 2489 0062 9A60     		str	r2, [r3, #8]
1785:Drivers/STM32F4xx_HAL_Driver/Src/stm32f4xx_hal_can.c ****       {
 2490              		.loc 1 1785 7 view .LVU774
1785:Drivers/STM32F4xx_HAL_Driver/Src/stm32f4xx_hal_can.c ****       {
 2491              		.loc 1 1785 10 is_stmt 0 view .LVU775
 2492 0064 17F4007F 		tst	r7, #512
 2493 0068 40F08680 		bne	.L211
1798:Drivers/STM32F4xx_HAL_Driver/Src/stm32f4xx_hal_can.c ****         {
 2494              		.loc 1 1798 9 is_stmt 1 view .LVU776
1798:Drivers/STM32F4xx_HAL_Driver/Src/stm32f4xx_hal_can.c ****         {
 2495              		.loc 1 1798 12 is_stmt 0 view .LVU777
 2496 006c 17F4806F 		tst	r7, #1024
 2497 0070 00F08680 		beq	.L179
1801:Drivers/STM32F4xx_HAL_Driver/Src/stm32f4xx_hal_can.c ****         }
 2498              		.loc 1 1801 11 is_stmt 1 view .LVU778
1801:Drivers/STM32F4xx_HAL_Driver/Src/stm32f4xx_hal_can.c ****         }
 2499              		.loc 1 1801 21 is_stmt 0 view .LVU779
 2500 0074 46F40056 		orr	r6, r6, #8192
 2501              	.LVL192:
ARM GAS  /tmp/ccrOzmIp.s 			page 109


 2502              	.L177:
1823:Drivers/STM32F4xx_HAL_Driver/Src/stm32f4xx_hal_can.c ****     {
 2503              		.loc 1 1823 5 is_stmt 1 view .LVU780
1823:Drivers/STM32F4xx_HAL_Driver/Src/stm32f4xx_hal_can.c ****     {
 2504              		.loc 1 1823 8 is_stmt 0 view .LVU781
 2505 0078 17F4803F 		tst	r7, #65536
 2506 007c 0DD0     		beq	.L174
1826:Drivers/STM32F4xx_HAL_Driver/Src/stm32f4xx_hal_can.c **** 
 2507              		.loc 1 1826 7 is_stmt 1 view .LVU782
 2508 007e 2B68     		ldr	r3, [r5]
 2509 0080 4FF48032 		mov	r2, #65536
 2510 0084 9A60     		str	r2, [r3, #8]
1828:Drivers/STM32F4xx_HAL_Driver/Src/stm32f4xx_hal_can.c ****       {
 2511              		.loc 1 1828 7 view .LVU783
1828:Drivers/STM32F4xx_HAL_Driver/Src/stm32f4xx_hal_can.c ****       {
 2512              		.loc 1 1828 10 is_stmt 0 view .LVU784
 2513 0086 17F4003F 		tst	r7, #131072
 2514 008a 40F08380 		bne	.L212
1841:Drivers/STM32F4xx_HAL_Driver/Src/stm32f4xx_hal_can.c ****         {
 2515              		.loc 1 1841 9 is_stmt 1 view .LVU785
1841:Drivers/STM32F4xx_HAL_Driver/Src/stm32f4xx_hal_can.c ****         {
 2516              		.loc 1 1841 12 is_stmt 0 view .LVU786
 2517 008e 17F4802F 		tst	r7, #262144
 2518 0092 00F08380 		beq	.L182
1844:Drivers/STM32F4xx_HAL_Driver/Src/stm32f4xx_hal_can.c ****         }
 2519              		.loc 1 1844 11 is_stmt 1 view .LVU787
1844:Drivers/STM32F4xx_HAL_Driver/Src/stm32f4xx_hal_can.c ****         }
 2520              		.loc 1 1844 21 is_stmt 0 view .LVU788
 2521 0096 46F40046 		orr	r6, r6, #32768
 2522              	.LVL193:
 2523              	.L174:
1867:Drivers/STM32F4xx_HAL_Driver/Src/stm32f4xx_hal_can.c ****   {
 2524              		.loc 1 1867 3 is_stmt 1 view .LVU789
1867:Drivers/STM32F4xx_HAL_Driver/Src/stm32f4xx_hal_can.c ****   {
 2525              		.loc 1 1867 6 is_stmt 0 view .LVU790
 2526 009a 14F0080F 		tst	r4, #8
 2527 009e 07D0     		beq	.L184
1869:Drivers/STM32F4xx_HAL_Driver/Src/stm32f4xx_hal_can.c ****     {
 2528              		.loc 1 1869 5 is_stmt 1 view .LVU791
1869:Drivers/STM32F4xx_HAL_Driver/Src/stm32f4xx_hal_can.c ****     {
 2529              		.loc 1 1869 8 is_stmt 0 view .LVU792
 2530 00a0 1BF0100F 		tst	fp, #16
 2531 00a4 04D0     		beq	.L184
1872:Drivers/STM32F4xx_HAL_Driver/Src/stm32f4xx_hal_can.c **** 
 2532              		.loc 1 1872 7 is_stmt 1 view .LVU793
1872:Drivers/STM32F4xx_HAL_Driver/Src/stm32f4xx_hal_can.c **** 
 2533              		.loc 1 1872 17 is_stmt 0 view .LVU794
 2534 00a6 46F40076 		orr	r6, r6, #512
 2535              	.LVL194:
1875:Drivers/STM32F4xx_HAL_Driver/Src/stm32f4xx_hal_can.c ****     }
 2536              		.loc 1 1875 7 is_stmt 1 view .LVU795
 2537 00aa 2B68     		ldr	r3, [r5]
 2538 00ac 1022     		movs	r2, #16
 2539 00ae DA60     		str	r2, [r3, #12]
 2540              	.L184:
1880:Drivers/STM32F4xx_HAL_Driver/Src/stm32f4xx_hal_can.c ****   {
 2541              		.loc 1 1880 3 view .LVU796
ARM GAS  /tmp/ccrOzmIp.s 			page 110


1880:Drivers/STM32F4xx_HAL_Driver/Src/stm32f4xx_hal_can.c ****   {
 2542              		.loc 1 1880 6 is_stmt 0 view .LVU797
 2543 00b0 14F0040F 		tst	r4, #4
 2544 00b4 02D0     		beq	.L185
1882:Drivers/STM32F4xx_HAL_Driver/Src/stm32f4xx_hal_can.c ****     {
 2545              		.loc 1 1882 5 is_stmt 1 view .LVU798
1882:Drivers/STM32F4xx_HAL_Driver/Src/stm32f4xx_hal_can.c ****     {
 2546              		.loc 1 1882 8 is_stmt 0 view .LVU799
 2547 00b6 1BF0080F 		tst	fp, #8
 2548 00ba 79D1     		bne	.L213
 2549              	.L185:
1899:Drivers/STM32F4xx_HAL_Driver/Src/stm32f4xx_hal_can.c ****   {
 2550              		.loc 1 1899 3 is_stmt 1 view .LVU800
1899:Drivers/STM32F4xx_HAL_Driver/Src/stm32f4xx_hal_can.c ****   {
 2551              		.loc 1 1899 6 is_stmt 0 view .LVU801
 2552 00bc 14F0020F 		tst	r4, #2
 2553 00c0 04D0     		beq	.L186
1902:Drivers/STM32F4xx_HAL_Driver/Src/stm32f4xx_hal_can.c ****     {
 2554              		.loc 1 1902 5 is_stmt 1 view .LVU802
1902:Drivers/STM32F4xx_HAL_Driver/Src/stm32f4xx_hal_can.c ****     {
 2555              		.loc 1 1902 14 is_stmt 0 view .LVU803
 2556 00c2 2B68     		ldr	r3, [r5]
1902:Drivers/STM32F4xx_HAL_Driver/Src/stm32f4xx_hal_can.c ****     {
 2557              		.loc 1 1902 24 view .LVU804
 2558 00c4 DB68     		ldr	r3, [r3, #12]
1902:Drivers/STM32F4xx_HAL_Driver/Src/stm32f4xx_hal_can.c ****     {
 2559              		.loc 1 1902 8 view .LVU805
 2560 00c6 13F0030F 		tst	r3, #3
 2561 00ca 78D1     		bne	.L214
 2562              	.L186:
1916:Drivers/STM32F4xx_HAL_Driver/Src/stm32f4xx_hal_can.c ****   {
 2563              		.loc 1 1916 3 is_stmt 1 view .LVU806
1916:Drivers/STM32F4xx_HAL_Driver/Src/stm32f4xx_hal_can.c ****   {
 2564              		.loc 1 1916 6 is_stmt 0 view .LVU807
 2565 00cc 14F0400F 		tst	r4, #64
 2566 00d0 07D0     		beq	.L187
1918:Drivers/STM32F4xx_HAL_Driver/Src/stm32f4xx_hal_can.c ****     {
 2567              		.loc 1 1918 5 is_stmt 1 view .LVU808
1918:Drivers/STM32F4xx_HAL_Driver/Src/stm32f4xx_hal_can.c ****     {
 2568              		.loc 1 1918 8 is_stmt 0 view .LVU809
 2569 00d2 1AF0100F 		tst	r10, #16
 2570 00d6 04D0     		beq	.L187
1921:Drivers/STM32F4xx_HAL_Driver/Src/stm32f4xx_hal_can.c **** 
 2571              		.loc 1 1921 7 is_stmt 1 view .LVU810
1921:Drivers/STM32F4xx_HAL_Driver/Src/stm32f4xx_hal_can.c **** 
 2572              		.loc 1 1921 17 is_stmt 0 view .LVU811
 2573 00d8 46F48066 		orr	r6, r6, #1024
 2574              	.LVL195:
1924:Drivers/STM32F4xx_HAL_Driver/Src/stm32f4xx_hal_can.c ****     }
 2575              		.loc 1 1924 7 is_stmt 1 view .LVU812
 2576 00dc 2B68     		ldr	r3, [r5]
 2577 00de 1022     		movs	r2, #16
 2578 00e0 1A61     		str	r2, [r3, #16]
 2579              	.L187:
1929:Drivers/STM32F4xx_HAL_Driver/Src/stm32f4xx_hal_can.c ****   {
 2580              		.loc 1 1929 3 view .LVU813
1929:Drivers/STM32F4xx_HAL_Driver/Src/stm32f4xx_hal_can.c ****   {
ARM GAS  /tmp/ccrOzmIp.s 			page 111


 2581              		.loc 1 1929 6 is_stmt 0 view .LVU814
 2582 00e2 14F0200F 		tst	r4, #32
 2583 00e6 02D0     		beq	.L188
1931:Drivers/STM32F4xx_HAL_Driver/Src/stm32f4xx_hal_can.c ****     {
 2584              		.loc 1 1931 5 is_stmt 1 view .LVU815
1931:Drivers/STM32F4xx_HAL_Driver/Src/stm32f4xx_hal_can.c ****     {
 2585              		.loc 1 1931 8 is_stmt 0 view .LVU816
 2586 00e8 1AF0080F 		tst	r10, #8
 2587 00ec 6BD1     		bne	.L215
 2588              	.L188:
1948:Drivers/STM32F4xx_HAL_Driver/Src/stm32f4xx_hal_can.c ****   {
 2589              		.loc 1 1948 3 is_stmt 1 view .LVU817
1948:Drivers/STM32F4xx_HAL_Driver/Src/stm32f4xx_hal_can.c ****   {
 2590              		.loc 1 1948 6 is_stmt 0 view .LVU818
 2591 00ee 14F0100F 		tst	r4, #16
 2592 00f2 04D0     		beq	.L189
1951:Drivers/STM32F4xx_HAL_Driver/Src/stm32f4xx_hal_can.c ****     {
 2593              		.loc 1 1951 5 is_stmt 1 view .LVU819
1951:Drivers/STM32F4xx_HAL_Driver/Src/stm32f4xx_hal_can.c ****     {
 2594              		.loc 1 1951 14 is_stmt 0 view .LVU820
 2595 00f4 2B68     		ldr	r3, [r5]
1951:Drivers/STM32F4xx_HAL_Driver/Src/stm32f4xx_hal_can.c ****     {
 2596              		.loc 1 1951 24 view .LVU821
 2597 00f6 1B69     		ldr	r3, [r3, #16]
1951:Drivers/STM32F4xx_HAL_Driver/Src/stm32f4xx_hal_can.c ****     {
 2598              		.loc 1 1951 8 view .LVU822
 2599 00f8 13F0030F 		tst	r3, #3
 2600 00fc 6AD1     		bne	.L216
 2601              	.L189:
1965:Drivers/STM32F4xx_HAL_Driver/Src/stm32f4xx_hal_can.c ****   {
 2602              		.loc 1 1965 3 is_stmt 1 view .LVU823
1965:Drivers/STM32F4xx_HAL_Driver/Src/stm32f4xx_hal_can.c ****   {
 2603              		.loc 1 1965 6 is_stmt 0 view .LVU824
 2604 00fe 14F4003F 		tst	r4, #131072
 2605 0102 02D0     		beq	.L190
1967:Drivers/STM32F4xx_HAL_Driver/Src/stm32f4xx_hal_can.c ****     {
 2606              		.loc 1 1967 5 is_stmt 1 view .LVU825
1967:Drivers/STM32F4xx_HAL_Driver/Src/stm32f4xx_hal_can.c ****     {
 2607              		.loc 1 1967 8 is_stmt 0 view .LVU826
 2608 0104 18F0100F 		tst	r8, #16
 2609 0108 68D1     		bne	.L217
 2610              	.L190:
1984:Drivers/STM32F4xx_HAL_Driver/Src/stm32f4xx_hal_can.c ****   {
 2611              		.loc 1 1984 3 is_stmt 1 view .LVU827
1984:Drivers/STM32F4xx_HAL_Driver/Src/stm32f4xx_hal_can.c ****   {
 2612              		.loc 1 1984 6 is_stmt 0 view .LVU828
 2613 010a 14F4803F 		tst	r4, #65536
 2614 010e 02D0     		beq	.L191
1986:Drivers/STM32F4xx_HAL_Driver/Src/stm32f4xx_hal_can.c ****     {
 2615              		.loc 1 1986 5 is_stmt 1 view .LVU829
1986:Drivers/STM32F4xx_HAL_Driver/Src/stm32f4xx_hal_can.c ****     {
 2616              		.loc 1 1986 8 is_stmt 0 view .LVU830
 2617 0110 18F0080F 		tst	r8, #8
 2618 0114 69D1     		bne	.L218
 2619              	.L191:
2003:Drivers/STM32F4xx_HAL_Driver/Src/stm32f4xx_hal_can.c ****   {
 2620              		.loc 1 2003 3 is_stmt 1 view .LVU831
ARM GAS  /tmp/ccrOzmIp.s 			page 112


2003:Drivers/STM32F4xx_HAL_Driver/Src/stm32f4xx_hal_can.c ****   {
 2621              		.loc 1 2003 6 is_stmt 0 view .LVU832
 2622 0116 14F4004F 		tst	r4, #32768
 2623 011a 7AD0     		beq	.L192
2005:Drivers/STM32F4xx_HAL_Driver/Src/stm32f4xx_hal_can.c ****     {
 2624              		.loc 1 2005 5 is_stmt 1 view .LVU833
2005:Drivers/STM32F4xx_HAL_Driver/Src/stm32f4xx_hal_can.c ****     {
 2625              		.loc 1 2005 8 is_stmt 0 view .LVU834
 2626 011c 18F0040F 		tst	r8, #4
 2627 0120 74D0     		beq	.L193
2008:Drivers/STM32F4xx_HAL_Driver/Src/stm32f4xx_hal_can.c ****           ((esrflags & CAN_ESR_EWGF) != 0U))
 2628              		.loc 1 2008 7 is_stmt 1 view .LVU835
2008:Drivers/STM32F4xx_HAL_Driver/Src/stm32f4xx_hal_can.c ****           ((esrflags & CAN_ESR_EWGF) != 0U))
 2629              		.loc 1 2008 10 is_stmt 0 view .LVU836
 2630 0122 14F4807F 		tst	r4, #256
 2631 0126 04D0     		beq	.L194
2008:Drivers/STM32F4xx_HAL_Driver/Src/stm32f4xx_hal_can.c ****           ((esrflags & CAN_ESR_EWGF) != 0U))
 2632              		.loc 1 2008 55 discriminator 1 view .LVU837
 2633 0128 19F0010F 		tst	r9, #1
 2634 012c 01D0     		beq	.L194
2012:Drivers/STM32F4xx_HAL_Driver/Src/stm32f4xx_hal_can.c **** 
 2635              		.loc 1 2012 9 is_stmt 1 view .LVU838
2012:Drivers/STM32F4xx_HAL_Driver/Src/stm32f4xx_hal_can.c **** 
 2636              		.loc 1 2012 19 is_stmt 0 view .LVU839
 2637 012e 46F00106 		orr	r6, r6, #1
 2638              	.LVL196:
 2639              	.L194:
2018:Drivers/STM32F4xx_HAL_Driver/Src/stm32f4xx_hal_can.c ****           ((esrflags & CAN_ESR_EPVF) != 0U))
 2640              		.loc 1 2018 7 is_stmt 1 view .LVU840
2018:Drivers/STM32F4xx_HAL_Driver/Src/stm32f4xx_hal_can.c ****           ((esrflags & CAN_ESR_EPVF) != 0U))
 2641              		.loc 1 2018 10 is_stmt 0 view .LVU841
 2642 0132 14F4007F 		tst	r4, #512
 2643 0136 04D0     		beq	.L195
2018:Drivers/STM32F4xx_HAL_Driver/Src/stm32f4xx_hal_can.c ****           ((esrflags & CAN_ESR_EPVF) != 0U))
 2644              		.loc 1 2018 55 discriminator 1 view .LVU842
 2645 0138 19F0020F 		tst	r9, #2
 2646 013c 01D0     		beq	.L195
2022:Drivers/STM32F4xx_HAL_Driver/Src/stm32f4xx_hal_can.c **** 
 2647              		.loc 1 2022 9 is_stmt 1 view .LVU843
2022:Drivers/STM32F4xx_HAL_Driver/Src/stm32f4xx_hal_can.c **** 
 2648              		.loc 1 2022 19 is_stmt 0 view .LVU844
 2649 013e 46F00206 		orr	r6, r6, #2
 2650              	.LVL197:
 2651              	.L195:
2028:Drivers/STM32F4xx_HAL_Driver/Src/stm32f4xx_hal_can.c ****           ((esrflags & CAN_ESR_BOFF) != 0U))
 2652              		.loc 1 2028 7 is_stmt 1 view .LVU845
2028:Drivers/STM32F4xx_HAL_Driver/Src/stm32f4xx_hal_can.c ****           ((esrflags & CAN_ESR_BOFF) != 0U))
 2653              		.loc 1 2028 10 is_stmt 0 view .LVU846
 2654 0142 14F4806F 		tst	r4, #1024
 2655 0146 04D0     		beq	.L196
2028:Drivers/STM32F4xx_HAL_Driver/Src/stm32f4xx_hal_can.c ****           ((esrflags & CAN_ESR_BOFF) != 0U))
 2656              		.loc 1 2028 48 discriminator 1 view .LVU847
 2657 0148 19F0040F 		tst	r9, #4
 2658 014c 01D0     		beq	.L196
2032:Drivers/STM32F4xx_HAL_Driver/Src/stm32f4xx_hal_can.c **** 
 2659              		.loc 1 2032 9 is_stmt 1 view .LVU848
2032:Drivers/STM32F4xx_HAL_Driver/Src/stm32f4xx_hal_can.c **** 
ARM GAS  /tmp/ccrOzmIp.s 			page 113


 2660              		.loc 1 2032 19 is_stmt 0 view .LVU849
 2661 014e 46F00406 		orr	r6, r6, #4
 2662              	.LVL198:
 2663              	.L196:
2038:Drivers/STM32F4xx_HAL_Driver/Src/stm32f4xx_hal_can.c ****           ((esrflags & CAN_ESR_LEC) != 0U))
 2664              		.loc 1 2038 7 is_stmt 1 view .LVU850
2038:Drivers/STM32F4xx_HAL_Driver/Src/stm32f4xx_hal_can.c ****           ((esrflags & CAN_ESR_LEC) != 0U))
 2665              		.loc 1 2038 10 is_stmt 0 view .LVU851
 2666 0152 14F4006F 		tst	r4, #2048
 2667 0156 59D0     		beq	.L193
2038:Drivers/STM32F4xx_HAL_Driver/Src/stm32f4xx_hal_can.c ****           ((esrflags & CAN_ESR_LEC) != 0U))
 2668              		.loc 1 2038 57 discriminator 1 view .LVU852
 2669 0158 19F07009 		ands	r9, r9, #112
 2670              	.LVL199:
2038:Drivers/STM32F4xx_HAL_Driver/Src/stm32f4xx_hal_can.c ****           ((esrflags & CAN_ESR_LEC) != 0U))
 2671              		.loc 1 2038 57 discriminator 1 view .LVU853
 2672 015c 56D0     		beq	.L193
2041:Drivers/STM32F4xx_HAL_Driver/Src/stm32f4xx_hal_can.c ****         {
 2673              		.loc 1 2041 9 is_stmt 1 view .LVU854
 2674 015e B9F1400F 		cmp	r9, #64
 2675 0162 65D0     		beq	.L197
 2676 0164 58D8     		bhi	.L198
 2677 0166 B9F1200F 		cmp	r9, #32
 2678 016a 5ED0     		beq	.L199
 2679 016c B9F1300F 		cmp	r9, #48
 2680 0170 42D1     		bne	.L219
2053:Drivers/STM32F4xx_HAL_Driver/Src/stm32f4xx_hal_can.c ****             break;
 2681              		.loc 1 2053 13 view .LVU855
2053:Drivers/STM32F4xx_HAL_Driver/Src/stm32f4xx_hal_can.c ****             break;
 2682              		.loc 1 2053 23 is_stmt 0 view .LVU856
 2683 0172 46F02006 		orr	r6, r6, #32
 2684              	.LVL200:
2054:Drivers/STM32F4xx_HAL_Driver/Src/stm32f4xx_hal_can.c ****           case (CAN_ESR_LEC_2):
 2685              		.loc 1 2054 13 is_stmt 1 view .LVU857
 2686 0176 44E0     		b	.L202
 2687              	.LVL201:
 2688              	.L211:
1793:Drivers/STM32F4xx_HAL_Driver/Src/stm32f4xx_hal_can.c **** #endif /* USE_HAL_CAN_REGISTER_CALLBACKS */
 2689              		.loc 1 1793 9 view .LVU858
 2690 0178 2846     		mov	r0, r5
 2691 017a FFF7FEFF 		bl	HAL_CAN_TxMailbox1CompleteCallback
 2692              	.LVL202:
 2693 017e 7BE7     		b	.L177
 2694              	.L179:
1803:Drivers/STM32F4xx_HAL_Driver/Src/stm32f4xx_hal_can.c ****         {
 2695              		.loc 1 1803 14 view .LVU859
1803:Drivers/STM32F4xx_HAL_Driver/Src/stm32f4xx_hal_can.c ****         {
 2696              		.loc 1 1803 17 is_stmt 0 view .LVU860
 2697 0180 17F4006F 		tst	r7, #2048
 2698 0184 02D0     		beq	.L180
1806:Drivers/STM32F4xx_HAL_Driver/Src/stm32f4xx_hal_can.c ****         }
 2699              		.loc 1 1806 11 is_stmt 1 view .LVU861
1806:Drivers/STM32F4xx_HAL_Driver/Src/stm32f4xx_hal_can.c ****         }
 2700              		.loc 1 1806 21 is_stmt 0 view .LVU862
 2701 0186 46F48046 		orr	r6, r6, #16384
 2702              	.LVL203:
1806:Drivers/STM32F4xx_HAL_Driver/Src/stm32f4xx_hal_can.c ****         }
ARM GAS  /tmp/ccrOzmIp.s 			page 114


 2703              		.loc 1 1806 21 view .LVU863
 2704 018a 75E7     		b	.L177
 2705              	.L180:
1816:Drivers/STM32F4xx_HAL_Driver/Src/stm32f4xx_hal_can.c **** #endif /* USE_HAL_CAN_REGISTER_CALLBACKS */
 2706              		.loc 1 1816 11 is_stmt 1 view .LVU864
 2707 018c 2846     		mov	r0, r5
 2708 018e FFF7FEFF 		bl	HAL_CAN_TxMailbox1AbortCallback
 2709              	.LVL204:
 2710 0192 71E7     		b	.L177
 2711              	.L212:
1836:Drivers/STM32F4xx_HAL_Driver/Src/stm32f4xx_hal_can.c **** #endif /* USE_HAL_CAN_REGISTER_CALLBACKS */
 2712              		.loc 1 1836 9 view .LVU865
 2713 0194 2846     		mov	r0, r5
 2714 0196 FFF7FEFF 		bl	HAL_CAN_TxMailbox2CompleteCallback
 2715              	.LVL205:
 2716 019a 7EE7     		b	.L174
 2717              	.L182:
1846:Drivers/STM32F4xx_HAL_Driver/Src/stm32f4xx_hal_can.c ****         {
 2718              		.loc 1 1846 14 view .LVU866
1846:Drivers/STM32F4xx_HAL_Driver/Src/stm32f4xx_hal_can.c ****         {
 2719              		.loc 1 1846 17 is_stmt 0 view .LVU867
 2720 019c 17F4002F 		tst	r7, #524288
 2721 01a0 02D0     		beq	.L183
1849:Drivers/STM32F4xx_HAL_Driver/Src/stm32f4xx_hal_can.c ****         }
 2722              		.loc 1 1849 11 is_stmt 1 view .LVU868
1849:Drivers/STM32F4xx_HAL_Driver/Src/stm32f4xx_hal_can.c ****         }
 2723              		.loc 1 1849 21 is_stmt 0 view .LVU869
 2724 01a2 46F48036 		orr	r6, r6, #65536
 2725              	.LVL206:
1849:Drivers/STM32F4xx_HAL_Driver/Src/stm32f4xx_hal_can.c ****         }
 2726              		.loc 1 1849 21 view .LVU870
 2727 01a6 78E7     		b	.L174
 2728              	.L183:
1859:Drivers/STM32F4xx_HAL_Driver/Src/stm32f4xx_hal_can.c **** #endif /* USE_HAL_CAN_REGISTER_CALLBACKS */
 2729              		.loc 1 1859 11 is_stmt 1 view .LVU871
 2730 01a8 2846     		mov	r0, r5
 2731 01aa FFF7FEFF 		bl	HAL_CAN_TxMailbox2AbortCallback
 2732              	.LVL207:
 2733 01ae 74E7     		b	.L174
 2734              	.L213:
1885:Drivers/STM32F4xx_HAL_Driver/Src/stm32f4xx_hal_can.c **** 
 2735              		.loc 1 1885 7 view .LVU872
 2736 01b0 2B68     		ldr	r3, [r5]
 2737 01b2 0822     		movs	r2, #8
 2738 01b4 DA60     		str	r2, [r3, #12]
1893:Drivers/STM32F4xx_HAL_Driver/Src/stm32f4xx_hal_can.c **** #endif /* USE_HAL_CAN_REGISTER_CALLBACKS */
 2739              		.loc 1 1893 7 view .LVU873
 2740 01b6 2846     		mov	r0, r5
 2741 01b8 FFF7FEFF 		bl	HAL_CAN_RxFifo0FullCallback
 2742              	.LVL208:
 2743 01bc 7EE7     		b	.L185
 2744              	.L214:
1910:Drivers/STM32F4xx_HAL_Driver/Src/stm32f4xx_hal_can.c **** #endif /* USE_HAL_CAN_REGISTER_CALLBACKS */
 2745              		.loc 1 1910 7 view .LVU874
 2746 01be 2846     		mov	r0, r5
 2747 01c0 FFF7FEFF 		bl	HAL_CAN_RxFifo0MsgPendingCallback
 2748              	.LVL209:
ARM GAS  /tmp/ccrOzmIp.s 			page 115


 2749 01c4 82E7     		b	.L186
 2750              	.L215:
1934:Drivers/STM32F4xx_HAL_Driver/Src/stm32f4xx_hal_can.c **** 
 2751              		.loc 1 1934 7 view .LVU875
 2752 01c6 2B68     		ldr	r3, [r5]
 2753 01c8 0822     		movs	r2, #8
 2754 01ca 1A61     		str	r2, [r3, #16]
1942:Drivers/STM32F4xx_HAL_Driver/Src/stm32f4xx_hal_can.c **** #endif /* USE_HAL_CAN_REGISTER_CALLBACKS */
 2755              		.loc 1 1942 7 view .LVU876
 2756 01cc 2846     		mov	r0, r5
 2757 01ce FFF7FEFF 		bl	HAL_CAN_RxFifo1FullCallback
 2758              	.LVL210:
 2759 01d2 8CE7     		b	.L188
 2760              	.L216:
1959:Drivers/STM32F4xx_HAL_Driver/Src/stm32f4xx_hal_can.c **** #endif /* USE_HAL_CAN_REGISTER_CALLBACKS */
 2761              		.loc 1 1959 7 view .LVU877
 2762 01d4 2846     		mov	r0, r5
 2763 01d6 FFF7FEFF 		bl	HAL_CAN_RxFifo1MsgPendingCallback
 2764              	.LVL211:
 2765 01da 90E7     		b	.L189
 2766              	.L217:
1970:Drivers/STM32F4xx_HAL_Driver/Src/stm32f4xx_hal_can.c **** 
 2767              		.loc 1 1970 7 view .LVU878
 2768 01dc 2B68     		ldr	r3, [r5]
 2769 01de 1022     		movs	r2, #16
 2770 01e0 5A60     		str	r2, [r3, #4]
1978:Drivers/STM32F4xx_HAL_Driver/Src/stm32f4xx_hal_can.c **** #endif /* USE_HAL_CAN_REGISTER_CALLBACKS */
 2771              		.loc 1 1978 7 view .LVU879
 2772 01e2 2846     		mov	r0, r5
 2773 01e4 FFF7FEFF 		bl	HAL_CAN_SleepCallback
 2774              	.LVL212:
 2775 01e8 8FE7     		b	.L190
 2776              	.L218:
1989:Drivers/STM32F4xx_HAL_Driver/Src/stm32f4xx_hal_can.c **** 
 2777              		.loc 1 1989 7 view .LVU880
 2778 01ea 2B68     		ldr	r3, [r5]
 2779 01ec 0822     		movs	r2, #8
 2780 01ee 5A60     		str	r2, [r3, #4]
1997:Drivers/STM32F4xx_HAL_Driver/Src/stm32f4xx_hal_can.c **** #endif /* USE_HAL_CAN_REGISTER_CALLBACKS */
 2781              		.loc 1 1997 7 view .LVU881
 2782 01f0 2846     		mov	r0, r5
 2783 01f2 FFF7FEFF 		bl	HAL_CAN_WakeUpFromRxMsgCallback
 2784              	.LVL213:
 2785 01f6 8EE7     		b	.L191
 2786              	.LVL214:
 2787              	.L219:
2041:Drivers/STM32F4xx_HAL_Driver/Src/stm32f4xx_hal_can.c ****         {
 2788              		.loc 1 2041 9 is_stmt 0 view .LVU882
 2789 01f8 B9F1100F 		cmp	r9, #16
 2790 01fc 01D1     		bne	.L202
2045:Drivers/STM32F4xx_HAL_Driver/Src/stm32f4xx_hal_can.c ****             break;
 2791              		.loc 1 2045 13 is_stmt 1 view .LVU883
2045:Drivers/STM32F4xx_HAL_Driver/Src/stm32f4xx_hal_can.c ****             break;
 2792              		.loc 1 2045 23 is_stmt 0 view .LVU884
 2793 01fe 46F00806 		orr	r6, r6, #8
 2794              	.LVL215:
2046:Drivers/STM32F4xx_HAL_Driver/Src/stm32f4xx_hal_can.c ****           case (CAN_ESR_LEC_1):
ARM GAS  /tmp/ccrOzmIp.s 			page 116


 2795              		.loc 1 2046 13 is_stmt 1 view .LVU885
 2796              	.L202:
2072:Drivers/STM32F4xx_HAL_Driver/Src/stm32f4xx_hal_can.c ****       }
 2797              		.loc 1 2072 9 view .LVU886
 2798 0202 2A68     		ldr	r2, [r5]
 2799 0204 9369     		ldr	r3, [r2, #24]
 2800 0206 23F07003 		bic	r3, r3, #112
 2801 020a 9361     		str	r3, [r2, #24]
 2802              	.L193:
2077:Drivers/STM32F4xx_HAL_Driver/Src/stm32f4xx_hal_can.c ****   }
 2803              		.loc 1 2077 5 view .LVU887
 2804 020c 2B68     		ldr	r3, [r5]
 2805 020e 0422     		movs	r2, #4
 2806 0210 5A60     		str	r2, [r3, #4]
 2807              	.L192:
2081:Drivers/STM32F4xx_HAL_Driver/Src/stm32f4xx_hal_can.c ****   {
 2808              		.loc 1 2081 3 view .LVU888
2081:Drivers/STM32F4xx_HAL_Driver/Src/stm32f4xx_hal_can.c ****   {
 2809              		.loc 1 2081 6 is_stmt 0 view .LVU889
 2810 0212 9EB9     		cbnz	r6, .L220
 2811              	.L173:
2095:Drivers/STM32F4xx_HAL_Driver/Src/stm32f4xx_hal_can.c **** 
 2812              		.loc 1 2095 1 view .LVU890
 2813 0214 BDE8F88F 		pop	{r3, r4, r5, r6, r7, r8, r9, r10, fp, pc}
 2814              	.LVL216:
 2815              	.L198:
2041:Drivers/STM32F4xx_HAL_Driver/Src/stm32f4xx_hal_can.c ****         {
 2816              		.loc 1 2041 9 view .LVU891
 2817 0218 B9F1500F 		cmp	r9, #80
 2818 021c 0BD0     		beq	.L203
 2819 021e B9F1600F 		cmp	r9, #96
 2820 0222 EED1     		bne	.L202
2065:Drivers/STM32F4xx_HAL_Driver/Src/stm32f4xx_hal_can.c ****             break;
 2821              		.loc 1 2065 13 is_stmt 1 view .LVU892
2065:Drivers/STM32F4xx_HAL_Driver/Src/stm32f4xx_hal_can.c ****             break;
 2822              		.loc 1 2065 23 is_stmt 0 view .LVU893
 2823 0224 46F48076 		orr	r6, r6, #256
 2824              	.LVL217:
2066:Drivers/STM32F4xx_HAL_Driver/Src/stm32f4xx_hal_can.c ****           default:
 2825              		.loc 1 2066 13 is_stmt 1 view .LVU894
 2826 0228 EBE7     		b	.L202
 2827              	.L199:
2049:Drivers/STM32F4xx_HAL_Driver/Src/stm32f4xx_hal_can.c ****             break;
 2828              		.loc 1 2049 13 view .LVU895
2049:Drivers/STM32F4xx_HAL_Driver/Src/stm32f4xx_hal_can.c ****             break;
 2829              		.loc 1 2049 23 is_stmt 0 view .LVU896
 2830 022a 46F01006 		orr	r6, r6, #16
 2831              	.LVL218:
2050:Drivers/STM32F4xx_HAL_Driver/Src/stm32f4xx_hal_can.c ****           case (CAN_ESR_LEC_1 | CAN_ESR_LEC_0):
 2832              		.loc 1 2050 13 is_stmt 1 view .LVU897
 2833 022e E8E7     		b	.L202
 2834              	.L197:
2057:Drivers/STM32F4xx_HAL_Driver/Src/stm32f4xx_hal_can.c ****             break;
 2835              		.loc 1 2057 13 view .LVU898
2057:Drivers/STM32F4xx_HAL_Driver/Src/stm32f4xx_hal_can.c ****             break;
 2836              		.loc 1 2057 23 is_stmt 0 view .LVU899
 2837 0230 46F04006 		orr	r6, r6, #64
ARM GAS  /tmp/ccrOzmIp.s 			page 117


 2838              	.LVL219:
2058:Drivers/STM32F4xx_HAL_Driver/Src/stm32f4xx_hal_can.c ****           case (CAN_ESR_LEC_2 | CAN_ESR_LEC_0):
 2839              		.loc 1 2058 13 is_stmt 1 view .LVU900
 2840 0234 E5E7     		b	.L202
 2841              	.L203:
2061:Drivers/STM32F4xx_HAL_Driver/Src/stm32f4xx_hal_can.c ****             break;
 2842              		.loc 1 2061 13 view .LVU901
2061:Drivers/STM32F4xx_HAL_Driver/Src/stm32f4xx_hal_can.c ****             break;
 2843              		.loc 1 2061 23 is_stmt 0 view .LVU902
 2844 0236 46F08006 		orr	r6, r6, #128
 2845              	.LVL220:
2062:Drivers/STM32F4xx_HAL_Driver/Src/stm32f4xx_hal_can.c ****           case (CAN_ESR_LEC_2 | CAN_ESR_LEC_1):
 2846              		.loc 1 2062 13 is_stmt 1 view .LVU903
 2847 023a E2E7     		b	.L202
 2848              	.L220:
2084:Drivers/STM32F4xx_HAL_Driver/Src/stm32f4xx_hal_can.c **** 
 2849              		.loc 1 2084 5 view .LVU904
2084:Drivers/STM32F4xx_HAL_Driver/Src/stm32f4xx_hal_can.c **** 
 2850              		.loc 1 2084 21 is_stmt 0 view .LVU905
 2851 023c 6B6A     		ldr	r3, [r5, #36]
 2852 023e 3343     		orrs	r3, r3, r6
 2853 0240 6B62     		str	r3, [r5, #36]
2092:Drivers/STM32F4xx_HAL_Driver/Src/stm32f4xx_hal_can.c **** #endif /* USE_HAL_CAN_REGISTER_CALLBACKS */
 2854              		.loc 1 2092 5 is_stmt 1 view .LVU906
 2855 0242 2846     		mov	r0, r5
 2856 0244 FFF7FEFF 		bl	HAL_CAN_ErrorCallback
 2857              	.LVL221:
2095:Drivers/STM32F4xx_HAL_Driver/Src/stm32f4xx_hal_can.c **** 
 2858              		.loc 1 2095 1 is_stmt 0 view .LVU907
 2859 0248 E4E7     		b	.L173
 2860              		.cfi_endproc
 2861              	.LFE235:
 2863              		.section	.text.HAL_CAN_GetState,"ax",%progbits
 2864              		.align	1
 2865              		.global	HAL_CAN_GetState
 2866              		.syntax unified
 2867              		.thumb
 2868              		.thumb_func
 2870              	HAL_CAN_GetState:
 2871              	.LVL222:
 2872              	.LFB249:
2346:Drivers/STM32F4xx_HAL_Driver/Src/stm32f4xx_hal_can.c **** 
2347:Drivers/STM32F4xx_HAL_Driver/Src/stm32f4xx_hal_can.c **** /**
2348:Drivers/STM32F4xx_HAL_Driver/Src/stm32f4xx_hal_can.c ****   * @}
2349:Drivers/STM32F4xx_HAL_Driver/Src/stm32f4xx_hal_can.c ****   */
2350:Drivers/STM32F4xx_HAL_Driver/Src/stm32f4xx_hal_can.c **** 
2351:Drivers/STM32F4xx_HAL_Driver/Src/stm32f4xx_hal_can.c **** /** @defgroup CAN_Exported_Functions_Group6 Peripheral State and Error functions
2352:Drivers/STM32F4xx_HAL_Driver/Src/stm32f4xx_hal_can.c ****  *  @brief   CAN Peripheral State functions
2353:Drivers/STM32F4xx_HAL_Driver/Src/stm32f4xx_hal_can.c ****  *
2354:Drivers/STM32F4xx_HAL_Driver/Src/stm32f4xx_hal_can.c **** @verbatim
2355:Drivers/STM32F4xx_HAL_Driver/Src/stm32f4xx_hal_can.c ****   ==============================================================================
2356:Drivers/STM32F4xx_HAL_Driver/Src/stm32f4xx_hal_can.c ****             ##### Peripheral State and Error functions #####
2357:Drivers/STM32F4xx_HAL_Driver/Src/stm32f4xx_hal_can.c ****   ==============================================================================
2358:Drivers/STM32F4xx_HAL_Driver/Src/stm32f4xx_hal_can.c ****     [..]
2359:Drivers/STM32F4xx_HAL_Driver/Src/stm32f4xx_hal_can.c ****     This subsection provides functions allowing to :
2360:Drivers/STM32F4xx_HAL_Driver/Src/stm32f4xx_hal_can.c ****       (+) HAL_CAN_GetState()  : Return the CAN state.
2361:Drivers/STM32F4xx_HAL_Driver/Src/stm32f4xx_hal_can.c ****       (+) HAL_CAN_GetError()  : Return the CAN error codes if any.
ARM GAS  /tmp/ccrOzmIp.s 			page 118


2362:Drivers/STM32F4xx_HAL_Driver/Src/stm32f4xx_hal_can.c ****       (+) HAL_CAN_ResetError(): Reset the CAN error codes if any.
2363:Drivers/STM32F4xx_HAL_Driver/Src/stm32f4xx_hal_can.c **** 
2364:Drivers/STM32F4xx_HAL_Driver/Src/stm32f4xx_hal_can.c **** @endverbatim
2365:Drivers/STM32F4xx_HAL_Driver/Src/stm32f4xx_hal_can.c ****   * @{
2366:Drivers/STM32F4xx_HAL_Driver/Src/stm32f4xx_hal_can.c ****   */
2367:Drivers/STM32F4xx_HAL_Driver/Src/stm32f4xx_hal_can.c **** 
2368:Drivers/STM32F4xx_HAL_Driver/Src/stm32f4xx_hal_can.c **** /**
2369:Drivers/STM32F4xx_HAL_Driver/Src/stm32f4xx_hal_can.c ****   * @brief  Return the CAN state.
2370:Drivers/STM32F4xx_HAL_Driver/Src/stm32f4xx_hal_can.c ****   * @param  hcan pointer to a CAN_HandleTypeDef structure that contains
2371:Drivers/STM32F4xx_HAL_Driver/Src/stm32f4xx_hal_can.c ****   *         the configuration information for the specified CAN.
2372:Drivers/STM32F4xx_HAL_Driver/Src/stm32f4xx_hal_can.c ****   * @retval HAL state
2373:Drivers/STM32F4xx_HAL_Driver/Src/stm32f4xx_hal_can.c ****   */
2374:Drivers/STM32F4xx_HAL_Driver/Src/stm32f4xx_hal_can.c **** HAL_CAN_StateTypeDef HAL_CAN_GetState(CAN_HandleTypeDef *hcan)
2375:Drivers/STM32F4xx_HAL_Driver/Src/stm32f4xx_hal_can.c **** {
 2873              		.loc 1 2375 1 is_stmt 1 view -0
 2874              		.cfi_startproc
 2875              		@ args = 0, pretend = 0, frame = 0
 2876              		@ frame_needed = 0, uses_anonymous_args = 0
 2877              		@ link register save eliminated.
 2878              		.loc 1 2375 1 is_stmt 0 view .LVU909
 2879 0000 0246     		mov	r2, r0
2376:Drivers/STM32F4xx_HAL_Driver/Src/stm32f4xx_hal_can.c ****   HAL_CAN_StateTypeDef state = hcan->State;
 2880              		.loc 1 2376 3 is_stmt 1 view .LVU910
 2881              		.loc 1 2376 24 is_stmt 0 view .LVU911
 2882 0002 90F82030 		ldrb	r3, [r0, #32]	@ zero_extendqisi2
 2883 0006 D8B2     		uxtb	r0, r3
 2884              	.LVL223:
2377:Drivers/STM32F4xx_HAL_Driver/Src/stm32f4xx_hal_can.c **** 
2378:Drivers/STM32F4xx_HAL_Driver/Src/stm32f4xx_hal_can.c ****   if ((state == HAL_CAN_STATE_READY) ||
 2885              		.loc 1 2378 3 is_stmt 1 view .LVU912
 2886              		.loc 1 2378 38 is_stmt 0 view .LVU913
 2887 0008 013B     		subs	r3, r3, #1
 2888 000a DBB2     		uxtb	r3, r3
 2889              		.loc 1 2378 6 view .LVU914
 2890 000c 012B     		cmp	r3, #1
 2891 000e 00D9     		bls	.L225
 2892              	.LVL224:
 2893              	.L222:
2379:Drivers/STM32F4xx_HAL_Driver/Src/stm32f4xx_hal_can.c ****       (state == HAL_CAN_STATE_LISTENING))
2380:Drivers/STM32F4xx_HAL_Driver/Src/stm32f4xx_hal_can.c ****   {
2381:Drivers/STM32F4xx_HAL_Driver/Src/stm32f4xx_hal_can.c ****     /* Check sleep mode acknowledge flag */
2382:Drivers/STM32F4xx_HAL_Driver/Src/stm32f4xx_hal_can.c ****     if ((hcan->Instance->MSR & CAN_MSR_SLAK) != 0U)
2383:Drivers/STM32F4xx_HAL_Driver/Src/stm32f4xx_hal_can.c ****     {
2384:Drivers/STM32F4xx_HAL_Driver/Src/stm32f4xx_hal_can.c ****       /* Sleep mode is active */
2385:Drivers/STM32F4xx_HAL_Driver/Src/stm32f4xx_hal_can.c ****       state = HAL_CAN_STATE_SLEEP_ACTIVE;
2386:Drivers/STM32F4xx_HAL_Driver/Src/stm32f4xx_hal_can.c ****     }
2387:Drivers/STM32F4xx_HAL_Driver/Src/stm32f4xx_hal_can.c ****     /* Check sleep mode request flag */
2388:Drivers/STM32F4xx_HAL_Driver/Src/stm32f4xx_hal_can.c ****     else if ((hcan->Instance->MCR & CAN_MCR_SLEEP) != 0U)
2389:Drivers/STM32F4xx_HAL_Driver/Src/stm32f4xx_hal_can.c ****     {
2390:Drivers/STM32F4xx_HAL_Driver/Src/stm32f4xx_hal_can.c ****       /* Sleep mode request is pending */
2391:Drivers/STM32F4xx_HAL_Driver/Src/stm32f4xx_hal_can.c ****       state = HAL_CAN_STATE_SLEEP_PENDING;
2392:Drivers/STM32F4xx_HAL_Driver/Src/stm32f4xx_hal_can.c ****     }
2393:Drivers/STM32F4xx_HAL_Driver/Src/stm32f4xx_hal_can.c ****     else
2394:Drivers/STM32F4xx_HAL_Driver/Src/stm32f4xx_hal_can.c ****     {
2395:Drivers/STM32F4xx_HAL_Driver/Src/stm32f4xx_hal_can.c ****       /* Neither sleep mode request nor sleep mode acknowledge */
2396:Drivers/STM32F4xx_HAL_Driver/Src/stm32f4xx_hal_can.c ****     }
 2894              		.loc 1 2396 5 is_stmt 1 view .LVU915
ARM GAS  /tmp/ccrOzmIp.s 			page 119


2397:Drivers/STM32F4xx_HAL_Driver/Src/stm32f4xx_hal_can.c ****   }
2398:Drivers/STM32F4xx_HAL_Driver/Src/stm32f4xx_hal_can.c **** 
2399:Drivers/STM32F4xx_HAL_Driver/Src/stm32f4xx_hal_can.c ****   /* Return CAN state */
2400:Drivers/STM32F4xx_HAL_Driver/Src/stm32f4xx_hal_can.c ****   return state;
 2895              		.loc 1 2400 3 view .LVU916
2401:Drivers/STM32F4xx_HAL_Driver/Src/stm32f4xx_hal_can.c **** }
 2896              		.loc 1 2401 1 is_stmt 0 view .LVU917
 2897 0010 7047     		bx	lr
 2898              	.LVL225:
 2899              	.L225:
2382:Drivers/STM32F4xx_HAL_Driver/Src/stm32f4xx_hal_can.c ****     {
 2900              		.loc 1 2382 5 is_stmt 1 view .LVU918
2382:Drivers/STM32F4xx_HAL_Driver/Src/stm32f4xx_hal_can.c ****     {
 2901              		.loc 1 2382 14 is_stmt 0 view .LVU919
 2902 0012 1368     		ldr	r3, [r2]
2382:Drivers/STM32F4xx_HAL_Driver/Src/stm32f4xx_hal_can.c ****     {
 2903              		.loc 1 2382 24 view .LVU920
 2904 0014 5A68     		ldr	r2, [r3, #4]
 2905              	.LVL226:
2382:Drivers/STM32F4xx_HAL_Driver/Src/stm32f4xx_hal_can.c ****     {
 2906              		.loc 1 2382 8 view .LVU921
 2907 0016 12F0020F 		tst	r2, #2
 2908 001a 05D1     		bne	.L223
2388:Drivers/STM32F4xx_HAL_Driver/Src/stm32f4xx_hal_can.c ****     {
 2909              		.loc 1 2388 10 is_stmt 1 view .LVU922
2388:Drivers/STM32F4xx_HAL_Driver/Src/stm32f4xx_hal_can.c ****     {
 2910              		.loc 1 2388 29 is_stmt 0 view .LVU923
 2911 001c 1B68     		ldr	r3, [r3]
2388:Drivers/STM32F4xx_HAL_Driver/Src/stm32f4xx_hal_can.c ****     {
 2912              		.loc 1 2388 13 view .LVU924
 2913 001e 13F0020F 		tst	r3, #2
 2914 0022 F5D0     		beq	.L222
2391:Drivers/STM32F4xx_HAL_Driver/Src/stm32f4xx_hal_can.c ****     }
 2915              		.loc 1 2391 13 view .LVU925
 2916 0024 0320     		movs	r0, #3
 2917              	.LVL227:
2391:Drivers/STM32F4xx_HAL_Driver/Src/stm32f4xx_hal_can.c ****     }
 2918              		.loc 1 2391 13 view .LVU926
 2919 0026 F3E7     		b	.L222
 2920              	.LVL228:
 2921              	.L223:
2385:Drivers/STM32F4xx_HAL_Driver/Src/stm32f4xx_hal_can.c ****     }
 2922              		.loc 1 2385 13 view .LVU927
 2923 0028 0420     		movs	r0, #4
 2924              	.LVL229:
2385:Drivers/STM32F4xx_HAL_Driver/Src/stm32f4xx_hal_can.c ****     }
 2925              		.loc 1 2385 13 view .LVU928
 2926 002a 7047     		bx	lr
 2927              		.cfi_endproc
 2928              	.LFE249:
 2930              		.section	.text.HAL_CAN_GetError,"ax",%progbits
 2931              		.align	1
 2932              		.global	HAL_CAN_GetError
 2933              		.syntax unified
 2934              		.thumb
 2935              		.thumb_func
 2937              	HAL_CAN_GetError:
ARM GAS  /tmp/ccrOzmIp.s 			page 120


 2938              	.LVL230:
 2939              	.LFB250:
2402:Drivers/STM32F4xx_HAL_Driver/Src/stm32f4xx_hal_can.c **** 
2403:Drivers/STM32F4xx_HAL_Driver/Src/stm32f4xx_hal_can.c **** /**
2404:Drivers/STM32F4xx_HAL_Driver/Src/stm32f4xx_hal_can.c ****   * @brief  Return the CAN error code.
2405:Drivers/STM32F4xx_HAL_Driver/Src/stm32f4xx_hal_can.c ****   * @param  hcan pointer to a CAN_HandleTypeDef structure that contains
2406:Drivers/STM32F4xx_HAL_Driver/Src/stm32f4xx_hal_can.c ****   *         the configuration information for the specified CAN.
2407:Drivers/STM32F4xx_HAL_Driver/Src/stm32f4xx_hal_can.c ****   * @retval CAN Error Code
2408:Drivers/STM32F4xx_HAL_Driver/Src/stm32f4xx_hal_can.c ****   */
2409:Drivers/STM32F4xx_HAL_Driver/Src/stm32f4xx_hal_can.c **** uint32_t HAL_CAN_GetError(CAN_HandleTypeDef *hcan)
2410:Drivers/STM32F4xx_HAL_Driver/Src/stm32f4xx_hal_can.c **** {
 2940              		.loc 1 2410 1 is_stmt 1 view -0
 2941              		.cfi_startproc
 2942              		@ args = 0, pretend = 0, frame = 0
 2943              		@ frame_needed = 0, uses_anonymous_args = 0
 2944              		@ link register save eliminated.
2411:Drivers/STM32F4xx_HAL_Driver/Src/stm32f4xx_hal_can.c ****   /* Return CAN error code */
2412:Drivers/STM32F4xx_HAL_Driver/Src/stm32f4xx_hal_can.c ****   return hcan->ErrorCode;
 2945              		.loc 1 2412 3 view .LVU930
 2946              		.loc 1 2412 14 is_stmt 0 view .LVU931
 2947 0000 406A     		ldr	r0, [r0, #36]
 2948              	.LVL231:
2413:Drivers/STM32F4xx_HAL_Driver/Src/stm32f4xx_hal_can.c **** }
 2949              		.loc 1 2413 1 view .LVU932
 2950 0002 7047     		bx	lr
 2951              		.cfi_endproc
 2952              	.LFE250:
 2954              		.section	.text.HAL_CAN_ResetError,"ax",%progbits
 2955              		.align	1
 2956              		.global	HAL_CAN_ResetError
 2957              		.syntax unified
 2958              		.thumb
 2959              		.thumb_func
 2961              	HAL_CAN_ResetError:
 2962              	.LVL232:
 2963              	.LFB251:
2414:Drivers/STM32F4xx_HAL_Driver/Src/stm32f4xx_hal_can.c **** 
2415:Drivers/STM32F4xx_HAL_Driver/Src/stm32f4xx_hal_can.c **** /**
2416:Drivers/STM32F4xx_HAL_Driver/Src/stm32f4xx_hal_can.c ****   * @brief  Reset the CAN error code.
2417:Drivers/STM32F4xx_HAL_Driver/Src/stm32f4xx_hal_can.c ****   * @param  hcan pointer to a CAN_HandleTypeDef structure that contains
2418:Drivers/STM32F4xx_HAL_Driver/Src/stm32f4xx_hal_can.c ****   *         the configuration information for the specified CAN.
2419:Drivers/STM32F4xx_HAL_Driver/Src/stm32f4xx_hal_can.c ****   * @retval HAL status
2420:Drivers/STM32F4xx_HAL_Driver/Src/stm32f4xx_hal_can.c ****   */
2421:Drivers/STM32F4xx_HAL_Driver/Src/stm32f4xx_hal_can.c **** HAL_StatusTypeDef HAL_CAN_ResetError(CAN_HandleTypeDef *hcan)
2422:Drivers/STM32F4xx_HAL_Driver/Src/stm32f4xx_hal_can.c **** {
 2964              		.loc 1 2422 1 is_stmt 1 view -0
 2965              		.cfi_startproc
 2966              		@ args = 0, pretend = 0, frame = 0
 2967              		@ frame_needed = 0, uses_anonymous_args = 0
 2968              		@ link register save eliminated.
2423:Drivers/STM32F4xx_HAL_Driver/Src/stm32f4xx_hal_can.c ****   HAL_StatusTypeDef status = HAL_OK;
 2969              		.loc 1 2423 3 view .LVU934
2424:Drivers/STM32F4xx_HAL_Driver/Src/stm32f4xx_hal_can.c ****   HAL_CAN_StateTypeDef state = hcan->State;
 2970              		.loc 1 2424 3 view .LVU935
 2971              		.loc 1 2424 24 is_stmt 0 view .LVU936
 2972 0000 90F82030 		ldrb	r3, [r0, #32]	@ zero_extendqisi2
 2973              	.LVL233:
ARM GAS  /tmp/ccrOzmIp.s 			page 121


2425:Drivers/STM32F4xx_HAL_Driver/Src/stm32f4xx_hal_can.c **** 
2426:Drivers/STM32F4xx_HAL_Driver/Src/stm32f4xx_hal_can.c ****   if ((state == HAL_CAN_STATE_READY) ||
 2974              		.loc 1 2426 3 is_stmt 1 view .LVU937
 2975              		.loc 1 2426 38 is_stmt 0 view .LVU938
 2976 0004 013B     		subs	r3, r3, #1
 2977              	.LVL234:
 2978              		.loc 1 2426 38 view .LVU939
 2979 0006 DBB2     		uxtb	r3, r3
 2980              		.loc 1 2426 6 view .LVU940
 2981 0008 012B     		cmp	r3, #1
 2982 000a 05D9     		bls	.L230
2427:Drivers/STM32F4xx_HAL_Driver/Src/stm32f4xx_hal_can.c ****       (state == HAL_CAN_STATE_LISTENING))
2428:Drivers/STM32F4xx_HAL_Driver/Src/stm32f4xx_hal_can.c ****   {
2429:Drivers/STM32F4xx_HAL_Driver/Src/stm32f4xx_hal_can.c ****     /* Reset CAN error code */
2430:Drivers/STM32F4xx_HAL_Driver/Src/stm32f4xx_hal_can.c ****     hcan->ErrorCode = 0U;
2431:Drivers/STM32F4xx_HAL_Driver/Src/stm32f4xx_hal_can.c ****   }
2432:Drivers/STM32F4xx_HAL_Driver/Src/stm32f4xx_hal_can.c ****   else
2433:Drivers/STM32F4xx_HAL_Driver/Src/stm32f4xx_hal_can.c ****   {
2434:Drivers/STM32F4xx_HAL_Driver/Src/stm32f4xx_hal_can.c ****     /* Update error code */
2435:Drivers/STM32F4xx_HAL_Driver/Src/stm32f4xx_hal_can.c ****     hcan->ErrorCode |= HAL_CAN_ERROR_NOT_INITIALIZED;
 2983              		.loc 1 2435 5 is_stmt 1 view .LVU941
 2984              		.loc 1 2435 21 is_stmt 0 view .LVU942
 2985 000c 436A     		ldr	r3, [r0, #36]
 2986 000e 43F48023 		orr	r3, r3, #262144
 2987 0012 4362     		str	r3, [r0, #36]
2436:Drivers/STM32F4xx_HAL_Driver/Src/stm32f4xx_hal_can.c **** 
2437:Drivers/STM32F4xx_HAL_Driver/Src/stm32f4xx_hal_can.c ****     status = HAL_ERROR;
 2988              		.loc 1 2437 5 is_stmt 1 view .LVU943
 2989              	.LVL235:
 2990              		.loc 1 2437 12 is_stmt 0 view .LVU944
 2991 0014 0120     		movs	r0, #1
 2992              	.LVL236:
2438:Drivers/STM32F4xx_HAL_Driver/Src/stm32f4xx_hal_can.c ****   }
2439:Drivers/STM32F4xx_HAL_Driver/Src/stm32f4xx_hal_can.c **** 
2440:Drivers/STM32F4xx_HAL_Driver/Src/stm32f4xx_hal_can.c ****   /* Return the status */
2441:Drivers/STM32F4xx_HAL_Driver/Src/stm32f4xx_hal_can.c ****   return status;
 2993              		.loc 1 2441 3 is_stmt 1 view .LVU945
2442:Drivers/STM32F4xx_HAL_Driver/Src/stm32f4xx_hal_can.c **** }
 2994              		.loc 1 2442 1 is_stmt 0 view .LVU946
 2995 0016 7047     		bx	lr
 2996              	.LVL237:
 2997              	.L230:
2430:Drivers/STM32F4xx_HAL_Driver/Src/stm32f4xx_hal_can.c ****   }
 2998              		.loc 1 2430 5 is_stmt 1 view .LVU947
2430:Drivers/STM32F4xx_HAL_Driver/Src/stm32f4xx_hal_can.c ****   }
 2999              		.loc 1 2430 21 is_stmt 0 view .LVU948
 3000 0018 0023     		movs	r3, #0
 3001 001a 4362     		str	r3, [r0, #36]
2423:Drivers/STM32F4xx_HAL_Driver/Src/stm32f4xx_hal_can.c ****   HAL_CAN_StateTypeDef state = hcan->State;
 3002              		.loc 1 2423 21 view .LVU949
 3003 001c 1846     		mov	r0, r3
 3004              	.LVL238:
2423:Drivers/STM32F4xx_HAL_Driver/Src/stm32f4xx_hal_can.c ****   HAL_CAN_StateTypeDef state = hcan->State;
 3005              		.loc 1 2423 21 view .LVU950
 3006 001e 7047     		bx	lr
 3007              		.cfi_endproc
 3008              	.LFE251:
ARM GAS  /tmp/ccrOzmIp.s 			page 122


 3010              		.text
 3011              	.Letext0:
 3012              		.file 3 "/usr/share/arm-gnu-toolchain-11.3.rel1-x86_64-arm-none-eabi/arm-none-eabi/include/machine
 3013              		.file 4 "/usr/share/arm-gnu-toolchain-11.3.rel1-x86_64-arm-none-eabi/arm-none-eabi/include/sys/_st
 3014              		.file 5 "Drivers/CMSIS/Device/ST/STM32F4xx/Include/stm32f413xx.h"
 3015              		.file 6 "Drivers/CMSIS/Device/ST/STM32F4xx/Include/stm32f4xx.h"
 3016              		.file 7 "Drivers/STM32F4xx_HAL_Driver/Inc/stm32f4xx_hal_def.h"
 3017              		.file 8 "Drivers/STM32F4xx_HAL_Driver/Inc/stm32f4xx_hal_can.h"
 3018              		.file 9 "Drivers/STM32F4xx_HAL_Driver/Inc/stm32f4xx_hal.h"
ARM GAS  /tmp/ccrOzmIp.s 			page 123


DEFINED SYMBOLS
                            *ABS*:0000000000000000 stm32f4xx_hal_can.c
     /tmp/ccrOzmIp.s:20     .text.HAL_CAN_MspInit:0000000000000000 $t
     /tmp/ccrOzmIp.s:26     .text.HAL_CAN_MspInit:0000000000000000 HAL_CAN_MspInit
     /tmp/ccrOzmIp.s:42     .text.HAL_CAN_Init:0000000000000000 $t
     /tmp/ccrOzmIp.s:48     .text.HAL_CAN_Init:0000000000000000 HAL_CAN_Init
     /tmp/ccrOzmIp.s:338    .text.HAL_CAN_MspDeInit:0000000000000000 $t
     /tmp/ccrOzmIp.s:344    .text.HAL_CAN_MspDeInit:0000000000000000 HAL_CAN_MspDeInit
     /tmp/ccrOzmIp.s:359    .text.HAL_CAN_ConfigFilter:0000000000000000 $t
     /tmp/ccrOzmIp.s:365    .text.HAL_CAN_ConfigFilter:0000000000000000 HAL_CAN_ConfigFilter
     /tmp/ccrOzmIp.s:612    .text.HAL_CAN_ConfigFilter:0000000000000134 $d
     /tmp/ccrOzmIp.s:618    .text.HAL_CAN_Start:0000000000000000 $t
     /tmp/ccrOzmIp.s:624    .text.HAL_CAN_Start:0000000000000000 HAL_CAN_Start
     /tmp/ccrOzmIp.s:722    .text.HAL_CAN_Stop:0000000000000000 $t
     /tmp/ccrOzmIp.s:728    .text.HAL_CAN_Stop:0000000000000000 HAL_CAN_Stop
     /tmp/ccrOzmIp.s:827    .text.HAL_CAN_DeInit:0000000000000000 $t
     /tmp/ccrOzmIp.s:833    .text.HAL_CAN_DeInit:0000000000000000 HAL_CAN_DeInit
     /tmp/ccrOzmIp.s:889    .text.HAL_CAN_RequestSleep:0000000000000000 $t
     /tmp/ccrOzmIp.s:895    .text.HAL_CAN_RequestSleep:0000000000000000 HAL_CAN_RequestSleep
     /tmp/ccrOzmIp.s:944    .text.HAL_CAN_WakeUp:0000000000000000 $t
     /tmp/ccrOzmIp.s:950    .text.HAL_CAN_WakeUp:0000000000000000 HAL_CAN_WakeUp
     /tmp/ccrOzmIp.s:1047   .text.HAL_CAN_WakeUp:0000000000000054 $d
     /tmp/ccrOzmIp.s:1052   .text.HAL_CAN_IsSleepActive:0000000000000000 $t
     /tmp/ccrOzmIp.s:1058   .text.HAL_CAN_IsSleepActive:0000000000000000 HAL_CAN_IsSleepActive
     /tmp/ccrOzmIp.s:1108   .text.HAL_CAN_AddTxMessage:0000000000000000 $t
     /tmp/ccrOzmIp.s:1114   .text.HAL_CAN_AddTxMessage:0000000000000000 HAL_CAN_AddTxMessage
     /tmp/ccrOzmIp.s:1329   .text.HAL_CAN_AbortTxRequest:0000000000000000 $t
     /tmp/ccrOzmIp.s:1335   .text.HAL_CAN_AbortTxRequest:0000000000000000 HAL_CAN_AbortTxRequest
     /tmp/ccrOzmIp.s:1410   .text.HAL_CAN_GetTxMailboxesFreeLevel:0000000000000000 $t
     /tmp/ccrOzmIp.s:1416   .text.HAL_CAN_GetTxMailboxesFreeLevel:0000000000000000 HAL_CAN_GetTxMailboxesFreeLevel
     /tmp/ccrOzmIp.s:1487   .text.HAL_CAN_IsTxMessagePending:0000000000000000 $t
     /tmp/ccrOzmIp.s:1493   .text.HAL_CAN_IsTxMessagePending:0000000000000000 HAL_CAN_IsTxMessagePending
     /tmp/ccrOzmIp.s:1550   .text.HAL_CAN_GetTxTimestamp:0000000000000000 $t
     /tmp/ccrOzmIp.s:1556   .text.HAL_CAN_GetTxTimestamp:0000000000000000 HAL_CAN_GetTxTimestamp
     /tmp/ccrOzmIp.s:1629   .text.HAL_CAN_GetRxMessage:0000000000000000 $t
     /tmp/ccrOzmIp.s:1635   .text.HAL_CAN_GetRxMessage:0000000000000000 HAL_CAN_GetRxMessage
     /tmp/ccrOzmIp.s:1927   .text.HAL_CAN_GetRxFifoFillLevel:0000000000000000 $t
     /tmp/ccrOzmIp.s:1933   .text.HAL_CAN_GetRxFifoFillLevel:0000000000000000 HAL_CAN_GetRxFifoFillLevel
     /tmp/ccrOzmIp.s:1995   .text.HAL_CAN_ActivateNotification:0000000000000000 $t
     /tmp/ccrOzmIp.s:2001   .text.HAL_CAN_ActivateNotification:0000000000000000 HAL_CAN_ActivateNotification
     /tmp/ccrOzmIp.s:2051   .text.HAL_CAN_DeactivateNotification:0000000000000000 $t
     /tmp/ccrOzmIp.s:2057   .text.HAL_CAN_DeactivateNotification:0000000000000000 HAL_CAN_DeactivateNotification
     /tmp/ccrOzmIp.s:2107   .text.HAL_CAN_TxMailbox0CompleteCallback:0000000000000000 $t
     /tmp/ccrOzmIp.s:2113   .text.HAL_CAN_TxMailbox0CompleteCallback:0000000000000000 HAL_CAN_TxMailbox0CompleteCallback
     /tmp/ccrOzmIp.s:2128   .text.HAL_CAN_TxMailbox1CompleteCallback:0000000000000000 $t
     /tmp/ccrOzmIp.s:2134   .text.HAL_CAN_TxMailbox1CompleteCallback:0000000000000000 HAL_CAN_TxMailbox1CompleteCallback
     /tmp/ccrOzmIp.s:2149   .text.HAL_CAN_TxMailbox2CompleteCallback:0000000000000000 $t
     /tmp/ccrOzmIp.s:2155   .text.HAL_CAN_TxMailbox2CompleteCallback:0000000000000000 HAL_CAN_TxMailbox2CompleteCallback
     /tmp/ccrOzmIp.s:2170   .text.HAL_CAN_TxMailbox0AbortCallback:0000000000000000 $t
     /tmp/ccrOzmIp.s:2176   .text.HAL_CAN_TxMailbox0AbortCallback:0000000000000000 HAL_CAN_TxMailbox0AbortCallback
     /tmp/ccrOzmIp.s:2191   .text.HAL_CAN_TxMailbox1AbortCallback:0000000000000000 $t
     /tmp/ccrOzmIp.s:2197   .text.HAL_CAN_TxMailbox1AbortCallback:0000000000000000 HAL_CAN_TxMailbox1AbortCallback
     /tmp/ccrOzmIp.s:2212   .text.HAL_CAN_TxMailbox2AbortCallback:0000000000000000 $t
     /tmp/ccrOzmIp.s:2218   .text.HAL_CAN_TxMailbox2AbortCallback:0000000000000000 HAL_CAN_TxMailbox2AbortCallback
     /tmp/ccrOzmIp.s:2233   .text.HAL_CAN_RxFifo0MsgPendingCallback:0000000000000000 $t
     /tmp/ccrOzmIp.s:2239   .text.HAL_CAN_RxFifo0MsgPendingCallback:0000000000000000 HAL_CAN_RxFifo0MsgPendingCallback
     /tmp/ccrOzmIp.s:2254   .text.HAL_CAN_RxFifo0FullCallback:0000000000000000 $t
ARM GAS  /tmp/ccrOzmIp.s 			page 124


     /tmp/ccrOzmIp.s:2260   .text.HAL_CAN_RxFifo0FullCallback:0000000000000000 HAL_CAN_RxFifo0FullCallback
     /tmp/ccrOzmIp.s:2275   .text.HAL_CAN_RxFifo1MsgPendingCallback:0000000000000000 $t
     /tmp/ccrOzmIp.s:2281   .text.HAL_CAN_RxFifo1MsgPendingCallback:0000000000000000 HAL_CAN_RxFifo1MsgPendingCallback
     /tmp/ccrOzmIp.s:2296   .text.HAL_CAN_RxFifo1FullCallback:0000000000000000 $t
     /tmp/ccrOzmIp.s:2302   .text.HAL_CAN_RxFifo1FullCallback:0000000000000000 HAL_CAN_RxFifo1FullCallback
     /tmp/ccrOzmIp.s:2317   .text.HAL_CAN_SleepCallback:0000000000000000 $t
     /tmp/ccrOzmIp.s:2323   .text.HAL_CAN_SleepCallback:0000000000000000 HAL_CAN_SleepCallback
     /tmp/ccrOzmIp.s:2338   .text.HAL_CAN_WakeUpFromRxMsgCallback:0000000000000000 $t
     /tmp/ccrOzmIp.s:2344   .text.HAL_CAN_WakeUpFromRxMsgCallback:0000000000000000 HAL_CAN_WakeUpFromRxMsgCallback
     /tmp/ccrOzmIp.s:2359   .text.HAL_CAN_ErrorCallback:0000000000000000 $t
     /tmp/ccrOzmIp.s:2365   .text.HAL_CAN_ErrorCallback:0000000000000000 HAL_CAN_ErrorCallback
     /tmp/ccrOzmIp.s:2380   .text.HAL_CAN_IRQHandler:0000000000000000 $t
     /tmp/ccrOzmIp.s:2386   .text.HAL_CAN_IRQHandler:0000000000000000 HAL_CAN_IRQHandler
     /tmp/ccrOzmIp.s:2864   .text.HAL_CAN_GetState:0000000000000000 $t
     /tmp/ccrOzmIp.s:2870   .text.HAL_CAN_GetState:0000000000000000 HAL_CAN_GetState
     /tmp/ccrOzmIp.s:2931   .text.HAL_CAN_GetError:0000000000000000 $t
     /tmp/ccrOzmIp.s:2937   .text.HAL_CAN_GetError:0000000000000000 HAL_CAN_GetError
     /tmp/ccrOzmIp.s:2955   .text.HAL_CAN_ResetError:0000000000000000 $t
     /tmp/ccrOzmIp.s:2961   .text.HAL_CAN_ResetError:0000000000000000 HAL_CAN_ResetError

UNDEFINED SYMBOLS
HAL_GetTick
